"File: Display.c     Assembler  Version HGASM0202      Page 1


   1  0000              ; Generated by holtek-gcc v3.19, Mon Jun 10 17:56:52 2024
   2  0000              ; 
   3  0000              ; Configuration:
   4  0000              ;       without long instruction
   5  0000              ;       Single ROM, Multi-RAM
   6  0000              ;       bits_per_rom_unit:16
   7  0000              ;       with mp1
   8  0000              ;       with tbhp, address(0x9)
   9  0000              ;          Use tabrd-const
  10  0000              ;       
  11  0000              ;       
  12  0000              ;       
  13  0000              ; use 'tabrdc' instead of 'tabrd'
  14  0000              ;       
  15  0000              
  16  0000              #pragma translator "holtek-gcc 4.6.4" "3.19" "build 20130711"
  17  0000              ; Rebuild 718
  18  0000              
  19  0000              ir equ [2]
  20  0000              mp equ [3]
  21  0000              sbp equ [1]
  22  0000              acc equ [5]
  23  0000              bp equ [4]
  24  0000              tblp equ [7]
  25  0000              tbhp equ [9]
  26  0000              status equ [10]
  27  0000              c equ [10].0
  28  0000              ac equ [10].1
  29  0000              z equ [10].2
  30  0000              ov equ [10].3
  31  0000              intc equ [11]
  32  0000              
  33  0000              extern ra:byte
  34  0000              extern rb:byte
  35  0000              extern rc:byte
  36  0000              extern rd:byte
  37  0000              extern re:byte
  38  0000              extern rf:byte
  39  0000              extern rg:byte
  40  0000              extern rh:byte
  41  0000              extern _Crom2Prom:near
  42  0000              extern _Crom2PromNext:near
  43  0000              
  44  0000              RAMBANK 0 @HCCINIT, @HCCINIT0
  45  0000              
  46  0000              RAMBANK 0 @BITDATASEC, @BITDATASEC1
  47  0000              @HCCINIT	.section 'data'
  48  0000              @HCCINIT0	.section 'data'
  49  0000              @BITDATASEC	 .section 'data'
  50  0000              @BITDATASEC1	 .section 'data'
  51  0000              
  52  0000              #pragma debug scope 1 1
  53  0000              	extern __DELAY3:near
  54  0000              	extern __DELAYX3:near
  55  0000              	extern __DELAYX6:near
  56  0000              	extern __DELAYY5:near
  57  0000              	extern __DELAYY3:near
  58  0000              	extern _builtin_holtek_delay_2:byte
  59  0000              ___pb equ [27]
"File: Display.ASM   Assembler  Version HGASM0202      Page 2

  60  0000              ___pc equ [31]
  61  0000              ___pd equ [35]
  62  0000              ___pa equ [20]
  63  0000              public _DisplayInit
  64  0000              #pragma debug scope 2 1

   4  0000              #line 4 "c:\users\tech\desktop\gasdetector\Display\Display.c"
   4  0000              _DisplayInit .section 'code'
   4  0000              _DisplayInit proc
   6  0000              #line 6 "c:\users\tech\desktop\gasdetector\Display\Display.c"
   6  0000  329B        	set [27].5
   7  0001              #line 7 "c:\users\tech\desktop\gasdetector\Display\Display.c"
   7  0001  331B        	set [27].6
   8  0002              #line 8 "c:\users\tech\desktop\gasdetector\Display\Display.c"
   8  0002  339B        	set [27].7
   9  0003              #line 9 "c:\users\tech\desktop\gasdetector\Display\Display.c"
   9  0003  321B        	set [27].4
  10  0004              #line 10 "c:\users\tech\desktop\gasdetector\Display\Display.c"
  10  0004  379F        	clr [31].7
  11  0005              #line 11 "c:\users\tech\desktop\gasdetector\Display\Display.c"
  11  0005  3423        	clr [35].0
  12  0006              #line 12 "c:\users\tech\desktop\gasdetector\Display\Display.c"
  12  0006  361F        	clr [31].4
  13  0007              #line 13 "c:\users\tech\desktop\gasdetector\Display\Display.c"
  13  0007  3794        	clr [20].7
  14  0008              #line 14 "c:\users\tech\desktop\gasdetector\Display\Display.c"
  14  0008  371F        	clr [31].6
  15  0009              #line 15 "c:\users\tech\desktop\gasdetector\Display\Display.c"
  15  0009  34A3        	clr [35].1
  16  000A              #line 16 "c:\users\tech\desktop\gasdetector\Display\Display.c"
  16  000A  359F        	clr [31].3
  16  000B  0003        	ret
  16  000C              _DisplayInit endp
  16  000C              #line 16 "c:\users\tech\desktop\gasdetector\Display\Display.c"
  16  000C              #pragma debug scope 1 1
  16  000C              public _segmentNumbers
  16  000C              #pragma debug scope 3 1
  20  000C              #line 20 "c:\users\tech\desktop\gasdetector\Display\Display.c"
  20  0000              _segmentNumbers .section 'code'
  20  0000              _segmentNumbers proc
  20  0000  00              local _segmentNumbers_2 db 1 dup(?)	; 0,1
  20  0000  0080     E  	mov ra,a
  20  0001  0080     R  	mov _segmentNumbers_2[0],a
  20  0002              #pragma debug variable 8 3 _segmentNumbers_2+0 "number"
  22  0002              #line 22 "c:\users\tech\desktop\gasdetector\Display\Display.c"
  22  0002  0700     E  	mov a,ra
  22  0003  0A00        	sub a,0
  22  0004  3D0A        	sz z
  22  0005  2800     R  	jmp _L4
  22  0006  0A01        	sub a,(1)-(0)
  22  0007  3D0A        	sz z
  22  0008  2800     R  	jmp _L5
  22  0009              #line 22 "c:\users\tech\desktop\gasdetector\Display\Display.c"
  22  0009  0700     E  	mov a,ra
  22  000A  0A02        	sub a,2
  22  000B  3D0A        	sz z
  22  000C  2800     R  	jmp _L6
  22  000D  0A01        	sub a,(3)-(2)
  22  000E  3D0A        	sz z
  22  000F  2800     R  	jmp _L7
"File: Display.c     Assembler  Version HGASM0202      Page 3

  22  0010  0700     E  	mov a,ra
  22  0011  0A04        	sub a,4
  22  0012  3D0A        	sz z
  22  0013  2800     R  	jmp _L8
  22  0014  0A01        	sub a,(5)-(4)
  22  0015  3D0A        	sz z
  22  0016  2800     R  	jmp _L9
  22  0017  0700     E  	mov a,ra
  22  0018  0A06        	sub a,6
  22  0019  3D0A        	sz z
  22  001A  2800     R  	jmp _L10
  22  001B  0A01        	sub a,(7)-(6)
  22  001C  3D0A        	sz z
  22  001D  2800     R  	jmp _L11
  22  001E  0700     E  	mov a,ra
  22  001F  0A08        	sub a,8
  22  0020  3D0A        	sz z
  22  0021  2800     R  	jmp _L12
  22  0022  0700     E  	mov a,ra
  22  0023  0A09        	sub a,9
  22  0024  390A        	snz z
  22  0025  2800     R  	jmp _L2
 113  0026              #line 113 "c:\users\tech\desktop\gasdetector\Display\Display.c"
 113  0026  379F        	clr [31].7
 114  0027              #line 114 "c:\users\tech\desktop\gasdetector\Display\Display.c"
 114  0027  3423        	clr [35].0
 114  0028  2800     R  	jmp _L16
 114  0029              _L4:
  26  0029              #line 26 "c:\users\tech\desktop\gasdetector\Display\Display.c"
  26  0029  379F        	clr [31].7
  27  002A              #line 27 "c:\users\tech\desktop\gasdetector\Display\Display.c"
  27  002A  3423        	clr [35].0
  28  002B              #line 28 "c:\users\tech\desktop\gasdetector\Display\Display.c"
  28  002B  361F        	clr [31].4
  29  002C              #line 29 "c:\users\tech\desktop\gasdetector\Display\Display.c"
  29  002C  3794        	clr [20].7
  30  002D              #line 30 "c:\users\tech\desktop\gasdetector\Display\Display.c"
  30  002D  371F        	clr [31].6
  31  002E              #line 31 "c:\users\tech\desktop\gasdetector\Display\Display.c"
  31  002E  34A3        	clr [35].1
  31  002F  2800     R  	jmp _L14
  31  0030              _L5:
  36  0030              #line 36 "c:\users\tech\desktop\gasdetector\Display\Display.c"
  36  0030  339F        	set [31].7
  36  0031  2800     R  	jmp _L19
  36  0032              _L6:
  46  0032              #line 46 "c:\users\tech\desktop\gasdetector\Display\Display.c"
  46  0032  379F        	clr [31].7
  47  0033              #line 47 "c:\users\tech\desktop\gasdetector\Display\Display.c"
  47  0033  3423        	clr [35].0
  48  0034              #line 48 "c:\users\tech\desktop\gasdetector\Display\Display.c"
  48  0034  321F        	set [31].4
  49  0035              #line 49 "c:\users\tech\desktop\gasdetector\Display\Display.c"
  49  0035  3794        	clr [20].7
  50  0036              #line 50 "c:\users\tech\desktop\gasdetector\Display\Display.c"
  50  0036  371F        	clr [31].6
  50  0037  2800     R  	jmp _L21
  50  0038              _L7:
  56  0038              #line 56 "c:\users\tech\desktop\gasdetector\Display\Display.c"
  56  0038  379F        	clr [31].7
"File: Display.c     Assembler  Version HGASM0202      Page 4

  57  0039              #line 57 "c:\users\tech\desktop\gasdetector\Display\Display.c"
  57  0039  3423        	clr [35].0
  58  003A              #line 58 "c:\users\tech\desktop\gasdetector\Display\Display.c"
  58  003A  361F        	clr [31].4
  59  003B              #line 59 "c:\users\tech\desktop\gasdetector\Display\Display.c"
  59  003B  3794        	clr [20].7
  60  003C              #line 60 "c:\users\tech\desktop\gasdetector\Display\Display.c"
  60  003C  331F        	set [31].6
  60  003D              _L21:
  61  003D              #line 61 "c:\users\tech\desktop\gasdetector\Display\Display.c"
  61  003D  30A3        	set [35].1
  61  003E  2800     R  	jmp _L18
  61  003F              _L8:
  66  003F              #line 66 "c:\users\tech\desktop\gasdetector\Display\Display.c"
  66  003F  339F        	set [31].7
  67  0040              #line 67 "c:\users\tech\desktop\gasdetector\Display\Display.c"
  67  0040  3423        	clr [35].0
  68  0041              #line 68 "c:\users\tech\desktop\gasdetector\Display\Display.c"
  68  0041  361F        	clr [31].4
  69  0042              #line 69 "c:\users\tech\desktop\gasdetector\Display\Display.c"
  69  0042  3394        	set [20].7
  69  0043  2800     R  	jmp _L17
  69  0044              _L9:
  76  0044              #line 76 "c:\users\tech\desktop\gasdetector\Display\Display.c"
  76  0044  379F        	clr [31].7
  77  0045              #line 77 "c:\users\tech\desktop\gasdetector\Display\Display.c"
  77  0045  3023        	set [35].0
  77  0046  2800     R  	jmp _L16
  77  0047              _L10:
  86  0047              #line 86 "c:\users\tech\desktop\gasdetector\Display\Display.c"
  86  0047  379F        	clr [31].7
  87  0048              #line 87 "c:\users\tech\desktop\gasdetector\Display\Display.c"
  87  0048  3023        	set [35].0
  87  0049  2800     R  	jmp _L20
  87  004A              _L11:
  95  004A              #line 95 "c:\users\tech\desktop\gasdetector\Display\Display.c"
  95  004A  379F        	clr [31].7
  95  004B              _L19:
  96  004B              #line 96 "c:\users\tech\desktop\gasdetector\Display\Display.c"
  96  004B  3423        	clr [35].0
  97  004C              #line 97 "c:\users\tech\desktop\gasdetector\Display\Display.c"
  97  004C  361F        	clr [31].4
  98  004D              #line 98 "c:\users\tech\desktop\gasdetector\Display\Display.c"
  98  004D  3394        	set [20].7
  99  004E              #line 99 "c:\users\tech\desktop\gasdetector\Display\Display.c"
  99  004E  331F        	set [31].6
 100  004F              #line 100 "c:\users\tech\desktop\gasdetector\Display\Display.c"
 100  004F  30A3        	set [35].1
 100  0050              _L14:
 101  0050              #line 101 "c:\users\tech\desktop\gasdetector\Display\Display.c"
 101  0050  319F        	set [31].3
 102  0051              #line 102 "c:\users\tech\desktop\gasdetector\Display\Display.c"
 102  0051  2800     R  	jmp _L2
 102  0052              _L12:
 104  0052              #line 104 "c:\users\tech\desktop\gasdetector\Display\Display.c"
 104  0052  379F        	clr [31].7
 105  0053              #line 105 "c:\users\tech\desktop\gasdetector\Display\Display.c"
 105  0053  3423        	clr [35].0
 105  0054              _L20:
 106  0054              #line 106 "c:\users\tech\desktop\gasdetector\Display\Display.c"
"File: Display.c     Assembler  Version HGASM0202      Page 5

 106  0054  361F        	clr [31].4
 107  0055              #line 107 "c:\users\tech\desktop\gasdetector\Display\Display.c"
 107  0055  3794        	clr [20].7
 108  0056              #line 108 "c:\users\tech\desktop\gasdetector\Display\Display.c"
 108  0056  371F        	clr [31].6
 108  0057  2800     R  	jmp _L15
 108  0058              _L16:
 115  0058              #line 115 "c:\users\tech\desktop\gasdetector\Display\Display.c"
 115  0058  361F        	clr [31].4
 116  0059              #line 116 "c:\users\tech\desktop\gasdetector\Display\Display.c"
 116  0059  3794        	clr [20].7
 116  005A              _L17:
 117  005A              #line 117 "c:\users\tech\desktop\gasdetector\Display\Display.c"
 117  005A  331F        	set [31].6
 117  005B              _L15:
 118  005B              #line 118 "c:\users\tech\desktop\gasdetector\Display\Display.c"
 118  005B  34A3        	clr [35].1
 118  005C              _L18:
 119  005C              #line 119 "c:\users\tech\desktop\gasdetector\Display\Display.c"
 119  005C  359F        	clr [31].3
 119  005D              _L2:
 119  005D  0003        	ret
 119  005E              _segmentNumbers endp
 119  005E              #line 119 "c:\users\tech\desktop\gasdetector\Display\Display.c"
 119  005E              #pragma debug scope 1 1
 119  005E              public _segmentCharacters
 119  005E              #pragma debug scope 4 1
 126  005E              #line 126 "c:\users\tech\desktop\gasdetector\Display\Display.c"
 126  0000              _segmentCharacters .section 'code'
 126  0000              _segmentCharacters proc
 126  0000  00              local _segmentCharacters_2 db 1 dup(?)	; 0,1
 126  0000  0080     E  	mov ra,a
 126  0001  0080     R  	mov _segmentCharacters_2[0],a
 126  0002              #pragma debug variable 8 4 _segmentCharacters_2+0 "character"
 128  0002              #line 128 "c:\users\tech\desktop\gasdetector\Display\Display.c"
 128  0002  0700     E  	mov a,ra
 128  0003  0A45        	sub a,69
 128  0004  3D0A        	sz z
 128  0005  2800     R  	jmp _L25
 128  0006  0A07        	sub a,(76)-(69)
 128  0007  3D0A        	sz z
 128  0008  2800     R  	jmp _L26
 128  0009              #line 128 "c:\users\tech\desktop\gasdetector\Display\Display.c"
 128  0009  0700     E  	mov a,ra
 128  000A  0A4F        	sub a,79
 128  000B  3D0A        	sz z
 128  000C  2800     R  	jmp _L27
 128  000D  0A13        	sub a,(98)-(79)
 128  000E  3D0A        	sz z
 128  000F  2800     R  	jmp _L28
 128  0010  0700     E  	mov a,ra
 128  0011  0A6E        	sub a,110
 128  0012  3D0A        	sz z
 128  0013  2800     R  	jmp _L29
 128  0014  0A01        	sub a,(111)-(110)
 128  0015  3D0A        	sz z
 128  0016  2800     R  	jmp _L30
 128  0017  0700     E  	mov a,ra
 128  0018  0A72        	sub a,114
 128  0019  390A        	snz z
"File: Display.c     Assembler  Version HGASM0202      Page 6

 128  001A  2800     R  	jmp _L23
 192  001B              #line 192 "c:\users\tech\desktop\gasdetector\Display\Display.c"
 192  001B  379F        	clr [31].7
 193  001C              #line 193 "c:\users\tech\desktop\gasdetector\Display\Display.c"
 193  001C  3023        	set [35].0
 194  001D              #line 194 "c:\users\tech\desktop\gasdetector\Display\Display.c"
 194  001D  321F        	set [31].4
 195  001E              #line 195 "c:\users\tech\desktop\gasdetector\Display\Display.c"
 195  001E  3394        	set [20].7
 195  001F  2800     R  	jmp _L35
 195  0020              _L28:
 132  0020              #line 132 "c:\users\tech\desktop\gasdetector\Display\Display.c"
 132  0020  339F        	set [31].7
 133  0021              #line 133 "c:\users\tech\desktop\gasdetector\Display\Display.c"
 133  0021  3023        	set [35].0
 134  0022              #line 134 "c:\users\tech\desktop\gasdetector\Display\Display.c"
 134  0022  361F        	clr [31].4
 134  0023  2800     R  	jmp _L33
 134  0024              _L26:
 142  0024              #line 142 "c:\users\tech\desktop\gasdetector\Display\Display.c"
 142  0024  339F        	set [31].7
 143  0025              #line 143 "c:\users\tech\desktop\gasdetector\Display\Display.c"
 143  0025  3023        	set [35].0
 144  0026              #line 144 "c:\users\tech\desktop\gasdetector\Display\Display.c"
 144  0026  321F        	set [31].4
 145  0027              #line 145 "c:\users\tech\desktop\gasdetector\Display\Display.c"
 145  0027  3794        	clr [20].7
 145  0028  2800     R  	jmp _L35
 145  0029              _L29:
 152  0029              #line 152 "c:\users\tech\desktop\gasdetector\Display\Display.c"
 152  0029  339F        	set [31].7
 153  002A              #line 153 "c:\users\tech\desktop\gasdetector\Display\Display.c"
 153  002A  3023        	set [35].0
 154  002B              #line 154 "c:\users\tech\desktop\gasdetector\Display\Display.c"
 154  002B  361F        	clr [31].4
 155  002C              #line 155 "c:\users\tech\desktop\gasdetector\Display\Display.c"
 155  002C  3394        	set [20].7
 155  002D  2800     R  	jmp _L36
 155  002E              _L30:
 162  002E              #line 162 "c:\users\tech\desktop\gasdetector\Display\Display.c"
 162  002E  339F        	set [31].7
 163  002F              #line 163 "c:\users\tech\desktop\gasdetector\Display\Display.c"
 163  002F  3023        	set [35].0
 164  0030              #line 164 "c:\users\tech\desktop\gasdetector\Display\Display.c"
 164  0030  361F        	clr [31].4
 165  0031              #line 165 "c:\users\tech\desktop\gasdetector\Display\Display.c"
 165  0031  3794        	clr [20].7
 165  0032              _L36:
 166  0032              #line 166 "c:\users\tech\desktop\gasdetector\Display\Display.c"
 166  0032  371F        	clr [31].6
 167  0033              #line 167 "c:\users\tech\desktop\gasdetector\Display\Display.c"
 167  0033  30A3        	set [35].1
 167  0034  2800     R  	jmp _L34
 167  0035              _L27:
 172  0035              #line 172 "c:\users\tech\desktop\gasdetector\Display\Display.c"
 172  0035  379F        	clr [31].7
 173  0036              #line 173 "c:\users\tech\desktop\gasdetector\Display\Display.c"
 173  0036  3423        	clr [35].0
 174  0037              #line 174 "c:\users\tech\desktop\gasdetector\Display\Display.c"
 174  0037  321F        	set [31].4
"File: Display.c     Assembler  Version HGASM0202      Page 7

 175  0038              #line 175 "c:\users\tech\desktop\gasdetector\Display\Display.c"
 175  0038  3394        	set [20].7
 176  0039              #line 176 "c:\users\tech\desktop\gasdetector\Display\Display.c"
 176  0039  331F        	set [31].6
 176  003A  2800     R  	jmp _L32
 176  003B              _L25:
 182  003B              #line 182 "c:\users\tech\desktop\gasdetector\Display\Display.c"
 182  003B  379F        	clr [31].7
 183  003C              #line 183 "c:\users\tech\desktop\gasdetector\Display\Display.c"
 183  003C  3023        	set [35].0
 184  003D              #line 184 "c:\users\tech\desktop\gasdetector\Display\Display.c"
 184  003D  321F        	set [31].4
 184  003E              _L33:
 185  003E              #line 185 "c:\users\tech\desktop\gasdetector\Display\Display.c"
 185  003E  3794        	clr [20].7
 186  003F              #line 186 "c:\users\tech\desktop\gasdetector\Display\Display.c"
 186  003F  371F        	clr [31].6
 186  0040              _L32:
 187  0040              #line 187 "c:\users\tech\desktop\gasdetector\Display\Display.c"
 187  0040  34A3        	clr [35].1
 187  0041              _L34:
 188  0041              #line 188 "c:\users\tech\desktop\gasdetector\Display\Display.c"
 188  0041  359F        	clr [31].3
 189  0042              #line 189 "c:\users\tech\desktop\gasdetector\Display\Display.c"
 189  0042  2800     R  	jmp _L23
 189  0043              _L35:
 196  0043              #line 196 "c:\users\tech\desktop\gasdetector\Display\Display.c"
 196  0043  371F        	clr [31].6
 197  0044              #line 197 "c:\users\tech\desktop\gasdetector\Display\Display.c"
 197  0044  34A3        	clr [35].1
 198  0045              #line 198 "c:\users\tech\desktop\gasdetector\Display\Display.c"
 198  0045  319F        	set [31].3
 198  0046              _L23:
 198  0046  0003        	ret
 198  0047              _segmentCharacters endp
 198  0047              #line 198 "c:\users\tech\desktop\gasdetector\Display\Display.c"
 198  0047              #pragma debug scope 1 1
 198  0047              public _Display
 198  0047              #pragma debug scope 5 1
 204  0047              #line 204 "c:\users\tech\desktop\gasdetector\Display\Display.c"
 204  0000              _Display .section 'code'
 204  0000              _Display proc
 204  0000              public _Display_2
 204  0000  0006[           local _Display_2 db 6 dup(?)	; 5,1
            00
            ]
 204  0006              #pragma debug variable 11 5 _Display_2+0 "number"
 204  0006              #pragma debug variable 8 5 _Display_2+2 "character"
 204  0006              #pragma debug pointer 42 7 5
 204  0006              #pragma debug pointer 42 7 5
 204  0006              #pragma debug variable 42 5 _Display_2+3 "clock"
 205  0006              #line 205 "c:\users\tech\desktop\gasdetector\Display\Display.c"
 205  0000  0700     R  	mov a,_Display_2[3]
 205  0001  0083        	mov mp,a
 205  0002  0700     R  	mov a,_Display_2[4]
 205  0003  0081        	mov sbp,a
 205  0004  2000     E  	call _Crom2Prom
 205  0005  0080     R  	mov _Display_2[5],a
 205  0006  0700     R  	mov a,_Display_2[5]
 205  0007  0A00        	sub a,0
"File: Display.c     Assembler  Version HGASM0202      Page 8

 205  0008  3D0A        	sz z
 205  0009  2800     R  	jmp _L39
 205  000A  0A01        	sub a,(1)-(0)
 205  000B  3D0A        	sz z
 205  000C  2800     R  	jmp _L40
 205  000D              #line 205 "c:\users\tech\desktop\gasdetector\Display\Display.c"
 205  000D  0700     R  	mov a,_Display_2[5]
 205  000E  0A02        	sub a,2
 205  000F  3D0A        	sz z
 205  0010  2800     R  	jmp _L41
 205  0011  0700     R  	mov a,_Display_2[5]
 205  0012  0A03        	sub a,3
 205  0013  390A        	snz z
 205  0014  2800     R  	jmp _L37
 249  0015              #line 249 "c:\users\tech\desktop\gasdetector\Display\Display.c"
 249  0015  0700     R  	mov a,_Display_2[0]
 249  0016  0080     E  	mov _builtin_holtek_udivmodhi4_2[0],a
 249  0017  0700     R  	mov a,_Display_2[1]
 249  0018  0080     E  	mov _builtin_holtek_udivmodhi4_2[1],a
 249  0019  0F0A        	mov a,10
 249  001A  0080     E  	mov _builtin_holtek_udivmodhi4_2[2],a
 249  001B  0F00        	mov a,0
 249  001C  0080     E  	mov _builtin_holtek_udivmodhi4_2[3],a
 249  001D  2000     E  	call _builtin_holtek_divmodhi4
 249  001E  0700     E  	mov a,_builtin_holtek_udivmodhi4_2[4]
 249  001F  0080     E  	mov rb,a
 249  0020  0700     E  	mov a,_builtin_holtek_udivmodhi4_2[5]
 249  0021  0080     E  	mov rc,a
 249  0022  0700     E  	mov a,rb
 249  0023  2000     R  	call _segmentNumbers
 251  0024              #line 251 "c:\users\tech\desktop\gasdetector\Display\Display.c"
 251  0024  369B        	clr [27].5
 252  0025              #line 252 "c:\users\tech\desktop\gasdetector\Display\Display.c"
 252  0025  371B        	clr [27].6
 253  0026              #line 253 "c:\users\tech\desktop\gasdetector\Display\Display.c"
 253  0026  379B        	clr [27].7
 254  0027              #line 254 "c:\users\tech\desktop\gasdetector\Display\Display.c"
 254  0027  321B        	set [27].4
 256  0028              #line 256 "c:\users\tech\desktop\gasdetector\Display\Display.c"
 256  0028  2800     R  	jmp _L37
 256  0029              _L39:
 209  0029              #line 209 "c:\users\tech\desktop\gasdetector\Display\Display.c"
 209  0029  0700     R  	mov a,_Display_2[2]
 209  002A  0A30        	sub a,48
 209  002B  3D0A        	sz z
 209  002C  2800     R  	jmp _L43
 212  002D              #line 212 "c:\users\tech\desktop\gasdetector\Display\Display.c"
 212  002D  0700     R  	mov a,_Display_2[2]
 212  002E  0080     E  	mov ra,a
 212  002F  0700     E  	mov a,ra
 212  0030  2000     R  	call _segmentCharacters
 212  0031  2800     R  	jmp _L44
 212  0032              _L43:
 217  0032              #line 217 "c:\users\tech\desktop\gasdetector\Display\Display.c"
 217  0032  0700     R  	mov a,_Display_2[0]
 217  0033  0080     E  	mov _builtin_holtek_udivmodhi4_2[0],a
 217  0034  0700     R  	mov a,_Display_2[1]
 217  0035  0080     E  	mov _builtin_holtek_udivmodhi4_2[1],a
 217  0036  0FE8        	mov a,232
 217  0037  0080     E  	mov _builtin_holtek_udivmodhi4_2[2],a
"File: Display.c     Assembler  Version HGASM0202      Page 9

 217  0038  0F03        	mov a,3
 217  0039  0080     E  	mov _builtin_holtek_udivmodhi4_2[3],a
 217  003A  2000     E  	call _builtin_holtek_divmodhi4
 217  003B  0700     E  	mov a,_builtin_holtek_udivmodhi4_2[0]
 217  003C  0080     E  	mov rb,a
 217  003D  0700     E  	mov a,_builtin_holtek_udivmodhi4_2[1]
 217  003E  0080     E  	mov rc,a
 217  003F  0700     E  	mov a,rb
 217  0040  0080     E  	mov _builtin_holtek_udivmodhi4_2[0],a
 217  0041  0700     E  	mov a,rc
 217  0042  0080     E  	mov _builtin_holtek_udivmodhi4_2[1],a
 217  0043  0F0A        	mov a,10
 217  0044  0080     E  	mov _builtin_holtek_udivmodhi4_2[2],a
 217  0045  0F00        	mov a,0
 217  0046  0080     E  	mov _builtin_holtek_udivmodhi4_2[3],a
 217  0047  2000     E  	call _builtin_holtek_divmodhi4
 217  0048  0700     E  	mov a,_builtin_holtek_udivmodhi4_2[4]
 217  0049  0080     E  	mov rb,a
 217  004A  0700     E  	mov a,_builtin_holtek_udivmodhi4_2[5]
 217  004B  0080     E  	mov rc,a
 217  004C  0700     E  	mov a,rb
 217  004D  2000     R  	call _segmentNumbers
 217  004E              _L44:
 220  004E              #line 220 "c:\users\tech\desktop\gasdetector\Display\Display.c"
 220  004E  329B        	set [27].5
 221  004F              #line 221 "c:\users\tech\desktop\gasdetector\Display\Display.c"
 221  004F  371B        	clr [27].6
 221  0050  2800     R  	jmp _L46
 221  0051              _L40:
 230  0051              #line 230 "c:\users\tech\desktop\gasdetector\Display\Display.c"
 230  0051  0700     R  	mov a,_Display_2[0]
 230  0052  0080     E  	mov _builtin_holtek_udivmodhi4_2[0],a
 230  0053  0700     R  	mov a,_Display_2[1]
 230  0054  0080     E  	mov _builtin_holtek_udivmodhi4_2[1],a
 230  0055  0F64        	mov a,100
 230  0056  0080     E  	mov _builtin_holtek_udivmodhi4_2[2],a
 230  0057  0F00        	mov a,0
 230  0058  0080     E  	mov _builtin_holtek_udivmodhi4_2[3],a
 230  0059  2000     E  	call _builtin_holtek_divmodhi4
 230  005A  0700     E  	mov a,_builtin_holtek_udivmodhi4_2[0]
 230  005B  0080     E  	mov rb,a
 230  005C  0700     E  	mov a,_builtin_holtek_udivmodhi4_2[1]
 230  005D  0080     E  	mov rc,a
 230  005E  0700     E  	mov a,rb
 230  005F  0080     E  	mov _builtin_holtek_udivmodhi4_2[0],a
 230  0060  0700     E  	mov a,rc
 230  0061  0080     E  	mov _builtin_holtek_udivmodhi4_2[1],a
 230  0062  0F0A        	mov a,10
 230  0063  0080     E  	mov _builtin_holtek_udivmodhi4_2[2],a
 230  0064  0F00        	mov a,0
 230  0065  0080     E  	mov _builtin_holtek_udivmodhi4_2[3],a
 230  0066  2000     E  	call _builtin_holtek_divmodhi4
 230  0067  0700     E  	mov a,_builtin_holtek_udivmodhi4_2[4]
 230  0068  0080     E  	mov rb,a
 230  0069  0700     E  	mov a,_builtin_holtek_udivmodhi4_2[5]
 230  006A  0080     E  	mov rc,a
 230  006B  0700     E  	mov a,rb
 230  006C  2000     R  	call _segmentNumbers
 231  006D              #line 231 "c:\users\tech\desktop\gasdetector\Display\Display.c"
 231  006D  369B        	clr [27].5
"File: Display.c     Assembler  Version HGASM0202      Page 10

 232  006E              #line 232 "c:\users\tech\desktop\gasdetector\Display\Display.c"
 232  006E  331B        	set [27].6
 232  006F              _L46:
 233  006F              #line 233 "c:\users\tech\desktop\gasdetector\Display\Display.c"
 233  006F  379B        	clr [27].7
 233  0070  2800     R  	jmp _L45
 233  0071              _L41:
 239  0071              #line 239 "c:\users\tech\desktop\gasdetector\Display\Display.c"
 239  0071  0700     R  	mov a,_Display_2[0]
 239  0072  0080     E  	mov _builtin_holtek_udivmodhi4_2[0],a
 239  0073  0700     R  	mov a,_Display_2[1]
 239  0074  0080     E  	mov _builtin_holtek_udivmodhi4_2[1],a
 239  0075  0F0A        	mov a,10
 239  0076  0080     E  	mov _builtin_holtek_udivmodhi4_2[2],a
 239  0077  0F00        	mov a,0
 239  0078  0080     E  	mov _builtin_holtek_udivmodhi4_2[3],a
 239  0079  2000     E  	call _builtin_holtek_divmodhi4
 239  007A  0700     E  	mov a,_builtin_holtek_udivmodhi4_2[0]
 239  007B  0080     E  	mov rb,a
 239  007C  0700     E  	mov a,_builtin_holtek_udivmodhi4_2[1]
 239  007D  0080     E  	mov rc,a
 239  007E  0700     E  	mov a,rb
 239  007F  0080     E  	mov _builtin_holtek_udivmodhi4_2[0],a
 239  0080  0700     E  	mov a,rc
 239  0081  0080     E  	mov _builtin_holtek_udivmodhi4_2[1],a
 239  0082  0F0A        	mov a,10
 239  0083  0080     E  	mov _builtin_holtek_udivmodhi4_2[2],a
 239  0084  0F00        	mov a,0
 239  0085  0080     E  	mov _builtin_holtek_udivmodhi4_2[3],a
 239  0086  2000     E  	call _builtin_holtek_divmodhi4
 239  0087  0700     E  	mov a,_builtin_holtek_udivmodhi4_2[4]
 239  0088  0080     E  	mov rb,a
 239  0089  0700     E  	mov a,_builtin_holtek_udivmodhi4_2[5]
 239  008A  0080     E  	mov rc,a
 239  008B  0700     E  	mov a,rb
 239  008C  2000     R  	call _segmentNumbers
 241  008D              #line 241 "c:\users\tech\desktop\gasdetector\Display\Display.c"
 241  008D  369B        	clr [27].5
 242  008E              #line 242 "c:\users\tech\desktop\gasdetector\Display\Display.c"
 242  008E  371B        	clr [27].6
 243  008F              #line 243 "c:\users\tech\desktop\gasdetector\Display\Display.c"
 243  008F  339B        	set [27].7
 243  0090              _L45:
 244  0090              #line 244 "c:\users\tech\desktop\gasdetector\Display\Display.c"
 244  0090  361B        	clr [27].4
 244  0091              _L37:
 244  0091  0003        	ret
 244  0092              _Display endp
 244  0092              #line 244 "c:\users\tech\desktop\gasdetector\Display\Display.c"
 244  0092              #pragma debug scope 1 1
 244  0092              public _DisplayLooding
 244  0092              #pragma debug scope 6 1
 263  0092              #line 263 "c:\users\tech\desktop\gasdetector\Display\Display.c"
 263  0000              _DisplayLooding .section 'code'
 263  0000              _DisplayLooding proc
 263  0000  00              local _DisplayLooding_2 db 1 dup(?)	; 0,1
 263  0000  0080     E  	mov ra,a
 263  0001  0080     R  	mov _DisplayLooding_2[0],a
 263  0002              #pragma debug variable 7 6 _DisplayLooding_2+0 "cunterDigit"
 265  0002              #line 265 "c:\users\tech\desktop\gasdetector\Display\Display.c"
"File: Display.c     Assembler  Version HGASM0202      Page 11

 265  0002  0700     E  	mov a,ra
 265  0003  0A00        	sub a,0
 265  0004  3D0A        	sz z
 265  0005  2800     R  	jmp _L49
 265  0006  0A01        	sub a,(1)-(0)
 265  0007  3D0A        	sz z
 265  0008  2800     R  	jmp _L55
 265  0009              #line 265 "c:\users\tech\desktop\gasdetector\Display\Display.c"
 265  0009  0700     E  	mov a,ra
 265  000A  0A02        	sub a,2
 265  000B  3D0A        	sz z
 265  000C  2800     R  	jmp _L54
 265  000D  0A01        	sub a,(3)-(2)
 265  000E  3D0A        	sz z
 265  000F  2800     R  	jmp _L59
 265  0010  0700     E  	mov a,ra
 265  0011  0A04        	sub a,4
 265  0012  3D0A        	sz z
 265  0013  2800     R  	jmp _L53
 265  0014  0A01        	sub a,(5)-(4)
 265  0015  3D0A        	sz z
 265  0016  2800     R  	jmp _L54
 265  0017  0700     E  	mov a,ra
 265  0018  0A06        	sub a,6
 265  0019  3D0A        	sz z
 265  001A  2800     R  	jmp _L55
 265  001B  0700     E  	mov a,ra
 265  001C  0A07        	sub a,7
 265  001D  390A        	snz z
 265  001E  2800     R  	jmp _L47
 265  001F  2800     R  	jmp _L56
 265  0020              _L49:
 268  0020              #line 268 "c:\users\tech\desktop\gasdetector\Display\Display.c"
 268  0020  0F6F        	mov a,111
 268  0021  2000     R  	call _segmentCharacters
 268  0022  2800     R  	jmp _L56
 268  0023              _L53:
 303  0023              #line 303 "c:\users\tech\desktop\gasdetector\Display\Display.c"
 303  0023  0F4F        	mov a,79
 303  0024  2000     R  	call _segmentCharacters
 303  0025              _L59:
 304  0025              #line 304 "c:\users\tech\desktop\gasdetector\Display\Display.c"
 304  0025  369B        	clr [27].5
 305  0026              #line 305 "c:\users\tech\desktop\gasdetector\Display\Display.c"
 305  0026  371B        	clr [27].6
 306  0027              #line 306 "c:\users\tech\desktop\gasdetector\Display\Display.c"
 306  0027  379B        	clr [27].7
 307  0028              #line 307 "c:\users\tech\desktop\gasdetector\Display\Display.c"
 307  0028  321B        	set [27].4
 309  0029              #line 309 "c:\users\tech\desktop\gasdetector\Display\Display.c"
 309  0029  2800     R  	jmp _L47
 309  002A              _L54:
 313  002A              #line 313 "c:\users\tech\desktop\gasdetector\Display\Display.c"
 313  002A  369B        	clr [27].5
 314  002B              #line 314 "c:\users\tech\desktop\gasdetector\Display\Display.c"
 314  002B  371B        	clr [27].6
 315  002C              #line 315 "c:\users\tech\desktop\gasdetector\Display\Display.c"
 315  002C  339B        	set [27].7
 315  002D  2800     R  	jmp _L57
 315  002E              _L55:
"File: Display.c     Assembler  Version HGASM0202      Page 12

 322  002E              #line 322 "c:\users\tech\desktop\gasdetector\Display\Display.c"
 322  002E  369B        	clr [27].5
 323  002F              #line 323 "c:\users\tech\desktop\gasdetector\Display\Display.c"
 323  002F  331B        	set [27].6
 323  0030  2800     R  	jmp _L58
 323  0031              _L56:
 332  0031              #line 332 "c:\users\tech\desktop\gasdetector\Display\Display.c"
 332  0031  329B        	set [27].5
 333  0032              #line 333 "c:\users\tech\desktop\gasdetector\Display\Display.c"
 333  0032  371B        	clr [27].6
 333  0033              _L58:
 334  0033              #line 334 "c:\users\tech\desktop\gasdetector\Display\Display.c"
 334  0033  379B        	clr [27].7
 334  0034              _L57:
 335  0034              #line 335 "c:\users\tech\desktop\gasdetector\Display\Display.c"
 335  0034  361B        	clr [27].4
 335  0035              _L47:
 335  0035  0003        	ret
 335  0036              _DisplayLooding endp
 335  0036              #line 335 "c:\users\tech\desktop\gasdetector\Display\Display.c"
 335  0036              #pragma debug scope 1 1
 335  0036              public _DisplayBatteryLOW
 335  0036              #pragma debug scope 7 1
 344  0036              #line 344 "c:\users\tech\desktop\gasdetector\Display\Display.c"
 344  0000              _DisplayBatteryLOW .section 'code'
 344  0000              _DisplayBatteryLOW proc
 344  0000  00              local _DisplayBatteryLOW_2 db 1 dup(?)	; 0,1
 344  0000  0080     E  	mov ra,a
 344  0001  0080     R  	mov _DisplayBatteryLOW_2[0],a
 344  0002              #pragma debug variable 7 7 _DisplayBatteryLOW_2+0 "cunterDigit"
 345  0002              #line 345 "c:\users\tech\desktop\gasdetector\Display\Display.c"
 345  0002  0700     E  	mov a,ra
 345  0003  0A00        	sub a,0
 345  0004  3D0A        	sz z
 345  0005  2800     R  	jmp _L62
 345  0006  0A01        	sub a,(1)-(0)
 345  0007  3D0A        	sz z
 345  0008  2800     R  	jmp _L63
 345  0009              #line 345 "c:\users\tech\desktop\gasdetector\Display\Display.c"
 345  0009  0700     E  	mov a,ra
 345  000A  0A02        	sub a,2
 345  000B  3D0A        	sz z
 345  000C  2800     R  	jmp _L64
 345  000D  0700     E  	mov a,ra
 345  000E  0A03        	sub a,3
 345  000F  390A        	snz z
 345  0010  2800     R  	jmp _L60
 372  0011              #line 372 "c:\users\tech\desktop\gasdetector\Display\Display.c"
 372  0011  0F72        	mov a,114
 372  0012  2000     R  	call _segmentCharacters
 373  0013              #line 373 "c:\users\tech\desktop\gasdetector\Display\Display.c"
 373  0013  369B        	clr [27].5
 374  0014              #line 374 "c:\users\tech\desktop\gasdetector\Display\Display.c"
 374  0014  371B        	clr [27].6
 375  0015              #line 375 "c:\users\tech\desktop\gasdetector\Display\Display.c"
 375  0015  379B        	clr [27].7
 376  0016              #line 376 "c:\users\tech\desktop\gasdetector\Display\Display.c"
 376  0016  321B        	set [27].4
 378  0017              #line 378 "c:\users\tech\desktop\gasdetector\Display\Display.c"
 378  0017  2800     R  	jmp _L60
"File: Display.c     Assembler  Version HGASM0202      Page 13

 378  0018              _L62:
 348  0018              #line 348 "c:\users\tech\desktop\gasdetector\Display\Display.c"
 348  0018  0F62        	mov a,98
 348  0019  2000     R  	call _segmentCharacters
 349  001A              #line 349 "c:\users\tech\desktop\gasdetector\Display\Display.c"
 349  001A  329B        	set [27].5
 350  001B              #line 350 "c:\users\tech\desktop\gasdetector\Display\Display.c"
 350  001B  371B        	clr [27].6
 350  001C  2800     R  	jmp _L67
 350  001D              _L63:
 356  001D              #line 356 "c:\users\tech\desktop\gasdetector\Display\Display.c"
 356  001D  0F45        	mov a,69
 356  001E  2000     R  	call _segmentCharacters
 357  001F              #line 357 "c:\users\tech\desktop\gasdetector\Display\Display.c"
 357  001F  369B        	clr [27].5
 358  0020              #line 358 "c:\users\tech\desktop\gasdetector\Display\Display.c"
 358  0020  331B        	set [27].6
 358  0021              _L67:
 359  0021              #line 359 "c:\users\tech\desktop\gasdetector\Display\Display.c"
 359  0021  379B        	clr [27].7
 359  0022  2800     R  	jmp _L66
 359  0023              _L64:
 364  0023              #line 364 "c:\users\tech\desktop\gasdetector\Display\Display.c"
 364  0023  0F72        	mov a,114
 364  0024  2000     R  	call _segmentCharacters
 365  0025              #line 365 "c:\users\tech\desktop\gasdetector\Display\Display.c"
 365  0025  369B        	clr [27].5
 366  0026              #line 366 "c:\users\tech\desktop\gasdetector\Display\Display.c"
 366  0026  371B        	clr [27].6
 367  0027              #line 367 "c:\users\tech\desktop\gasdetector\Display\Display.c"
 367  0027  339B        	set [27].7
 367  0028              _L66:
 368  0028              #line 368 "c:\users\tech\desktop\gasdetector\Display\Display.c"
 368  0028  361B        	clr [27].4
 368  0029              _L60:
 368  0029  0003        	ret
 368  002A              _DisplayBatteryLOW endp
 368  002A              #line 368 "c:\users\tech\desktop\gasdetector\Display\Display.c"
 368  002A              #pragma debug scope 1 1
 368  002A              #pragma debug struct_end
 368  002A              #pragma debug struct_end
 368  002A              #pragma debug union_end
 368  002A              #pragma debug union_end
 368  002A              #pragma debug variable 44 1 ___pa "__pa" 1
 368  002A              #pragma debug struct_end
 368  002A              #pragma debug struct_end
 368  002A              #pragma debug union_end
 368  002A              #pragma debug union_end
 368  002A              #pragma debug variable 46 1 ___pb "__pb" 1
 368  002A              #pragma debug struct_end
 368  002A              #pragma debug struct_end
 368  002A              #pragma debug union_end
 368  002A              #pragma debug union_end
 368  002A              #pragma debug variable 48 1 ___pc "__pc" 1
 368  002A              #pragma debug struct_end
 368  002A              #pragma debug struct_end
 368  002A              #pragma debug union_end
 368  002A              #pragma debug union_end
 368  002A              #pragma debug variable 50 1 ___pd "__pd" 1
 368  002A              extern _builtin_holtek_divmodhi4:near
"File: Display.c     Assembler  Version HGASM0202      Page 14

 368  002A              extern _builtin_holtek_udivmodhi4_2:byte
 368  002A              extern _builtin_holtek_udivmodhi4:near
 368  002A              
 368  002A              ; 
 368  002A              ; Generated by holtek-gcc v3.19, Mon Jun 10 17:56:52 2024
 368  002A              ; Rebuild 718
 368  002A              ; end of file


        0 Errors, 0