"File: Display.c     Assembler  Version HGASM0202      Page 1


   1  0000              ; Generated by holtek-gcc v3.19, Mon Jul 08 18:20:39 2024
   2  0000              ; 
   3  0000              ; Configuration:
   4  0000              ;       without long instruction
   5  0000              ;       Single ROM, Multi-RAM
   6  0000              ;       bits_per_rom_unit:16
   7  0000              ;       with mp1
   8  0000              ;       with tbhp, address(0x9)
   9  0000              ;          Use tabrd-const
  10  0000              ;       
  11  0000              ;       
  12  0000              ;       
  13  0000              ; use 'tabrdc' instead of 'tabrd'
  14  0000              ;       
  15  0000              
  16  0000              #pragma translator "holtek-gcc 4.6.4" "3.19" "build 20130711"
  17  0000              ; Rebuild 718
  18  0000              
  19  0000              ir equ [2]
  20  0000              mp equ [3]
  21  0000              sbp equ [1]
  22  0000              acc equ [5]
  23  0000              bp equ [4]
  24  0000              tblp equ [7]
  25  0000              tbhp equ [9]
  26  0000              status equ [10]
  27  0000              c equ [10].0
  28  0000              ac equ [10].1
  29  0000              z equ [10].2
  30  0000              ov equ [10].3
  31  0000              intc equ [11]
  32  0000              
  33  0000              extern ra:byte
  34  0000              extern rb:byte
  35  0000              extern rc:byte
  36  0000              extern rd:byte
  37  0000              extern re:byte
  38  0000              extern rf:byte
  39  0000              extern rg:byte
  40  0000              extern rh:byte
  41  0000              extern _Crom2Prom:near
  42  0000              extern _Crom2PromNext:near
  43  0000              
  44  0000              RAMBANK 0 @HCCINIT, @HCCINIT0
  45  0000              
  46  0000              RAMBANK 0 @BITDATASEC, @BITDATASEC1
  47  0000              @HCCINIT	.section 'data'
  48  0000              @HCCINIT0	.section 'data'
  49  0000              @BITDATASEC	 .section 'data'
  50  0000              @BITDATASEC1	 .section 'data'
  51  0000              
  52  0000              #pragma debug scope 1 1
  53  0000              	extern __DELAY3:near
  54  0000              	extern __DELAYX3:near
  55  0000              	extern __DELAYX6:near
  56  0000              	extern __DELAYY5:near
  57  0000              	extern __DELAYY3:near
  58  0000              	extern _builtin_holtek_delay_2:byte
  59  0000              ___pc equ [31]
"File: Display.ASM   Assembler  Version HGASM0202      Page 2

  60  0000              ___pd equ [35]
  61  0000              ___pa equ [20]
  62  0000              public _segmentNumbers
  63  0000              #pragma debug scope 2 1

  20  0000              #line 20 "c:\users\tech\desktop\gasdetector\Display\Display.c"
  20  0000              _segmentNumbers .section 'code'
  20  0000              _segmentNumbers proc
  20  0000  00              local _segmentNumbers_2 db 1 dup(?)	; 0,1
  20  0000  0080     E  	mov ra,a
  20  0001  0080     R  	mov _segmentNumbers_2[0],a
  20  0002              #pragma debug variable 8 2 _segmentNumbers_2+0 "number"
  22  0002              #line 22 "c:\users\tech\desktop\gasdetector\Display\Display.c"
  22  0002  0700     E  	mov a,ra
  22  0003  0A00        	sub a,0
  22  0004  3D0A        	sz z
  22  0005  2800     R  	jmp _L3
  22  0006  0A01        	sub a,(1)-(0)
  22  0007  3D0A        	sz z
  22  0008  2800     R  	jmp _L4
  22  0009              #line 22 "c:\users\tech\desktop\gasdetector\Display\Display.c"
  22  0009  0700     E  	mov a,ra
  22  000A  0A02        	sub a,2
  22  000B  3D0A        	sz z
  22  000C  2800     R  	jmp _L5
  22  000D  0A01        	sub a,(3)-(2)
  22  000E  3D0A        	sz z
  22  000F  2800     R  	jmp _L6
  22  0010  0700     E  	mov a,ra
  22  0011  0A04        	sub a,4
  22  0012  3D0A        	sz z
  22  0013  2800     R  	jmp _L7
  22  0014  0A01        	sub a,(5)-(4)
  22  0015  3D0A        	sz z
  22  0016  2800     R  	jmp _L8
  22  0017  0700     E  	mov a,ra
  22  0018  0A06        	sub a,6
  22  0019  3D0A        	sz z
  22  001A  2800     R  	jmp _L9
  22  001B  0A01        	sub a,(7)-(6)
  22  001C  3D0A        	sz z
  22  001D  2800     R  	jmp _L10
  22  001E  0700     E  	mov a,ra
  22  001F  0A08        	sub a,8
  22  0020  3D0A        	sz z
  22  0021  2800     R  	jmp _L11
  22  0022  0700     E  	mov a,ra
  22  0023  0A09        	sub a,9
  22  0024  390A        	snz z
  22  0025  2800     R  	jmp _L1
 113  0026              #line 113 "c:\users\tech\desktop\gasdetector\Display\Display.c"
 113  0026  379F        	clr [31].7
 114  0027              #line 114 "c:\users\tech\desktop\gasdetector\Display\Display.c"
 114  0027  3423        	clr [35].0
 114  0028  2800     R  	jmp _L15
 114  0029              _L3:
  26  0029              #line 26 "c:\users\tech\desktop\gasdetector\Display\Display.c"
  26  0029  379F        	clr [31].7
  27  002A              #line 27 "c:\users\tech\desktop\gasdetector\Display\Display.c"
  27  002A  3423        	clr [35].0
"File: Display.c     Assembler  Version HGASM0202      Page 3

  28  002B              #line 28 "c:\users\tech\desktop\gasdetector\Display\Display.c"
  28  002B  361F        	clr [31].4
  29  002C              #line 29 "c:\users\tech\desktop\gasdetector\Display\Display.c"
  29  002C  3794        	clr [20].7
  30  002D              #line 30 "c:\users\tech\desktop\gasdetector\Display\Display.c"
  30  002D  371F        	clr [31].6
  31  002E              #line 31 "c:\users\tech\desktop\gasdetector\Display\Display.c"
  31  002E  34A3        	clr [35].1
  31  002F  2800     R  	jmp _L13
  31  0030              _L4:
  36  0030              #line 36 "c:\users\tech\desktop\gasdetector\Display\Display.c"
  36  0030  339F        	set [31].7
  36  0031  2800     R  	jmp _L18
  36  0032              _L5:
  46  0032              #line 46 "c:\users\tech\desktop\gasdetector\Display\Display.c"
  46  0032  379F        	clr [31].7
  47  0033              #line 47 "c:\users\tech\desktop\gasdetector\Display\Display.c"
  47  0033  3423        	clr [35].0
  48  0034              #line 48 "c:\users\tech\desktop\gasdetector\Display\Display.c"
  48  0034  321F        	set [31].4
  49  0035              #line 49 "c:\users\tech\desktop\gasdetector\Display\Display.c"
  49  0035  3794        	clr [20].7
  50  0036              #line 50 "c:\users\tech\desktop\gasdetector\Display\Display.c"
  50  0036  371F        	clr [31].6
  50  0037  2800     R  	jmp _L20
  50  0038              _L6:
  56  0038              #line 56 "c:\users\tech\desktop\gasdetector\Display\Display.c"
  56  0038  379F        	clr [31].7
  57  0039              #line 57 "c:\users\tech\desktop\gasdetector\Display\Display.c"
  57  0039  3423        	clr [35].0
  58  003A              #line 58 "c:\users\tech\desktop\gasdetector\Display\Display.c"
  58  003A  361F        	clr [31].4
  59  003B              #line 59 "c:\users\tech\desktop\gasdetector\Display\Display.c"
  59  003B  3794        	clr [20].7
  60  003C              #line 60 "c:\users\tech\desktop\gasdetector\Display\Display.c"
  60  003C  331F        	set [31].6
  60  003D              _L20:
  61  003D              #line 61 "c:\users\tech\desktop\gasdetector\Display\Display.c"
  61  003D  30A3        	set [35].1
  61  003E  2800     R  	jmp _L17
  61  003F              _L7:
  66  003F              #line 66 "c:\users\tech\desktop\gasdetector\Display\Display.c"
  66  003F  339F        	set [31].7
  67  0040              #line 67 "c:\users\tech\desktop\gasdetector\Display\Display.c"
  67  0040  3423        	clr [35].0
  68  0041              #line 68 "c:\users\tech\desktop\gasdetector\Display\Display.c"
  68  0041  361F        	clr [31].4
  69  0042              #line 69 "c:\users\tech\desktop\gasdetector\Display\Display.c"
  69  0042  3394        	set [20].7
  69  0043  2800     R  	jmp _L16
  69  0044              _L8:
  76  0044              #line 76 "c:\users\tech\desktop\gasdetector\Display\Display.c"
  76  0044  379F        	clr [31].7
  77  0045              #line 77 "c:\users\tech\desktop\gasdetector\Display\Display.c"
  77  0045  3023        	set [35].0
  77  0046  2800     R  	jmp _L15
  77  0047              _L9:
  86  0047              #line 86 "c:\users\tech\desktop\gasdetector\Display\Display.c"
  86  0047  379F        	clr [31].7
  87  0048              #line 87 "c:\users\tech\desktop\gasdetector\Display\Display.c"
"File: Display.c     Assembler  Version HGASM0202      Page 4

  87  0048  3023        	set [35].0
  87  0049  2800     R  	jmp _L19
  87  004A              _L10:
  95  004A              #line 95 "c:\users\tech\desktop\gasdetector\Display\Display.c"
  95  004A  379F        	clr [31].7
  95  004B              _L18:
  96  004B              #line 96 "c:\users\tech\desktop\gasdetector\Display\Display.c"
  96  004B  3423        	clr [35].0
  97  004C              #line 97 "c:\users\tech\desktop\gasdetector\Display\Display.c"
  97  004C  361F        	clr [31].4
  98  004D              #line 98 "c:\users\tech\desktop\gasdetector\Display\Display.c"
  98  004D  3394        	set [20].7
  99  004E              #line 99 "c:\users\tech\desktop\gasdetector\Display\Display.c"
  99  004E  331F        	set [31].6
 100  004F              #line 100 "c:\users\tech\desktop\gasdetector\Display\Display.c"
 100  004F  30A3        	set [35].1
 100  0050              _L13:
 101  0050              #line 101 "c:\users\tech\desktop\gasdetector\Display\Display.c"
 101  0050  319F        	set [31].3
 102  0051              #line 102 "c:\users\tech\desktop\gasdetector\Display\Display.c"
 102  0051  2800     R  	jmp _L1
 102  0052              _L11:
 104  0052              #line 104 "c:\users\tech\desktop\gasdetector\Display\Display.c"
 104  0052  379F        	clr [31].7
 105  0053              #line 105 "c:\users\tech\desktop\gasdetector\Display\Display.c"
 105  0053  3423        	clr [35].0
 105  0054              _L19:
 106  0054              #line 106 "c:\users\tech\desktop\gasdetector\Display\Display.c"
 106  0054  361F        	clr [31].4
 107  0055              #line 107 "c:\users\tech\desktop\gasdetector\Display\Display.c"
 107  0055  3794        	clr [20].7
 108  0056              #line 108 "c:\users\tech\desktop\gasdetector\Display\Display.c"
 108  0056  371F        	clr [31].6
 108  0057  2800     R  	jmp _L14
 108  0058              _L15:
 115  0058              #line 115 "c:\users\tech\desktop\gasdetector\Display\Display.c"
 115  0058  361F        	clr [31].4
 116  0059              #line 116 "c:\users\tech\desktop\gasdetector\Display\Display.c"
 116  0059  3794        	clr [20].7
 116  005A              _L16:
 117  005A              #line 117 "c:\users\tech\desktop\gasdetector\Display\Display.c"
 117  005A  331F        	set [31].6
 117  005B              _L14:
 118  005B              #line 118 "c:\users\tech\desktop\gasdetector\Display\Display.c"
 118  005B  34A3        	clr [35].1
 118  005C              _L17:
 119  005C              #line 119 "c:\users\tech\desktop\gasdetector\Display\Display.c"
 119  005C  359F        	clr [31].3
 119  005D              _L1:
 119  005D  0003        	ret
 119  005E              _segmentNumbers endp
 119  005E              #line 119 "c:\users\tech\desktop\gasdetector\Display\Display.c"
 119  005E              #pragma debug scope 1 1
 119  005E              public _segmentCharacters
 119  005E              #pragma debug scope 3 1
 126  005E              #line 126 "c:\users\tech\desktop\gasdetector\Display\Display.c"
 126  0000              _segmentCharacters .section 'code'
 126  0000              _segmentCharacters proc
 126  0000  00              local _segmentCharacters_2 db 1 dup(?)	; 0,1
 126  0000  0080     E  	mov ra,a
"File: Display.c     Assembler  Version HGASM0202      Page 5

 126  0001  0080     R  	mov _segmentCharacters_2[0],a
 126  0002              #pragma debug variable 8 3 _segmentCharacters_2+0 "character"
 128  0002              #line 128 "c:\users\tech\desktop\gasdetector\Display\Display.c"
 128  0002  0700     E  	mov a,ra
 128  0003  0A45        	sub a,69
 128  0004  3D0A        	sz z
 128  0005  2800     R  	jmp _L24
 128  0006  0A07        	sub a,(76)-(69)
 128  0007  3D0A        	sz z
 128  0008  2800     R  	jmp _L25
 128  0009              #line 128 "c:\users\tech\desktop\gasdetector\Display\Display.c"
 128  0009  0700     E  	mov a,ra
 128  000A  0A4F        	sub a,79
 128  000B  3D0A        	sz z
 128  000C  2800     R  	jmp _L26
 128  000D  0A01        	sub a,(80)-(79)
 128  000E  3D0A        	sz z
 128  000F  2800     R  	jmp _L27
 128  0010  0700     E  	mov a,ra
 128  0011  0A53        	sub a,83
 128  0012  3D0A        	sz z
 128  0013  2800     R  	jmp _L28
 128  0014  0A0F        	sub a,(98)-(83)
 128  0015  3D0A        	sz z
 128  0016  2800     R  	jmp _L29
 128  0017  0700     E  	mov a,ra
 128  0018  0A6F        	sub a,111
 128  0019  3D0A        	sz z
 128  001A  2800     R  	jmp _L30
 128  001B  0700     E  	mov a,ra
 128  001C  0A72        	sub a,114
 128  001D  390A        	snz z
 128  001E  2800     R  	jmp _L22
 201  001F              #line 201 "c:\users\tech\desktop\gasdetector\Display\Display.c"
 201  001F  379F        	clr [31].7
 202  0020              #line 202 "c:\users\tech\desktop\gasdetector\Display\Display.c"
 202  0020  3023        	set [35].0
 203  0021              #line 203 "c:\users\tech\desktop\gasdetector\Display\Display.c"
 203  0021  321F        	set [31].4
 204  0022              #line 204 "c:\users\tech\desktop\gasdetector\Display\Display.c"
 204  0022  3394        	set [20].7
 204  0023  2800     R  	jmp _L35
 204  0024              _L29:
 141  0024              #line 141 "c:\users\tech\desktop\gasdetector\Display\Display.c"
 141  0024  339F        	set [31].7
 142  0025              #line 142 "c:\users\tech\desktop\gasdetector\Display\Display.c"
 142  0025  3023        	set [35].0
 143  0026              #line 143 "c:\users\tech\desktop\gasdetector\Display\Display.c"
 143  0026  361F        	clr [31].4
 143  0027  2800     R  	jmp _L36
 143  0028              _L25:
 151  0028              #line 151 "c:\users\tech\desktop\gasdetector\Display\Display.c"
 151  0028  339F        	set [31].7
 152  0029              #line 152 "c:\users\tech\desktop\gasdetector\Display\Display.c"
 152  0029  3023        	set [35].0
 153  002A              #line 153 "c:\users\tech\desktop\gasdetector\Display\Display.c"
 153  002A  321F        	set [31].4
 154  002B              #line 154 "c:\users\tech\desktop\gasdetector\Display\Display.c"
 154  002B  3794        	clr [20].7
 154  002C  2800     R  	jmp _L35
"File: Display.c     Assembler  Version HGASM0202      Page 6

 154  002D              _L30:
 171  002D              #line 171 "c:\users\tech\desktop\gasdetector\Display\Display.c"
 171  002D  339F        	set [31].7
 172  002E              #line 172 "c:\users\tech\desktop\gasdetector\Display\Display.c"
 172  002E  3023        	set [35].0
 173  002F              #line 173 "c:\users\tech\desktop\gasdetector\Display\Display.c"
 173  002F  361F        	clr [31].4
 174  0030              #line 174 "c:\users\tech\desktop\gasdetector\Display\Display.c"
 174  0030  3794        	clr [20].7
 175  0031              #line 175 "c:\users\tech\desktop\gasdetector\Display\Display.c"
 175  0031  371F        	clr [31].6
 176  0032              #line 176 "c:\users\tech\desktop\gasdetector\Display\Display.c"
 176  0032  30A3        	set [35].1
 176  0033  2800     R  	jmp _L34
 176  0034              _L26:
 181  0034              #line 181 "c:\users\tech\desktop\gasdetector\Display\Display.c"
 181  0034  379F        	clr [31].7
 182  0035              #line 182 "c:\users\tech\desktop\gasdetector\Display\Display.c"
 182  0035  3423        	clr [35].0
 183  0036              #line 183 "c:\users\tech\desktop\gasdetector\Display\Display.c"
 183  0036  321F        	set [31].4
 184  0037              #line 184 "c:\users\tech\desktop\gasdetector\Display\Display.c"
 184  0037  3394        	set [20].7
 184  0038  2800     R  	jmp _L37
 184  0039              _L24:
 191  0039              #line 191 "c:\users\tech\desktop\gasdetector\Display\Display.c"
 191  0039  379F        	clr [31].7
 192  003A              #line 192 "c:\users\tech\desktop\gasdetector\Display\Display.c"
 192  003A  3023        	set [35].0
 193  003B              #line 193 "c:\users\tech\desktop\gasdetector\Display\Display.c"
 193  003B  321F        	set [31].4
 193  003C              _L36:
 194  003C              #line 194 "c:\users\tech\desktop\gasdetector\Display\Display.c"
 194  003C  3794        	clr [20].7
 194  003D  2800     R  	jmp _L32
 194  003E              _L35:
 205  003E              #line 205 "c:\users\tech\desktop\gasdetector\Display\Display.c"
 205  003E  371F        	clr [31].6
 206  003F              #line 206 "c:\users\tech\desktop\gasdetector\Display\Display.c"
 206  003F  34A3        	clr [35].1
 207  0040              #line 207 "c:\users\tech\desktop\gasdetector\Display\Display.c"
 207  0040  319F        	set [31].3
 208  0041              #line 208 "c:\users\tech\desktop\gasdetector\Display\Display.c"
 208  0041  2800     R  	jmp _L22
 208  0042              _L28:
 211  0042              #line 211 "c:\users\tech\desktop\gasdetector\Display\Display.c"
 211  0042  379F        	clr [31].7
 212  0043              #line 212 "c:\users\tech\desktop\gasdetector\Display\Display.c"
 212  0043  3023        	set [35].0
 213  0044              #line 213 "c:\users\tech\desktop\gasdetector\Display\Display.c"
 213  0044  361F        	clr [31].4
 214  0045              #line 214 "c:\users\tech\desktop\gasdetector\Display\Display.c"
 214  0045  3794        	clr [20].7
 214  0046              _L37:
 215  0046              #line 215 "c:\users\tech\desktop\gasdetector\Display\Display.c"
 215  0046  331F        	set [31].6
 215  0047  2800     R  	jmp _L33
 215  0048              _L27:
 222  0048              #line 222 "c:\users\tech\desktop\gasdetector\Display\Display.c"
 222  0048  379F        	clr [31].7
"File: Display.c     Assembler  Version HGASM0202      Page 7

 223  0049              #line 223 "c:\users\tech\desktop\gasdetector\Display\Display.c"
 223  0049  3423        	clr [35].0
 224  004A              #line 224 "c:\users\tech\desktop\gasdetector\Display\Display.c"
 224  004A  321F        	set [31].4
 225  004B              #line 225 "c:\users\tech\desktop\gasdetector\Display\Display.c"
 225  004B  3394        	set [20].7
 225  004C              _L32:
 226  004C              #line 226 "c:\users\tech\desktop\gasdetector\Display\Display.c"
 226  004C  371F        	clr [31].6
 226  004D              _L33:
 227  004D              #line 227 "c:\users\tech\desktop\gasdetector\Display\Display.c"
 227  004D  34A3        	clr [35].1
 227  004E              _L34:
 228  004E              #line 228 "c:\users\tech\desktop\gasdetector\Display\Display.c"
 228  004E  359F        	clr [31].3
 228  004F              _L22:
 228  004F  0003        	ret
 228  0050              _segmentCharacters endp
 228  0050              #line 228 "c:\users\tech\desktop\gasdetector\Display\Display.c"
 228  0050              #pragma debug scope 1 1
 228  0050              ___pb equ [27]
 228  0050              public _Display
 228  0050              #pragma debug scope 4 1
 235  0050              #line 235 "c:\users\tech\desktop\gasdetector\Display\Display.c"
 235  0000              _Display .section 'code'
 235  0000              _Display proc
 235  0000              public _Display_2
 235  0000  0006[           local _Display_2 db 6 dup(?)	; 5,1
            00
            ]
 235  0006              #pragma debug variable 11 4 _Display_2+0 "number"
 235  0006              #pragma debug variable 8 4 _Display_2+2 "character"
 235  0006              #pragma debug pointer 42 7 4
 235  0006              #pragma debug pointer 42 7 4
 235  0006              #pragma debug variable 42 4 _Display_2+3 "clock"
 236  0006              #line 236 "c:\users\tech\desktop\gasdetector\Display\Display.c"
 236  0000  0700     R  	mov a,_Display_2[3]
 236  0001  0083        	mov mp,a
 236  0002  0700     R  	mov a,_Display_2[4]
 236  0003  0081        	mov sbp,a
 236  0004  2000     E  	call _Crom2Prom
 236  0005  0080     R  	mov _Display_2[5],a
 236  0006  0700     R  	mov a,_Display_2[5]
 236  0007  0A00        	sub a,0
 236  0008  3D0A        	sz z
 236  0009  2800     R  	jmp _L40
 236  000A  0A01        	sub a,(1)-(0)
 236  000B  3D0A        	sz z
 236  000C  2800     R  	jmp _L41
 236  000D              #line 236 "c:\users\tech\desktop\gasdetector\Display\Display.c"
 236  000D  0700     R  	mov a,_Display_2[5]
 236  000E  0A02        	sub a,2
 236  000F  3D0A        	sz z
 236  0010  2800     R  	jmp _L42
 236  0011  0700     R  	mov a,_Display_2[5]
 236  0012  0A03        	sub a,3
 236  0013  390A        	snz z
 236  0014  2800     R  	jmp _L38
 278  0015              #line 278 "c:\users\tech\desktop\gasdetector\Display\Display.c"
 278  0015  0700     R  	mov a,_Display_2[0]
"File: Display.c     Assembler  Version HGASM0202      Page 8

 278  0016  0080     E  	mov _builtin_holtek_udivmodhi4_2[0],a
 278  0017  0700     R  	mov a,_Display_2[1]
 278  0018  0080     E  	mov _builtin_holtek_udivmodhi4_2[1],a
 278  0019  0F0A        	mov a,10
 278  001A  0080     E  	mov _builtin_holtek_udivmodhi4_2[2],a
 278  001B  0F00        	mov a,0
 278  001C  0080     E  	mov _builtin_holtek_udivmodhi4_2[3],a
 278  001D  2000     E  	call _builtin_holtek_divmodhi4
 278  001E  0700     E  	mov a,_builtin_holtek_udivmodhi4_2[4]
 278  001F  0080     E  	mov rb,a
 278  0020  0700     E  	mov a,_builtin_holtek_udivmodhi4_2[5]
 278  0021  0080     E  	mov rc,a
 278  0022  0700     E  	mov a,rb
 278  0023  2000     R  	call _segmentNumbers
 280  0024              #line 280 "c:\users\tech\desktop\gasdetector\Display\Display.c"
 280  0024  369B        	clr [27].5
 281  0025              #line 281 "c:\users\tech\desktop\gasdetector\Display\Display.c"
 281  0025  371B        	clr [27].6
 282  0026              #line 282 "c:\users\tech\desktop\gasdetector\Display\Display.c"
 282  0026  379B        	clr [27].7
 283  0027              #line 283 "c:\users\tech\desktop\gasdetector\Display\Display.c"
 283  0027  321B        	set [27].4
 285  0028              #line 285 "c:\users\tech\desktop\gasdetector\Display\Display.c"
 285  0028  2800     R  	jmp _L38
 285  0029              _L40:
 240  0029              #line 240 "c:\users\tech\desktop\gasdetector\Display\Display.c"
 240  0029  0700     R  	mov a,_Display_2[2]
 240  002A  0A30        	sub a,48
 240  002B  3D0A        	sz z
 240  002C  2800     R  	jmp _L44
 242  002D              #line 242 "c:\users\tech\desktop\gasdetector\Display\Display.c"
 242  002D  0700     R  	mov a,_Display_2[2]
 242  002E  0080     E  	mov ra,a
 242  002F  0700     E  	mov a,ra
 242  0030  2000     R  	call _segmentCharacters
 242  0031  2800     R  	jmp _L45
 242  0032              _L44:
 246  0032              #line 246 "c:\users\tech\desktop\gasdetector\Display\Display.c"
 246  0032  0700     R  	mov a,_Display_2[0]
 246  0033  0080     E  	mov _builtin_holtek_udivmodhi4_2[0],a
 246  0034  0700     R  	mov a,_Display_2[1]
 246  0035  0080     E  	mov _builtin_holtek_udivmodhi4_2[1],a
 246  0036  0FE8        	mov a,232
 246  0037  0080     E  	mov _builtin_holtek_udivmodhi4_2[2],a
 246  0038  0F03        	mov a,3
 246  0039  0080     E  	mov _builtin_holtek_udivmodhi4_2[3],a
 246  003A  2000     E  	call _builtin_holtek_divmodhi4
 246  003B  0700     E  	mov a,_builtin_holtek_udivmodhi4_2[0]
 246  003C  0080     E  	mov rb,a
 246  003D  0700     E  	mov a,_builtin_holtek_udivmodhi4_2[1]
 246  003E  0080     E  	mov rc,a
 246  003F  0700     E  	mov a,rb
 246  0040  0080     E  	mov _builtin_holtek_udivmodhi4_2[0],a
 246  0041  0700     E  	mov a,rc
 246  0042  0080     E  	mov _builtin_holtek_udivmodhi4_2[1],a
 246  0043  0F0A        	mov a,10
 246  0044  0080     E  	mov _builtin_holtek_udivmodhi4_2[2],a
 246  0045  0F00        	mov a,0
 246  0046  0080     E  	mov _builtin_holtek_udivmodhi4_2[3],a
 246  0047  2000     E  	call _builtin_holtek_divmodhi4
"File: Display.c     Assembler  Version HGASM0202      Page 9

 246  0048  0700     E  	mov a,_builtin_holtek_udivmodhi4_2[4]
 246  0049  0080     E  	mov rb,a
 246  004A  0700     E  	mov a,_builtin_holtek_udivmodhi4_2[5]
 246  004B  0080     E  	mov rc,a
 246  004C  0700     E  	mov a,rb
 246  004D  2000     R  	call _segmentNumbers
 246  004E              _L45:
 249  004E              #line 249 "c:\users\tech\desktop\gasdetector\Display\Display.c"
 249  004E  329B        	set [27].5
 250  004F              #line 250 "c:\users\tech\desktop\gasdetector\Display\Display.c"
 250  004F  371B        	clr [27].6
 250  0050  2800     R  	jmp _L47
 250  0051              _L41:
 259  0051              #line 259 "c:\users\tech\desktop\gasdetector\Display\Display.c"
 259  0051  0700     R  	mov a,_Display_2[0]
 259  0052  0080     E  	mov _builtin_holtek_udivmodhi4_2[0],a
 259  0053  0700     R  	mov a,_Display_2[1]
 259  0054  0080     E  	mov _builtin_holtek_udivmodhi4_2[1],a
 259  0055  0F64        	mov a,100
 259  0056  0080     E  	mov _builtin_holtek_udivmodhi4_2[2],a
 259  0057  0F00        	mov a,0
 259  0058  0080     E  	mov _builtin_holtek_udivmodhi4_2[3],a
 259  0059  2000     E  	call _builtin_holtek_divmodhi4
 259  005A  0700     E  	mov a,_builtin_holtek_udivmodhi4_2[0]
 259  005B  0080     E  	mov rb,a
 259  005C  0700     E  	mov a,_builtin_holtek_udivmodhi4_2[1]
 259  005D  0080     E  	mov rc,a
 259  005E  0700     E  	mov a,rb
 259  005F  0080     E  	mov _builtin_holtek_udivmodhi4_2[0],a
 259  0060  0700     E  	mov a,rc
 259  0061  0080     E  	mov _builtin_holtek_udivmodhi4_2[1],a
 259  0062  0F0A        	mov a,10
 259  0063  0080     E  	mov _builtin_holtek_udivmodhi4_2[2],a
 259  0064  0F00        	mov a,0
 259  0065  0080     E  	mov _builtin_holtek_udivmodhi4_2[3],a
 259  0066  2000     E  	call _builtin_holtek_divmodhi4
 259  0067  0700     E  	mov a,_builtin_holtek_udivmodhi4_2[4]
 259  0068  0080     E  	mov rb,a
 259  0069  0700     E  	mov a,_builtin_holtek_udivmodhi4_2[5]
 259  006A  0080     E  	mov rc,a
 259  006B  0700     E  	mov a,rb
 259  006C  2000     R  	call _segmentNumbers
 260  006D              #line 260 "c:\users\tech\desktop\gasdetector\Display\Display.c"
 260  006D  369B        	clr [27].5
 261  006E              #line 261 "c:\users\tech\desktop\gasdetector\Display\Display.c"
 261  006E  331B        	set [27].6
 261  006F              _L47:
 262  006F              #line 262 "c:\users\tech\desktop\gasdetector\Display\Display.c"
 262  006F  379B        	clr [27].7
 262  0070  2800     R  	jmp _L46
 262  0071              _L42:
 268  0071              #line 268 "c:\users\tech\desktop\gasdetector\Display\Display.c"
 268  0071  0700     R  	mov a,_Display_2[0]
 268  0072  0080     E  	mov _builtin_holtek_udivmodhi4_2[0],a
 268  0073  0700     R  	mov a,_Display_2[1]
 268  0074  0080     E  	mov _builtin_holtek_udivmodhi4_2[1],a
 268  0075  0F0A        	mov a,10
 268  0076  0080     E  	mov _builtin_holtek_udivmodhi4_2[2],a
 268  0077  0F00        	mov a,0
 268  0078  0080     E  	mov _builtin_holtek_udivmodhi4_2[3],a
"File: Display.c     Assembler  Version HGASM0202      Page 10

 268  0079  2000     E  	call _builtin_holtek_divmodhi4
 268  007A  0700     E  	mov a,_builtin_holtek_udivmodhi4_2[0]
 268  007B  0080     E  	mov rb,a
 268  007C  0700     E  	mov a,_builtin_holtek_udivmodhi4_2[1]
 268  007D  0080     E  	mov rc,a
 268  007E  0700     E  	mov a,rb
 268  007F  0080     E  	mov _builtin_holtek_udivmodhi4_2[0],a
 268  0080  0700     E  	mov a,rc
 268  0081  0080     E  	mov _builtin_holtek_udivmodhi4_2[1],a
 268  0082  0F0A        	mov a,10
 268  0083  0080     E  	mov _builtin_holtek_udivmodhi4_2[2],a
 268  0084  0F00        	mov a,0
 268  0085  0080     E  	mov _builtin_holtek_udivmodhi4_2[3],a
 268  0086  2000     E  	call _builtin_holtek_divmodhi4
 268  0087  0700     E  	mov a,_builtin_holtek_udivmodhi4_2[4]
 268  0088  0080     E  	mov rb,a
 268  0089  0700     E  	mov a,_builtin_holtek_udivmodhi4_2[5]
 268  008A  0080     E  	mov rc,a
 268  008B  0700     E  	mov a,rb
 268  008C  2000     R  	call _segmentNumbers
 270  008D              #line 270 "c:\users\tech\desktop\gasdetector\Display\Display.c"
 270  008D  369B        	clr [27].5
 271  008E              #line 271 "c:\users\tech\desktop\gasdetector\Display\Display.c"
 271  008E  371B        	clr [27].6
 272  008F              #line 272 "c:\users\tech\desktop\gasdetector\Display\Display.c"
 272  008F  339B        	set [27].7
 272  0090              _L46:
 273  0090              #line 273 "c:\users\tech\desktop\gasdetector\Display\Display.c"
 273  0090  361B        	clr [27].4
 273  0091              _L38:
 273  0091  0003        	ret
 273  0092              _Display endp
 273  0092              #line 273 "c:\users\tech\desktop\gasdetector\Display\Display.c"
 273  0092              #pragma debug scope 1 1
 273  0092              public _DisplayLoading
 273  0092              #pragma debug scope 5 1
 292  0092              #line 292 "c:\users\tech\desktop\gasdetector\Display\Display.c"
 292  0000              _DisplayLoading .section 'code'
 292  0000              _DisplayLoading proc
 292  0000  00              local _DisplayLoading_2 db 1 dup(?)	; 0,1
 292  0000  0080     E  	mov ra,a
 292  0001  0080     R  	mov _DisplayLoading_2[0],a
 292  0002              #pragma debug variable 7 5 _DisplayLoading_2+0 "cunterDigit"
 294  0002              #line 294 "c:\users\tech\desktop\gasdetector\Display\Display.c"
 294  0002  0700     E  	mov a,ra
 294  0003  0A00        	sub a,0
 294  0004  3D0A        	sz z
 294  0005  2800     R  	jmp _L50
 294  0006  0A01        	sub a,(1)-(0)
 294  0007  3D0A        	sz z
 294  0008  2800     R  	jmp _L56
 294  0009              #line 294 "c:\users\tech\desktop\gasdetector\Display\Display.c"
 294  0009  0700     E  	mov a,ra
 294  000A  0A02        	sub a,2
 294  000B  3D0A        	sz z
 294  000C  2800     R  	jmp _L55
 294  000D  0A01        	sub a,(3)-(2)
 294  000E  3D0A        	sz z
 294  000F  2800     R  	jmp _L60
 294  0010  0700     E  	mov a,ra
"File: Display.c     Assembler  Version HGASM0202      Page 11

 294  0011  0A04        	sub a,4
 294  0012  3D0A        	sz z
 294  0013  2800     R  	jmp _L54
 294  0014  0A01        	sub a,(5)-(4)
 294  0015  3D0A        	sz z
 294  0016  2800     R  	jmp _L55
 294  0017  0700     E  	mov a,ra
 294  0018  0A06        	sub a,6
 294  0019  3D0A        	sz z
 294  001A  2800     R  	jmp _L56
 294  001B  0700     E  	mov a,ra
 294  001C  0A07        	sub a,7
 294  001D  390A        	snz z
 294  001E  2800     R  	jmp _L48
 294  001F  2800     R  	jmp _L57
 294  0020              _L50:
 297  0020              #line 297 "c:\users\tech\desktop\gasdetector\Display\Display.c"
 297  0020  0F6F        	mov a,111
 297  0021  2000     R  	call _segmentCharacters
 297  0022  2800     R  	jmp _L57
 297  0023              _L54:
 332  0023              #line 332 "c:\users\tech\desktop\gasdetector\Display\Display.c"
 332  0023  0F4F        	mov a,79
 332  0024  2000     R  	call _segmentCharacters
 332  0025              _L60:
 333  0025              #line 333 "c:\users\tech\desktop\gasdetector\Display\Display.c"
 333  0025  369B        	clr [27].5
 334  0026              #line 334 "c:\users\tech\desktop\gasdetector\Display\Display.c"
 334  0026  371B        	clr [27].6
 335  0027              #line 335 "c:\users\tech\desktop\gasdetector\Display\Display.c"
 335  0027  379B        	clr [27].7
 336  0028              #line 336 "c:\users\tech\desktop\gasdetector\Display\Display.c"
 336  0028  321B        	set [27].4
 338  0029              #line 338 "c:\users\tech\desktop\gasdetector\Display\Display.c"
 338  0029  2800     R  	jmp _L48
 338  002A              _L55:
 342  002A              #line 342 "c:\users\tech\desktop\gasdetector\Display\Display.c"
 342  002A  369B        	clr [27].5
 343  002B              #line 343 "c:\users\tech\desktop\gasdetector\Display\Display.c"
 343  002B  371B        	clr [27].6
 344  002C              #line 344 "c:\users\tech\desktop\gasdetector\Display\Display.c"
 344  002C  339B        	set [27].7
 344  002D  2800     R  	jmp _L58
 344  002E              _L56:
 351  002E              #line 351 "c:\users\tech\desktop\gasdetector\Display\Display.c"
 351  002E  369B        	clr [27].5
 352  002F              #line 352 "c:\users\tech\desktop\gasdetector\Display\Display.c"
 352  002F  331B        	set [27].6
 352  0030  2800     R  	jmp _L59
 352  0031              _L57:
 361  0031              #line 361 "c:\users\tech\desktop\gasdetector\Display\Display.c"
 361  0031  329B        	set [27].5
 362  0032              #line 362 "c:\users\tech\desktop\gasdetector\Display\Display.c"
 362  0032  371B        	clr [27].6
 362  0033              _L59:
 363  0033              #line 363 "c:\users\tech\desktop\gasdetector\Display\Display.c"
 363  0033  379B        	clr [27].7
 363  0034              _L58:
 364  0034              #line 364 "c:\users\tech\desktop\gasdetector\Display\Display.c"
 364  0034  361B        	clr [27].4
"File: Display.c     Assembler  Version HGASM0202      Page 12

 364  0035              _L48:
 364  0035  0003        	ret
 364  0036              _DisplayLoading endp
 364  0036              #line 364 "c:\users\tech\desktop\gasdetector\Display\Display.c"
 364  0036              #pragma debug scope 1 1
 364  0036              public _DisplayError
 364  0036              #pragma debug scope 6 1
 374  0036              #line 374 "c:\users\tech\desktop\gasdetector\Display\Display.c"
 374  0000              _DisplayError .section 'code'
 374  0000              _DisplayError proc
 374  0000              public _DisplayError_2
 374  0000  0002[           local _DisplayError_2 db 2 dup(?)	; 1,1
            00
            ]
 374  0000  0080     R  	mov _DisplayError_2[1],a
 374  0001              #pragma debug variable 7 6 _DisplayError_2+1 "typeOfError"
 374  0001              #pragma debug variable 7 6 _DisplayError_2+0 "cunterDigit"
 375  0001              #line 375 "c:\users\tech\desktop\gasdetector\Display\Display.c"
 375  0001  0700     R  	mov a,_DisplayError_2[0]
 375  0002  0A00        	sub a,0
 375  0003  3D0A        	sz z
 375  0004  2800     R  	jmp _L63
 375  0005  0A01        	sub a,(1)-(0)
 375  0006  3D0A        	sz z
 375  0007  2800     R  	jmp _L64
 375  0008              #line 375 "c:\users\tech\desktop\gasdetector\Display\Display.c"
 375  0008  0700     R  	mov a,_DisplayError_2[0]
 375  0009  0A02        	sub a,2
 375  000A  3D0A        	sz z
 375  000B  2800     R  	jmp _L65
 375  000C  0700     R  	mov a,_DisplayError_2[0]
 375  000D  0A03        	sub a,3
 375  000E  390A        	snz z
 375  000F  2800     R  	jmp _L61
 402  0010              #line 402 "c:\users\tech\desktop\gasdetector\Display\Display.c"
 402  0010  0F72        	mov a,114
 402  0011  2000     R  	call _segmentCharacters
 403  0012              #line 403 "c:\users\tech\desktop\gasdetector\Display\Display.c"
 403  0012  369B        	clr [27].5
 404  0013              #line 404 "c:\users\tech\desktop\gasdetector\Display\Display.c"
 404  0013  371B        	clr [27].6
 405  0014              #line 405 "c:\users\tech\desktop\gasdetector\Display\Display.c"
 405  0014  379B        	clr [27].7
 406  0015              #line 406 "c:\users\tech\desktop\gasdetector\Display\Display.c"
 406  0015  321B        	set [27].4
 408  0016              #line 408 "c:\users\tech\desktop\gasdetector\Display\Display.c"
 408  0016  2800     R  	jmp _L61
 408  0017              _L63:
 378  0017              #line 378 "c:\users\tech\desktop\gasdetector\Display\Display.c"
 378  0017  0700     R  	mov a,_DisplayError_2[1]
 378  0018  2000     R  	call _segmentCharacters
 379  0019              #line 379 "c:\users\tech\desktop\gasdetector\Display\Display.c"
 379  0019  329B        	set [27].5
 380  001A              #line 380 "c:\users\tech\desktop\gasdetector\Display\Display.c"
 380  001A  371B        	clr [27].6
 380  001B  2800     R  	jmp _L68
 380  001C              _L64:
 386  001C              #line 386 "c:\users\tech\desktop\gasdetector\Display\Display.c"
 386  001C  0F45        	mov a,69
 386  001D  2000     R  	call _segmentCharacters
"File: Display.c     Assembler  Version HGASM0202      Page 13

 387  001E              #line 387 "c:\users\tech\desktop\gasdetector\Display\Display.c"
 387  001E  369B        	clr [27].5
 388  001F              #line 388 "c:\users\tech\desktop\gasdetector\Display\Display.c"
 388  001F  331B        	set [27].6
 388  0020              _L68:
 389  0020              #line 389 "c:\users\tech\desktop\gasdetector\Display\Display.c"
 389  0020  379B        	clr [27].7
 389  0021  2800     R  	jmp _L67
 389  0022              _L65:
 394  0022              #line 394 "c:\users\tech\desktop\gasdetector\Display\Display.c"
 394  0022  0F72        	mov a,114
 394  0023  2000     R  	call _segmentCharacters
 395  0024              #line 395 "c:\users\tech\desktop\gasdetector\Display\Display.c"
 395  0024  369B        	clr [27].5
 396  0025              #line 396 "c:\users\tech\desktop\gasdetector\Display\Display.c"
 396  0025  371B        	clr [27].6
 397  0026              #line 397 "c:\users\tech\desktop\gasdetector\Display\Display.c"
 397  0026  339B        	set [27].7
 397  0027              _L67:
 398  0027              #line 398 "c:\users\tech\desktop\gasdetector\Display\Display.c"
 398  0027  361B        	clr [27].4
 398  0028              _L61:
 398  0028  0003        	ret
 398  0029              _DisplayError endp
 398  0029              #line 398 "c:\users\tech\desktop\gasdetector\Display\Display.c"
 398  0029              #pragma debug scope 1 1
 398  0029              #pragma debug struct_end
 398  0029              #pragma debug struct_end
 398  0029              #pragma debug union_end
 398  0029              #pragma debug union_end
 398  0029              #pragma debug variable 44 1 ___pa "__pa" 1
 398  0029              #pragma debug struct_end
 398  0029              #pragma debug struct_end
 398  0029              #pragma debug union_end
 398  0029              #pragma debug union_end
 398  0029              #pragma debug variable 46 1 ___pb "__pb" 1
 398  0029              #pragma debug struct_end
 398  0029              #pragma debug struct_end
 398  0029              #pragma debug union_end
 398  0029              #pragma debug union_end
 398  0029              #pragma debug variable 48 1 ___pc "__pc" 1
 398  0029              #pragma debug struct_end
 398  0029              #pragma debug struct_end
 398  0029              #pragma debug union_end
 398  0029              #pragma debug union_end
 398  0029              #pragma debug variable 50 1 ___pd "__pd" 1
 398  0029              extern _builtin_holtek_divmodhi4:near
 398  0029              extern _builtin_holtek_udivmodhi4_2:byte
 398  0029              extern _builtin_holtek_udivmodhi4:near
 398  0029              
 398  0029              ; 
 398  0029              ; Generated by holtek-gcc v3.19, Mon Jul 08 18:20:39 2024
 398  0029              ; Rebuild 718
 398  0029              ; end of file


        0 Errors, 0