"File: Display.c     Assembler  Version HGASM0202      Page 1


   1  0000              ; Generated by holtek-gcc v3.19, Sun Jun 09 17:33:00 2024
   2  0000              ; 
   3  0000              ; Configuration:
   4  0000              ;       without long instruction
   5  0000              ;       Single ROM, Multi-RAM
   6  0000              ;       bits_per_rom_unit:16
   7  0000              ;       with mp1
   8  0000              ;       with tbhp, address(0x9)
   9  0000              ;          Use tabrd-const
  10  0000              ;       
  11  0000              ;       
  12  0000              ;       
  13  0000              ; use 'tabrdc' instead of 'tabrd'
  14  0000              ;       
  15  0000              
  16  0000              #pragma translator "holtek-gcc 4.6.4" "3.19" "build 20130711"
  17  0000              ; Rebuild 718
  18  0000              
  19  0000              ir equ [2]
  20  0000              mp equ [3]
  21  0000              sbp equ [1]
  22  0000              acc equ [5]
  23  0000              bp equ [4]
  24  0000              tblp equ [7]
  25  0000              tbhp equ [9]
  26  0000              status equ [10]
  27  0000              c equ [10].0
  28  0000              ac equ [10].1
  29  0000              z equ [10].2
  30  0000              ov equ [10].3
  31  0000              intc equ [11]
  32  0000              
  33  0000              extern ra:byte
  34  0000              extern rb:byte
  35  0000              extern rc:byte
  36  0000              extern rd:byte
  37  0000              extern re:byte
  38  0000              extern rf:byte
  39  0000              extern rg:byte
  40  0000              extern rh:byte
  41  0000              extern _Crom2Prom:near
  42  0000              extern _Crom2PromNext:near
  43  0000              
  44  0000              RAMBANK 0 @HCCINIT, @HCCINIT0
  45  0000              
  46  0000              RAMBANK 0 @BITDATASEC, @BITDATASEC1
  47  0000              @HCCINIT	.section 'data'
  48  0000              @HCCINIT0	.section 'data'
  49  0000              @BITDATASEC	 .section 'data'
  50  0000              @BITDATASEC1	 .section 'data'
  51  0000              
  52  0000              #pragma debug scope 1 1
  53  0000              	extern __DELAY3:near
  54  0000              	extern __DELAYX3:near
  55  0000              	extern __DELAYX6:near
  56  0000              	extern __DELAYY5:near
  57  0000              	extern __DELAYY3:near
  58  0000              	extern _builtin_holtek_delay_2:byte
  59  0000              ___pb equ [27]
"File: Display.ASM   Assembler  Version HGASM0202      Page 2

  60  0000              ___pc equ [31]
  61  0000              ___pd equ [35]
  62  0000              ___pa equ [20]
  63  0000              public _DisplayInit
  64  0000              #pragma debug scope 2 1

   4  0000              #line 4 "c:\users\tech\desktop\gasdetector\Display\Display.c"
   4  0000              _DisplayInit .section 'code'
   4  0000              _DisplayInit proc
   6  0000              #line 6 "c:\users\tech\desktop\gasdetector\Display\Display.c"
   6  0000  329B        	set [27].5
   7  0001              #line 7 "c:\users\tech\desktop\gasdetector\Display\Display.c"
   7  0001  331B        	set [27].6
   8  0002              #line 8 "c:\users\tech\desktop\gasdetector\Display\Display.c"
   8  0002  339B        	set [27].7
   9  0003              #line 9 "c:\users\tech\desktop\gasdetector\Display\Display.c"
   9  0003  321B        	set [27].4
  10  0004              #line 10 "c:\users\tech\desktop\gasdetector\Display\Display.c"
  10  0004  379F        	clr [31].7
  11  0005              #line 11 "c:\users\tech\desktop\gasdetector\Display\Display.c"
  11  0005  3423        	clr [35].0
  12  0006              #line 12 "c:\users\tech\desktop\gasdetector\Display\Display.c"
  12  0006  361F        	clr [31].4
  13  0007              #line 13 "c:\users\tech\desktop\gasdetector\Display\Display.c"
  13  0007  3794        	clr [20].7
  14  0008              #line 14 "c:\users\tech\desktop\gasdetector\Display\Display.c"
  14  0008  371F        	clr [31].6
  15  0009              #line 15 "c:\users\tech\desktop\gasdetector\Display\Display.c"
  15  0009  34A3        	clr [35].1
  16  000A              #line 16 "c:\users\tech\desktop\gasdetector\Display\Display.c"
  16  000A  359F        	clr [31].3
  16  000B  0003        	ret
  16  000C              _DisplayInit endp
  16  000C              #line 16 "c:\users\tech\desktop\gasdetector\Display\Display.c"
  16  000C              #pragma debug scope 1 1
  16  000C              public _segmentNumbers
  16  000C              #pragma debug scope 3 1
  20  000C              #line 20 "c:\users\tech\desktop\gasdetector\Display\Display.c"
  20  0000              _segmentNumbers .section 'code'
  20  0000              _segmentNumbers proc
  20  0000  00              local _segmentNumbers_2 db 1 dup(?)	; 0,1
  20  0000  0080     E  	mov ra,a
  20  0001  0080     R  	mov _segmentNumbers_2[0],a
  20  0002              #pragma debug variable 8 3 _segmentNumbers_2+0 "n"
  22  0002              #line 22 "c:\users\tech\desktop\gasdetector\Display\Display.c"
  22  0002  0700     E  	mov a,ra
  22  0003  0A00        	sub a,0
  22  0004  3D0A        	sz z
  22  0005  2800     R  	jmp _L4
  22  0006  0A01        	sub a,(1)-(0)
  22  0007  3D0A        	sz z
  22  0008  2800     R  	jmp _L5
  22  0009              #line 22 "c:\users\tech\desktop\gasdetector\Display\Display.c"
  22  0009  0700     E  	mov a,ra
  22  000A  0A02        	sub a,2
  22  000B  3D0A        	sz z
  22  000C  2800     R  	jmp _L6
  22  000D  0A01        	sub a,(3)-(2)
  22  000E  3D0A        	sz z
  22  000F  2800     R  	jmp _L7
"File: Display.c     Assembler  Version HGASM0202      Page 3

  22  0010  0700     E  	mov a,ra
  22  0011  0A04        	sub a,4
  22  0012  3D0A        	sz z
  22  0013  2800     R  	jmp _L8
  22  0014  0A01        	sub a,(5)-(4)
  22  0015  3D0A        	sz z
  22  0016  2800     R  	jmp _L9
  22  0017  0700     E  	mov a,ra
  22  0018  0A06        	sub a,6
  22  0019  3D0A        	sz z
  22  001A  2800     R  	jmp _L10
  22  001B  0A01        	sub a,(7)-(6)
  22  001C  3D0A        	sz z
  22  001D  2800     R  	jmp _L11
  22  001E  0700     E  	mov a,ra
  22  001F  0A08        	sub a,8
  22  0020  3D0A        	sz z
  22  0021  2800     R  	jmp _L12
  22  0022  0A01        	sub a,(9)-(8)
  22  0023  3D0A        	sz z
  22  0024  2800     R  	jmp _L13
  22  0025  0700     E  	mov a,ra
  22  0026  0A2D        	sub a,45
  22  0027  3D0A        	sz z
  22  0028  2800     R  	jmp _L14
  22  0029  0A35        	sub a,(98)-(45)
  22  002A  3D0A        	sz z
  22  002B  2800     R  	jmp _L15
  22  002C  0700     E  	mov a,ra
  22  002D  0A6C        	sub a,108
  22  002E  3D0A        	sz z
  22  002F  2800     R  	jmp _L16
  22  0030  0A02        	sub a,(110)-(108)
  22  0031  3D0A        	sz z
  22  0032  2800     R  	jmp _L17
  22  0033  0700     E  	mov a,ra
  22  0034  0A6F        	sub a,111
  22  0035  390A        	snz z
  22  0036  2800     R  	jmp _L2
 143  0037              #line 143 "c:\users\tech\desktop\gasdetector\Display\Display.c"
 143  0037  339F        	set [31].7
 144  0038              #line 144 "c:\users\tech\desktop\gasdetector\Display\Display.c"
 144  0038  3023        	set [35].0
 145  0039              #line 145 "c:\users\tech\desktop\gasdetector\Display\Display.c"
 145  0039  361F        	clr [31].4
 145  003A  2800     R  	jmp _L26
 145  003B              _L4:
  25  003B              #line 25 "c:\users\tech\desktop\gasdetector\Display\Display.c"
  25  003B  379F        	clr [31].7
  26  003C              #line 26 "c:\users\tech\desktop\gasdetector\Display\Display.c"
  26  003C  3423        	clr [35].0
  27  003D              #line 27 "c:\users\tech\desktop\gasdetector\Display\Display.c"
  27  003D  361F        	clr [31].4
  27  003E  2800     R  	jmp _L20
  27  003F              _L5:
  34  003F              #line 34 "c:\users\tech\desktop\gasdetector\Display\Display.c"
  34  003F  339F        	set [31].7
  34  0040  2800     R  	jmp _L24
  34  0041              _L6:
  43  0041              #line 43 "c:\users\tech\desktop\gasdetector\Display\Display.c"
"File: Display.c     Assembler  Version HGASM0202      Page 4

  43  0041  379F        	clr [31].7
  44  0042              #line 44 "c:\users\tech\desktop\gasdetector\Display\Display.c"
  44  0042  3423        	clr [35].0
  45  0043              #line 45 "c:\users\tech\desktop\gasdetector\Display\Display.c"
  45  0043  321F        	set [31].4
  45  0044  2800     R  	jmp _L26
  45  0045              _L7:
  52  0045              #line 52 "c:\users\tech\desktop\gasdetector\Display\Display.c"
  52  0045  379F        	clr [31].7
  53  0046              #line 53 "c:\users\tech\desktop\gasdetector\Display\Display.c"
  53  0046  3423        	clr [35].0
  54  0047              #line 54 "c:\users\tech\desktop\gasdetector\Display\Display.c"
  54  0047  361F        	clr [31].4
  55  0048              #line 55 "c:\users\tech\desktop\gasdetector\Display\Display.c"
  55  0048  3794        	clr [20].7
  55  0049  2800     R  	jmp _L23
  55  004A              _L8:
  61  004A              #line 61 "c:\users\tech\desktop\gasdetector\Display\Display.c"
  61  004A  339F        	set [31].7
  62  004B              #line 62 "c:\users\tech\desktop\gasdetector\Display\Display.c"
  62  004B  3423        	clr [35].0
  63  004C              #line 63 "c:\users\tech\desktop\gasdetector\Display\Display.c"
  63  004C  361F        	clr [31].4
  64  004D              #line 64 "c:\users\tech\desktop\gasdetector\Display\Display.c"
  64  004D  3394        	set [20].7
  64  004E  2800     R  	jmp _L30
  64  004F              _L9:
  70  004F              #line 70 "c:\users\tech\desktop\gasdetector\Display\Display.c"
  70  004F  379F        	clr [31].7
  71  0050              #line 71 "c:\users\tech\desktop\gasdetector\Display\Display.c"
  71  0050  3023        	set [35].0
  71  0051  2800     R  	jmp _L31
  71  0052              _L10:
  79  0052              #line 79 "c:\users\tech\desktop\gasdetector\Display\Display.c"
  79  0052  379F        	clr [31].7
  79  0053  2800     R  	jmp _L28
  79  0054              _L11:
  88  0054              #line 88 "c:\users\tech\desktop\gasdetector\Display\Display.c"
  88  0054  379F        	clr [31].7
  88  0055              _L24:
  89  0055              #line 89 "c:\users\tech\desktop\gasdetector\Display\Display.c"
  89  0055  3423        	clr [35].0
  90  0056              #line 90 "c:\users\tech\desktop\gasdetector\Display\Display.c"
  90  0056  361F        	clr [31].4
  91  0057              #line 91 "c:\users\tech\desktop\gasdetector\Display\Display.c"
  91  0057  3394        	set [20].7
  92  0058              #line 92 "c:\users\tech\desktop\gasdetector\Display\Display.c"
  92  0058  331F        	set [31].6
  93  0059              #line 93 "c:\users\tech\desktop\gasdetector\Display\Display.c"
  93  0059  30A3        	set [35].1
  93  005A  2800     R  	jmp _L22
  93  005B              _L12:
  97  005B              #line 97 "c:\users\tech\desktop\gasdetector\Display\Display.c"
  97  005B  379F        	clr [31].7
  98  005C              #line 98 "c:\users\tech\desktop\gasdetector\Display\Display.c"
  98  005C  3423        	clr [35].0
  98  005D  2800     R  	jmp _L29
  98  005E              _L13:
 106  005E              #line 106 "c:\users\tech\desktop\gasdetector\Display\Display.c"
 106  005E  379F        	clr [31].7
"File: Display.c     Assembler  Version HGASM0202      Page 5

 107  005F              #line 107 "c:\users\tech\desktop\gasdetector\Display\Display.c"
 107  005F  3423        	clr [35].0
 107  0060              _L31:
 108  0060              #line 108 "c:\users\tech\desktop\gasdetector\Display\Display.c"
 108  0060  361F        	clr [31].4
 109  0061              #line 109 "c:\users\tech\desktop\gasdetector\Display\Display.c"
 109  0061  3794        	clr [20].7
 109  0062              _L30:
 110  0062              #line 110 "c:\users\tech\desktop\gasdetector\Display\Display.c"
 110  0062  331F        	set [31].6
 110  0063  2800     R  	jmp _L27
 110  0064              _L15:
 116  0064              #line 116 "c:\users\tech\desktop\gasdetector\Display\Display.c"
 116  0064  339F        	set [31].7
 116  0065              _L28:
 117  0065              #line 117 "c:\users\tech\desktop\gasdetector\Display\Display.c"
 117  0065  3023        	set [35].0
 117  0066              _L29:
 118  0066              #line 118 "c:\users\tech\desktop\gasdetector\Display\Display.c"
 118  0066  361F        	clr [31].4
 119  0067              #line 119 "c:\users\tech\desktop\gasdetector\Display\Display.c"
 119  0067  3794        	clr [20].7
 120  0068              #line 120 "c:\users\tech\desktop\gasdetector\Display\Display.c"
 120  0068  371F        	clr [31].6
 120  0069              _L27:
 121  0069              #line 121 "c:\users\tech\desktop\gasdetector\Display\Display.c"
 121  0069  34A3        	clr [35].1
 121  006A  2800     R  	jmp _L21
 121  006B              _L16:
 125  006B              #line 125 "c:\users\tech\desktop\gasdetector\Display\Display.c"
 125  006B  339F        	set [31].7
 126  006C              #line 126 "c:\users\tech\desktop\gasdetector\Display\Display.c"
 126  006C  3023        	set [35].0
 127  006D              #line 127 "c:\users\tech\desktop\gasdetector\Display\Display.c"
 127  006D  321F        	set [31].4
 127  006E              _L20:
 128  006E              #line 128 "c:\users\tech\desktop\gasdetector\Display\Display.c"
 128  006E  3794        	clr [20].7
 129  006F              #line 129 "c:\users\tech\desktop\gasdetector\Display\Display.c"
 129  006F  371F        	clr [31].6
 130  0070              #line 130 "c:\users\tech\desktop\gasdetector\Display\Display.c"
 130  0070  34A3        	clr [35].1
 130  0071              _L22:
 131  0071              #line 131 "c:\users\tech\desktop\gasdetector\Display\Display.c"
 131  0071  319F        	set [31].3
 132  0072              #line 132 "c:\users\tech\desktop\gasdetector\Display\Display.c"
 132  0072  2800     R  	jmp _L2
 132  0073              _L17:
 134  0073              #line 134 "c:\users\tech\desktop\gasdetector\Display\Display.c"
 134  0073  339F        	set [31].7
 135  0074              #line 135 "c:\users\tech\desktop\gasdetector\Display\Display.c"
 135  0074  3023        	set [35].0
 136  0075              #line 136 "c:\users\tech\desktop\gasdetector\Display\Display.c"
 136  0075  361F        	clr [31].4
 137  0076              #line 137 "c:\users\tech\desktop\gasdetector\Display\Display.c"
 137  0076  3394        	set [20].7
 137  0077  2800     R  	jmp _L25
 137  0078              _L26:
 146  0078              #line 146 "c:\users\tech\desktop\gasdetector\Display\Display.c"
 146  0078  3794        	clr [20].7
"File: Display.c     Assembler  Version HGASM0202      Page 6

 146  0079              _L25:
 147  0079              #line 147 "c:\users\tech\desktop\gasdetector\Display\Display.c"
 147  0079  371F        	clr [31].6
 147  007A  2800     R  	jmp _L19
 147  007B              _L14:
 152  007B              #line 152 "c:\users\tech\desktop\gasdetector\Display\Display.c"
 152  007B  339F        	set [31].7
 153  007C              #line 153 "c:\users\tech\desktop\gasdetector\Display\Display.c"
 153  007C  3023        	set [35].0
 154  007D              #line 154 "c:\users\tech\desktop\gasdetector\Display\Display.c"
 154  007D  321F        	set [31].4
 155  007E              #line 155 "c:\users\tech\desktop\gasdetector\Display\Display.c"
 155  007E  3394        	set [20].7
 155  007F              _L23:
 156  007F              #line 156 "c:\users\tech\desktop\gasdetector\Display\Display.c"
 156  007F  331F        	set [31].6
 156  0080              _L19:
 157  0080              #line 157 "c:\users\tech\desktop\gasdetector\Display\Display.c"
 157  0080  30A3        	set [35].1
 157  0081              _L21:
 158  0081              #line 158 "c:\users\tech\desktop\gasdetector\Display\Display.c"
 158  0081  359F        	clr [31].3
 158  0082              _L2:
 158  0082  0003        	ret
 158  0083              _segmentNumbers endp
 158  0083              #line 158 "c:\users\tech\desktop\gasdetector\Display\Display.c"
 158  0083              #pragma debug scope 1 1
 158  0083              public _segmentCharacters
 158  0083              #pragma debug scope 4 1
 163  0083              #line 163 "c:\users\tech\desktop\gasdetector\Display\Display.c"
 163  0000              _segmentCharacters .section 'code'
 163  0000              _segmentCharacters proc
 163  0000  00              local _segmentCharacters_2 db 1 dup(?)	; 0,1
 163  0000  0080     E  	mov ra,a
 163  0001  0080     R  	mov _segmentCharacters_2[0],a
 163  0002              #pragma debug variable 8 4 _segmentCharacters_2+0 "n"
 165  0002              #line 165 "c:\users\tech\desktop\gasdetector\Display\Display.c"
 165  0002  0700     E  	mov a,ra
 165  0003  0A2D        	sub a,45
 165  0004  3D0A        	sz z
 165  0005  2800     R  	jmp _L35
 165  0006  0A22        	sub a,(79)-(45)
 165  0007  3D0A        	sz z
 165  0008  2800     R  	jmp _L36
 165  0009              #line 165 "c:\users\tech\desktop\gasdetector\Display\Display.c"
 165  0009  0700     E  	mov a,ra
 165  000A  0A62        	sub a,98
 165  000B  3D0A        	sz z
 165  000C  2800     R  	jmp _L37
 165  000D  0A0A        	sub a,(108)-(98)
 165  000E  3D0A        	sz z
 165  000F  2800     R  	jmp _L38
 165  0010  0700     E  	mov a,ra
 165  0011  0A6E        	sub a,110
 165  0012  3D0A        	sz z
 165  0013  2800     R  	jmp _L39
 165  0014  0700     E  	mov a,ra
 165  0015  0A6F        	sub a,111
 165  0016  390A        	snz z
 165  0017  2800     R  	jmp _L33
"File: Display.c     Assembler  Version HGASM0202      Page 7

 196  0018              #line 196 "c:\users\tech\desktop\gasdetector\Display\Display.c"
 196  0018  339F        	set [31].7
 197  0019              #line 197 "c:\users\tech\desktop\gasdetector\Display\Display.c"
 197  0019  3023        	set [35].0
 198  001A              #line 198 "c:\users\tech\desktop\gasdetector\Display\Display.c"
 198  001A  361F        	clr [31].4
 199  001B              #line 199 "c:\users\tech\desktop\gasdetector\Display\Display.c"
 199  001B  3794        	clr [20].7
 199  001C  2800     R  	jmp _L43
 199  001D              _L37:
 169  001D              #line 169 "c:\users\tech\desktop\gasdetector\Display\Display.c"
 169  001D  339F        	set [31].7
 170  001E              #line 170 "c:\users\tech\desktop\gasdetector\Display\Display.c"
 170  001E  3023        	set [35].0
 171  001F              #line 171 "c:\users\tech\desktop\gasdetector\Display\Display.c"
 171  001F  361F        	clr [31].4
 172  0020              #line 172 "c:\users\tech\desktop\gasdetector\Display\Display.c"
 172  0020  3794        	clr [20].7
 173  0021              #line 173 "c:\users\tech\desktop\gasdetector\Display\Display.c"
 173  0021  371F        	clr [31].6
 173  0022  2800     R  	jmp _L42
 173  0023              _L38:
 178  0023              #line 178 "c:\users\tech\desktop\gasdetector\Display\Display.c"
 178  0023  339F        	set [31].7
 179  0024              #line 179 "c:\users\tech\desktop\gasdetector\Display\Display.c"
 179  0024  3023        	set [35].0
 180  0025              #line 180 "c:\users\tech\desktop\gasdetector\Display\Display.c"
 180  0025  321F        	set [31].4
 181  0026              #line 181 "c:\users\tech\desktop\gasdetector\Display\Display.c"
 181  0026  3794        	clr [20].7
 182  0027              #line 182 "c:\users\tech\desktop\gasdetector\Display\Display.c"
 182  0027  371F        	clr [31].6
 183  0028              #line 183 "c:\users\tech\desktop\gasdetector\Display\Display.c"
 183  0028  34A3        	clr [35].1
 184  0029              #line 184 "c:\users\tech\desktop\gasdetector\Display\Display.c"
 184  0029  319F        	set [31].3
 185  002A              #line 185 "c:\users\tech\desktop\gasdetector\Display\Display.c"
 185  002A  2800     R  	jmp _L33
 185  002B              _L39:
 187  002B              #line 187 "c:\users\tech\desktop\gasdetector\Display\Display.c"
 187  002B  339F        	set [31].7
 188  002C              #line 188 "c:\users\tech\desktop\gasdetector\Display\Display.c"
 188  002C  3023        	set [35].0
 189  002D              #line 189 "c:\users\tech\desktop\gasdetector\Display\Display.c"
 189  002D  361F        	clr [31].4
 190  002E              #line 190 "c:\users\tech\desktop\gasdetector\Display\Display.c"
 190  002E  3394        	set [20].7
 190  002F              _L43:
 200  002F              #line 200 "c:\users\tech\desktop\gasdetector\Display\Display.c"
 200  002F  371F        	clr [31].6
 201  0030              #line 201 "c:\users\tech\desktop\gasdetector\Display\Display.c"
 201  0030  30A3        	set [35].1
 201  0031  2800     R  	jmp _L41
 201  0032              _L36:
 205  0032              #line 205 "c:\users\tech\desktop\gasdetector\Display\Display.c"
 205  0032  379F        	clr [31].7
 206  0033              #line 206 "c:\users\tech\desktop\gasdetector\Display\Display.c"
 206  0033  3423        	clr [35].0
 207  0034              #line 207 "c:\users\tech\desktop\gasdetector\Display\Display.c"
 207  0034  321F        	set [31].4
"File: Display.c     Assembler  Version HGASM0202      Page 8

 208  0035              #line 208 "c:\users\tech\desktop\gasdetector\Display\Display.c"
 208  0035  3394        	set [20].7
 209  0036              #line 209 "c:\users\tech\desktop\gasdetector\Display\Display.c"
 209  0036  331F        	set [31].6
 209  0037              _L42:
 210  0037              #line 210 "c:\users\tech\desktop\gasdetector\Display\Display.c"
 210  0037  34A3        	clr [35].1
 210  0038              _L41:
 211  0038              #line 211 "c:\users\tech\desktop\gasdetector\Display\Display.c"
 211  0038  359F        	clr [31].3
 212  0039              #line 212 "c:\users\tech\desktop\gasdetector\Display\Display.c"
 212  0039  2800     R  	jmp _L33
 212  003A              _L35:
 216  003A              #line 216 "c:\users\tech\desktop\gasdetector\Display\Display.c"
 216  003A  339F        	set [31].7
 217  003B              #line 217 "c:\users\tech\desktop\gasdetector\Display\Display.c"
 217  003B  3023        	set [35].0
 218  003C              #line 218 "c:\users\tech\desktop\gasdetector\Display\Display.c"
 218  003C  321F        	set [31].4
 218  003D              _L33:
 218  003D  0003        	ret
 218  003E              _segmentCharacters endp
 218  003E              #line 218 "c:\users\tech\desktop\gasdetector\Display\Display.c"
 218  003E              #pragma debug scope 1 1
 218  003E              public _Display
 218  003E              #pragma debug scope 5 1
 222  003E              #line 222 "c:\users\tech\desktop\gasdetector\Display\Display.c"
 222  0000              _Display .section 'code'
 222  0000              _Display proc
 222  0000              public _Display_2
 222  0000  0006[           local _Display_2 db 6 dup(?)	; 5,1
            00
            ]
 222  0006              #pragma debug variable 11 5 _Display_2+0 "number"
 222  0006              #pragma debug variable 7 5 _Display_2+2 "character"
 222  0006              #pragma debug pointer 42 7 5
 222  0006              #pragma debug pointer 42 7 5
 222  0006              #pragma debug variable 42 5 _Display_2+3 "clock"
 228  0006              #line 228 "c:\users\tech\desktop\gasdetector\Display\Display.c"
 228  0000  0700     R  	mov a,_Display_2[2]
 228  0001  0A43        	sub a,67
 228  0002  390A        	snz z
 228  0003  2800     R  	jmp _L45
 229  0004              #line 229 "c:\users\tech\desktop\gasdetector\Display\Display.c"
 229  0004  0700     R  	mov a,_Display_2[3]
 229  0005  0083        	mov mp,a
 229  0006  0700     R  	mov a,_Display_2[4]
 229  0007  0081        	mov sbp,a
 229  0008  0701        	mov a,sbp
 229  0009  0084        	mov bp,a
 229  000A  0F00        	mov a,0
 229  000B  0082        	mov ir,a
 230  000C              #line 230 "c:\users\tech\desktop\gasdetector\Display\Display.c"
 230  000C  1F00     R  	clr ___displayBuffer_1748[0]
 231  000D              #line 231 "c:\users\tech\desktop\gasdetector\Display\Display.c"
 231  000D  1F00     R  	clr ___displayBuffer_1748[1]
 232  000E              #line 232 "c:\users\tech\desktop\gasdetector\Display\Display.c"
 232  000E  1F00     R  	clr ___displayBuffer_1748[2]
 233  000F              #line 233 "c:\users\tech\desktop\gasdetector\Display\Display.c"
 233  000F  1F00     R  	clr ___displayBuffer_1748[3]
"File: Display.c     Assembler  Version HGASM0202      Page 9

 235  0010              #line 235 "c:\users\tech\desktop\gasdetector\Display\Display.c"
 235  0010  0F01        	mov a,1
 235  0011  0080     R  	mov ___pow_1749[0],a
 235  0012  1F00     R  	clr ___pow_1749[1]
 235  0013              _L45:
 238  0013              #line 238 "c:\users\tech\desktop\gasdetector\Display\Display.c"
 238  0013  0F01        	mov a,1
 238  0014  0080     R  	mov ___first_1746[0],a
 246  0015              #line 246 "c:\users\tech\desktop\gasdetector\Display\Display.c"
 246  0015  0700     R  	mov a,_Display_2[3]
 246  0016  0083        	mov mp,a
 246  0017  0700     R  	mov a,_Display_2[4]
 246  0018  0081        	mov sbp,a
 246  0019  2000     E  	call _Crom2Prom
 246  001A  0080     R  	mov _Display_2[5],a
 246  001B  0700     R  	mov a,_Display_2[5]
 246  001C  0080     R  	mov ___indexDigit_1747[0],a
 249  001D              #line 249 "c:\users\tech\desktop\gasdetector\Display\Display.c"
 249  001D  0700     R  	mov a,___pow_1749[0]
 249  001E  0080     E  	mov rb,a
 249  001F  0700     R  	mov a,___pow_1749[1]
 249  0020  0080     E  	mov rc,a
 249  0021  0700     R  	mov a,_Display_2[5]
 249  0022  0080     E  	mov rf,a
 249  0023  1F00     E  	clr rg
 249  0024  3F85        	sz acc.7
 249  0025  1F80     E  	set rg
 249  0026  0700     R  	mov a,_Display_2[0]
 249  0027  0080     E  	mov _builtin_holtek_udivmodhi4_2[0],a
 249  0028  0700     R  	mov a,_Display_2[1]
 249  0029  0080     E  	mov _builtin_holtek_udivmodhi4_2[1],a
 249  002A  0700     E  	mov a,rb
 249  002B  0080     E  	mov _builtin_holtek_udivmodhi4_2[2],a
 249  002C  0700     E  	mov a,rc
 249  002D  0080     E  	mov _builtin_holtek_udivmodhi4_2[3],a
 249  002E  2000     E  	call _builtin_holtek_divmodhi4
 249  002F  0700     E  	mov a,_builtin_holtek_udivmodhi4_2[0]
 249  0030  0080     E  	mov rd,a
 249  0031  0700     E  	mov a,_builtin_holtek_udivmodhi4_2[1]
 249  0032  0080     E  	mov re,a
 249  0033  0700     E  	mov a,rd
 249  0034  0080     E  	mov _builtin_holtek_udivmodhi4_2[0],a
 249  0035  0700     E  	mov a,re
 249  0036  0080     E  	mov _builtin_holtek_udivmodhi4_2[1],a
 249  0037  0F0A        	mov a,10
 249  0038  0080     E  	mov _builtin_holtek_udivmodhi4_2[2],a
 249  0039  0F00        	mov a,0
 249  003A  0080     E  	mov _builtin_holtek_udivmodhi4_2[3],a
 249  003B  2000     E  	call _builtin_holtek_divmodhi4
 249  003C  0700     E  	mov a,_builtin_holtek_udivmodhi4_2[4]
 249  003D  0080     E  	mov rd,a
 249  003E  0700     E  	mov a,_builtin_holtek_udivmodhi4_2[5]
 249  003F  0080     E  	mov re,a
 249  0040  0F00     R  	mov a,low offset ___displayBuffer_1748
 249  0041  0300     E  	add a,rf
 249  0042  0083        	mov mp,a
 249  0043  0F00     R  	mov a,high offset ___displayBuffer_1748
 249  0044  1300     E  	adc a,rg
 249  0045  0081        	mov sbp,a
 249  0046  0701        	mov a,sbp
"File: Display.c     Assembler  Version HGASM0202      Page 10

 249  0047  0084        	mov bp,a
 249  0048  0700     E  	mov a,rd
 249  0049  0082        	mov ir,a
 250  004A              #line 250 "c:\users\tech\desktop\gasdetector\Display\Display.c"
 250  004A  340A        	clr c
 250  004B  1A00     E  	rlca rb
 250  004C  0080     E  	mov rd,a
 250  004D  1A00     E  	rlca rc
 250  004E  0080     E  	mov re,a
 250  004F  340A        	clr c
 250  0050  1A80     E  	rlc rd
 250  0051  1A80     E  	rlc re
 250  0052  0700     E  	mov a,rd
 250  0053  0380     E  	addm a,rb
 250  0054  0700     E  	mov a,re
 250  0055  1380     E  	adcm a,rc
 250  0056  340A        	clr c
 250  0057  1A80     E  	rlc rb
 250  0058  1A80     E  	rlc rc
 251  0059              #line 251 "c:\users\tech\desktop\gasdetector\Display\Display.c"
 251  0059  0700     E  	mov a,rb
 251  005A  0C10        	xor a,16
 251  005B  0700     E  	mov a,rc
 251  005C  3D0A        	sz z
 251  005D  0C27        	xor a,39
 251  005E  3D0A        	sz z
 251  005F  2800     R  	jmp _L46
 250  0060              #line 250 "c:\users\tech\desktop\gasdetector\Display\Display.c"
 250  0060  0700     E  	mov a,rb
 250  0061  0080     R  	mov ___pow_1749[0],a
 250  0062  0700     E  	mov a,rc
 250  0063  0080     R  	mov ___pow_1749[1],a
 250  0064  2800     R  	jmp _L47
 250  0065              _L46:
 251  0065              #line 251 "c:\users\tech\desktop\gasdetector\Display\Display.c"
 251  0065  0F01        	mov a,1
 251  0066  0080     R  	mov ___pow_1749[0],a
 251  0067  1F00     R  	clr ___pow_1749[1]
 251  0068              _L47:
 252  0068              #line 252 "c:\users\tech\desktop\gasdetector\Display\Display.c"
 252  0068  0700     R  	mov a,_Display_2[5]
 252  0069  0A00        	sub a,0
 252  006A  3D0A        	sz z
 252  006B  2800     R  	jmp _L49
 252  006C  0A01        	sub a,(1)-(0)
 252  006D  3D0A        	sz z
 252  006E  2800     R  	jmp _L50
 252  006F  0700     R  	mov a,_Display_2[5]
 252  0070  0A02        	sub a,2
 252  0071  3D0A        	sz z
 252  0072  2800     R  	jmp _L51
 252  0073  0700     R  	mov a,_Display_2[5]
 252  0074  0A03        	sub a,3
 252  0075  390A        	snz z
 252  0076  2800     R  	jmp _L44
 280  0077              #line 280 "c:\users\tech\desktop\gasdetector\Display\Display.c"
 280  0077  0700     R  	mov a,___displayBuffer_1748[0]
 280  0078  2000     R  	call _segmentNumbers
 281  0079              #line 281 "c:\users\tech\desktop\gasdetector\Display\Display.c"
 281  0079  369B        	clr [27].5
"File: Display.c     Assembler  Version HGASM0202      Page 11

 282  007A              #line 282 "c:\users\tech\desktop\gasdetector\Display\Display.c"
 282  007A  371B        	clr [27].6
 283  007B              #line 283 "c:\users\tech\desktop\gasdetector\Display\Display.c"
 283  007B  379B        	clr [27].7
 284  007C              #line 284 "c:\users\tech\desktop\gasdetector\Display\Display.c"
 284  007C  321B        	set [27].4
 286  007D              #line 286 "c:\users\tech\desktop\gasdetector\Display\Display.c"
 286  007D  2800     R  	jmp _L44
 286  007E              _L49:
 255  007E              #line 255 "c:\users\tech\desktop\gasdetector\Display\Display.c"
 255  007E  0700     R  	mov a,___displayBuffer_1748[3]
 255  007F  2000     R  	call _segmentNumbers
 256  0080              #line 256 "c:\users\tech\desktop\gasdetector\Display\Display.c"
 256  0080  329B        	set [27].5
 257  0081              #line 257 "c:\users\tech\desktop\gasdetector\Display\Display.c"
 257  0081  371B        	clr [27].6
 257  0082  2800     R  	jmp _L54
 257  0083              _L50:
 263  0083              #line 263 "c:\users\tech\desktop\gasdetector\Display\Display.c"
 263  0083  0700     R  	mov a,___displayBuffer_1748[2]
 263  0084  2000     R  	call _segmentNumbers
 264  0085              #line 264 "c:\users\tech\desktop\gasdetector\Display\Display.c"
 264  0085  369B        	clr [27].5
 265  0086              #line 265 "c:\users\tech\desktop\gasdetector\Display\Display.c"
 265  0086  331B        	set [27].6
 265  0087              _L54:
 266  0087              #line 266 "c:\users\tech\desktop\gasdetector\Display\Display.c"
 266  0087  379B        	clr [27].7
 266  0088  2800     R  	jmp _L53
 266  0089              _L51:
 271  0089              #line 271 "c:\users\tech\desktop\gasdetector\Display\Display.c"
 271  0089  0700     R  	mov a,___displayBuffer_1748[1]
 271  008A  2000     R  	call _segmentNumbers
 272  008B              #line 272 "c:\users\tech\desktop\gasdetector\Display\Display.c"
 272  008B  369B        	clr [27].5
 273  008C              #line 273 "c:\users\tech\desktop\gasdetector\Display\Display.c"
 273  008C  371B        	clr [27].6
 274  008D              #line 274 "c:\users\tech\desktop\gasdetector\Display\Display.c"
 274  008D  339B        	set [27].7
 274  008E              _L53:
 275  008E              #line 275 "c:\users\tech\desktop\gasdetector\Display\Display.c"
 275  008E  361B        	clr [27].4
 275  008F              _L44:
 275  008F  0003        	ret
 275  0090              _Display endp
 275  0090              #line 275 "c:\users\tech\desktop\gasdetector\Display\Display.c"
 275  0090              #pragma debug scope 1 1
 275  0090              public _DisplayLooding
 275  0090              #pragma debug scope 6 1
 293  0090              #line 293 "c:\users\tech\desktop\gasdetector\Display\Display.c"
 293  0000              _DisplayLooding .section 'code'
 293  0000              _DisplayLooding proc
 293  0000  00              local _DisplayLooding_2 db 1 dup(?)	; 0,1
 293  0000  0080     E  	mov ra,a
 293  0001  0080     R  	mov _DisplayLooding_2[0],a
 293  0002              #pragma debug variable 7 6 _DisplayLooding_2+0 "cunterDigit"
 297  0002              #line 297 "c:\users\tech\desktop\gasdetector\Display\Display.c"
 297  0002  0700     E  	mov a,ra
 297  0003  0A00        	sub a,0
 297  0004  3D0A        	sz z
"File: Display.c     Assembler  Version HGASM0202      Page 12

 297  0005  2800     R  	jmp _L57
 297  0006  0A01        	sub a,(1)-(0)
 297  0007  3D0A        	sz z
 297  0008  2800     R  	jmp _L63
 297  0009              #line 297 "c:\users\tech\desktop\gasdetector\Display\Display.c"
 297  0009  0700     E  	mov a,ra
 297  000A  0A02        	sub a,2
 297  000B  3D0A        	sz z
 297  000C  2800     R  	jmp _L62
 297  000D  0A01        	sub a,(3)-(2)
 297  000E  3D0A        	sz z
 297  000F  2800     R  	jmp _L67
 297  0010  0700     E  	mov a,ra
 297  0011  0A04        	sub a,4
 297  0012  3D0A        	sz z
 297  0013  2800     R  	jmp _L61
 297  0014  0A01        	sub a,(5)-(4)
 297  0015  3D0A        	sz z
 297  0016  2800     R  	jmp _L62
 297  0017  0700     E  	mov a,ra
 297  0018  0A06        	sub a,6
 297  0019  3D0A        	sz z
 297  001A  2800     R  	jmp _L63
 297  001B  0700     E  	mov a,ra
 297  001C  0A07        	sub a,7
 297  001D  390A        	snz z
 297  001E  2800     R  	jmp _L55
 297  001F  2800     R  	jmp _L64
 297  0020              _L57:
 300  0020              #line 300 "c:\users\tech\desktop\gasdetector\Display\Display.c"
 300  0020  0F6F        	mov a,111
 300  0021  2000     R  	call _segmentCharacters
 300  0022  2800     R  	jmp _L64
 300  0023              _L61:
 335  0023              #line 335 "c:\users\tech\desktop\gasdetector\Display\Display.c"
 335  0023  0F4F        	mov a,79
 335  0024  2000     R  	call _segmentCharacters
 335  0025              _L67:
 336  0025              #line 336 "c:\users\tech\desktop\gasdetector\Display\Display.c"
 336  0025  369B        	clr [27].5
 337  0026              #line 337 "c:\users\tech\desktop\gasdetector\Display\Display.c"
 337  0026  371B        	clr [27].6
 338  0027              #line 338 "c:\users\tech\desktop\gasdetector\Display\Display.c"
 338  0027  379B        	clr [27].7
 339  0028              #line 339 "c:\users\tech\desktop\gasdetector\Display\Display.c"
 339  0028  321B        	set [27].4
 341  0029              #line 341 "c:\users\tech\desktop\gasdetector\Display\Display.c"
 341  0029  2800     R  	jmp _L55
 341  002A              _L62:
 345  002A              #line 345 "c:\users\tech\desktop\gasdetector\Display\Display.c"
 345  002A  369B        	clr [27].5
 346  002B              #line 346 "c:\users\tech\desktop\gasdetector\Display\Display.c"
 346  002B  371B        	clr [27].6
 347  002C              #line 347 "c:\users\tech\desktop\gasdetector\Display\Display.c"
 347  002C  339B        	set [27].7
 347  002D  2800     R  	jmp _L65
 347  002E              _L63:
 354  002E              #line 354 "c:\users\tech\desktop\gasdetector\Display\Display.c"
 354  002E  369B        	clr [27].5
 355  002F              #line 355 "c:\users\tech\desktop\gasdetector\Display\Display.c"
"File: Display.c     Assembler  Version HGASM0202      Page 13

 355  002F  331B        	set [27].6
 355  0030  2800     R  	jmp _L66
 355  0031              _L64:
 364  0031              #line 364 "c:\users\tech\desktop\gasdetector\Display\Display.c"
 364  0031  329B        	set [27].5
 365  0032              #line 365 "c:\users\tech\desktop\gasdetector\Display\Display.c"
 365  0032  371B        	clr [27].6
 365  0033              _L66:
 366  0033              #line 366 "c:\users\tech\desktop\gasdetector\Display\Display.c"
 366  0033  379B        	clr [27].7
 366  0034              _L65:
 367  0034              #line 367 "c:\users\tech\desktop\gasdetector\Display\Display.c"
 367  0034  361B        	clr [27].4
 367  0035              _L55:
 367  0035  0003        	ret
 367  0036              _DisplayLooding endp
 367  0036              #line 367 "c:\users\tech\desktop\gasdetector\Display\Display.c"
 367  0036              #pragma debug scope 1 1
 367  0000              @HCCINIT	.section 'data'
 223  0000              #line 223 "c:\users\tech\desktop\gasdetector\Display\Display.c"
 223  0000              @HCCINIT .section 'data'
 223  0000              ___first_1746 label byte
 223  0000              #pragma debug variable 7 5 ___first_1746 "first"
 223  0000              	db 0
 223  0000              @ROMDATA_BASE .section inpage 'code'
 223  0000              	db 0
 223  0001              @HCCINIT .section 'data'
 226  0001              #line 226 "c:\users\tech\desktop\gasdetector\Display\Display.c"
 226  0001              @HCCINIT .section 'data'
 226  0001              ___pow_1749 label byte
 226  0001              #pragma debug variable 11 5 ___pow_1749 "pow"
 226  0001              	dw 1
 226  0001              @ROMDATA_BASE .section inpage 'code'
 226  0001  0001        	dc 1
 226  0003              @HCCINIT .section 'data'
 224  0003              #line 224 "c:\users\tech\desktop\gasdetector\Display\Display.c"
 224  0003              @HCCINIT .section 'data'
 224  0003              ___indexDigit_1747 label byte
 224  0003              #pragma debug variable 7 5 ___indexDigit_1747 "indexDigit"
 224  0003              	db 0
 224  0002              @ROMDATA_BASE .section inpage 'code'
 224  0002              	db 0
 224  0004              @HCCINIT .section 'data'
 225  0004              #line 225 "c:\users\tech\desktop\gasdetector\Display\Display.c"
 225  0004              @HCCINIT .section 'data'
 225  0004              ___displayBuffer_1748 label byte
 225  0004              #pragma debug array 43 7 4 1
 225  0004              #pragma debug array 43 7 4 1
 225  0004              #pragma debug variable 43 5 ___displayBuffer_1748 "displayBuffer"
 225  0004              	db 0
 225  0002              @ROMDATA_BASE .section inpage 'code'
 225  0002              	db 0
 225  0005              @HCCINIT .section 'data'
 225  0005              	db 0
 225  0003              @ROMDATA_BASE .section inpage 'code'
 225  0003              	db 0
 225  0006              @HCCINIT .section 'data'
 225  0006              	db 0
 225  0003              @ROMDATA_BASE .section inpage 'code'
 225  0003              	db 0
"File: Display.c     Assembler  Version HGASM0202      Page 14

 225  0007              @HCCINIT .section 'data'
 225  0007              	db 0
 225  0004              @ROMDATA_BASE .section inpage 'code'
 225  0004              	db 0
 225  0008              @HCCINIT .section 'data'
 225  0008              #pragma debug struct_end
 225  0008              #pragma debug struct_end
 225  0008              #pragma debug union_end
 225  0008              #pragma debug union_end
 225  0008              #pragma debug variable 45 1 ___pa "__pa" 1
 225  0008              #pragma debug struct_end
 225  0008              #pragma debug struct_end
 225  0008              #pragma debug union_end
 225  0008              #pragma debug union_end
 225  0008              #pragma debug variable 47 1 ___pb "__pb" 1
 225  0008              #pragma debug struct_end
 225  0008              #pragma debug struct_end
 225  0008              #pragma debug union_end
 225  0008              #pragma debug union_end
 225  0008              #pragma debug variable 49 1 ___pc "__pc" 1
 225  0008              #pragma debug struct_end
 225  0008              #pragma debug struct_end
 225  0008              #pragma debug union_end
 225  0008              #pragma debug union_end
 225  0008              #pragma debug variable 51 1 ___pd "__pd" 1
 225  0008              extern _builtin_holtek_divmodhi4:near
 225  0008              extern _builtin_holtek_udivmodhi4_2:byte
 225  0008              extern _builtin_holtek_udivmodhi4:near
 225  0008              
 225  0008              ; 
 225  0008              ; Generated by holtek-gcc v3.19, Sun Jun 09 17:33:00 2024
 225  0008              ; Rebuild 718
 225  0008              ; end of file


        0 Errors, 0