"File: Display.c     Assembler  Version HGASM0202      Page 1


   1  0000              ; Generated by holtek-gcc v3.19, Tue May 21 15:12:40 2024
   2  0000              ; 
   3  0000              ; Configuration:
   4  0000              ;       without long instruction
   5  0000              ;       Single ROM, Multi-RAM
   6  0000              ;       bits_per_rom_unit:16
   7  0000              ;       with mp1
   8  0000              ;       with tbhp, address(0x9)
   9  0000              ;          Use tabrd-const
  10  0000              ;       
  11  0000              ;       
  12  0000              ;       
  13  0000              ; use 'tabrdc' instead of 'tabrd'
  14  0000              ;       
  15  0000              
  16  0000              #pragma translator "holtek-gcc 4.6.4" "3.19" "build 20130711"
  17  0000              ; Rebuild 718
  18  0000              
  19  0000              ir equ [2]
  20  0000              mp equ [3]
  21  0000              sbp equ [1]
  22  0000              acc equ [5]
  23  0000              bp equ [4]
  24  0000              tblp equ [7]
  25  0000              tbhp equ [9]
  26  0000              status equ [10]
  27  0000              c equ [10].0
  28  0000              ac equ [10].1
  29  0000              z equ [10].2
  30  0000              ov equ [10].3
  31  0000              intc equ [11]
  32  0000              
  33  0000              extern ra:byte
  34  0000              extern rb:byte
  35  0000              extern rc:byte
  36  0000              extern rd:byte
  37  0000              extern re:byte
  38  0000              extern rf:byte
  39  0000              extern rg:byte
  40  0000              extern rh:byte
  41  0000              extern _Crom2Prom:near
  42  0000              extern _Crom2PromNext:near
  43  0000              
  44  0000              RAMBANK 0 @HCCINIT, @HCCINIT0
  45  0000              
  46  0000              RAMBANK 0 @BITDATASEC, @BITDATASEC1
  47  0000              @HCCINIT	.section 'data'
  48  0000              @HCCINIT0	.section 'data'
  49  0000              @BITDATASEC	 .section 'data'
  50  0000              @BITDATASEC1	 .section 'data'
  51  0000              
  52  0000              #pragma debug scope 1 1
  53  0000              	extern __DELAY3:near
  54  0000              	extern __DELAYX3:near
  55  0000              	extern __DELAYX6:near
  56  0000              	extern __DELAYY5:near
  57  0000              	extern __DELAYY3:near
  58  0000              	extern _builtin_holtek_delay_2:byte
  59  0000              ___pb equ [27]
"File: Display.ASM   Assembler  Version HGASM0202      Page 2

  60  0000              ___pc equ [31]
  61  0000              ___pd equ [35]
  62  0000              ___pa equ [20]
  63  0000              public _DisplayInit
  64  0000              #pragma debug scope 2 1

   4  0000              #line 4 "c:\users\tech\desktop\gasdetector\Display\Display.c"
   4  0000              _DisplayInit .section 'code'
   4  0000              _DisplayInit proc
   6  0000              #line 6 "c:\users\tech\desktop\gasdetector\Display\Display.c"
   6  0000  329B        	set [27].5
   7  0001              #line 7 "c:\users\tech\desktop\gasdetector\Display\Display.c"
   7  0001  331B        	set [27].6
   8  0002              #line 8 "c:\users\tech\desktop\gasdetector\Display\Display.c"
   8  0002  339B        	set [27].7
   9  0003              #line 9 "c:\users\tech\desktop\gasdetector\Display\Display.c"
   9  0003  321B        	set [27].4
  10  0004              #line 10 "c:\users\tech\desktop\gasdetector\Display\Display.c"
  10  0004  379F        	clr [31].7
  11  0005              #line 11 "c:\users\tech\desktop\gasdetector\Display\Display.c"
  11  0005  3423        	clr [35].0
  12  0006              #line 12 "c:\users\tech\desktop\gasdetector\Display\Display.c"
  12  0006  361F        	clr [31].4
  13  0007              #line 13 "c:\users\tech\desktop\gasdetector\Display\Display.c"
  13  0007  3794        	clr [20].7
  14  0008              #line 14 "c:\users\tech\desktop\gasdetector\Display\Display.c"
  14  0008  371F        	clr [31].6
  15  0009              #line 15 "c:\users\tech\desktop\gasdetector\Display\Display.c"
  15  0009  34A3        	clr [35].1
  16  000A              #line 16 "c:\users\tech\desktop\gasdetector\Display\Display.c"
  16  000A  359F        	clr [31].3
  16  000B  0003        	ret
  16  000C              _DisplayInit endp
  16  000C              #line 16 "c:\users\tech\desktop\gasdetector\Display\Display.c"
  16  000C              #pragma debug scope 1 1
  16  000C              public _segmentNumbers
  16  000C              #pragma debug scope 3 1
  20  000C              #line 20 "c:\users\tech\desktop\gasdetector\Display\Display.c"
  20  0000              _segmentNumbers .section 'code'
  20  0000              _segmentNumbers proc
  20  0000  00              local _segmentNumbers_2 db 1 dup(?)	; 0,1
  20  0000  0080     E  	mov ra,a
  20  0001  0080     R  	mov _segmentNumbers_2[0],a
  20  0002              #pragma debug variable 8 3 _segmentNumbers_2+0 "n"
  22  0002              #line 22 "c:\users\tech\desktop\gasdetector\Display\Display.c"
  22  0002  0700     E  	mov a,ra
  22  0003  0A00        	sub a,0
  22  0004  3D0A        	sz z
  22  0005  2800     R  	jmp _L4
  22  0006  0A01        	sub a,(1)-(0)
  22  0007  3D0A        	sz z
  22  0008  2800     R  	jmp _L5
  22  0009              #line 22 "c:\users\tech\desktop\gasdetector\Display\Display.c"
  22  0009  0700     E  	mov a,ra
  22  000A  0A02        	sub a,2
  22  000B  3D0A        	sz z
  22  000C  2800     R  	jmp _L6
  22  000D  0A01        	sub a,(3)-(2)
  22  000E  3D0A        	sz z
  22  000F  2800     R  	jmp _L7
"File: Display.c     Assembler  Version HGASM0202      Page 3

  22  0010  0700     E  	mov a,ra
  22  0011  0A04        	sub a,4
  22  0012  3D0A        	sz z
  22  0013  2800     R  	jmp _L8
  22  0014  0A01        	sub a,(5)-(4)
  22  0015  3D0A        	sz z
  22  0016  2800     R  	jmp _L9
  22  0017  0700     E  	mov a,ra
  22  0018  0A06        	sub a,6
  22  0019  3D0A        	sz z
  22  001A  2800     R  	jmp _L10
  22  001B  0A01        	sub a,(7)-(6)
  22  001C  3D0A        	sz z
  22  001D  2800     R  	jmp _L11
  22  001E  0700     E  	mov a,ra
  22  001F  0A08        	sub a,8
  22  0020  3D0A        	sz z
  22  0021  2800     R  	jmp _L12
  22  0022  0A01        	sub a,(9)-(8)
  22  0023  3D0A        	sz z
  22  0024  2800     R  	jmp _L13
  22  0025  0700     E  	mov a,ra
  22  0026  0A2D        	sub a,45
  22  0027  3D0A        	sz z
  22  0028  2800     R  	jmp _L14
  22  0029  0A35        	sub a,(98)-(45)
  22  002A  3D0A        	sz z
  22  002B  2800     R  	jmp _L15
  22  002C  0700     E  	mov a,ra
  22  002D  0A6C        	sub a,108
  22  002E  3D0A        	sz z
  22  002F  2800     R  	jmp _L16
  22  0030  0A02        	sub a,(110)-(108)
  22  0031  3D0A        	sz z
  22  0032  2800     R  	jmp _L17
  22  0033  0700     E  	mov a,ra
  22  0034  0A6F        	sub a,111
  22  0035  390A        	snz z
  22  0036  2800     R  	jmp _L2
 143  0037              #line 143 "c:\users\tech\desktop\gasdetector\Display\Display.c"
 143  0037  339F        	set [31].7
 144  0038              #line 144 "c:\users\tech\desktop\gasdetector\Display\Display.c"
 144  0038  3023        	set [35].0
 145  0039              #line 145 "c:\users\tech\desktop\gasdetector\Display\Display.c"
 145  0039  361F        	clr [31].4
 145  003A  2800     R  	jmp _L26
 145  003B              _L4:
  25  003B              #line 25 "c:\users\tech\desktop\gasdetector\Display\Display.c"
  25  003B  379F        	clr [31].7
  26  003C              #line 26 "c:\users\tech\desktop\gasdetector\Display\Display.c"
  26  003C  3423        	clr [35].0
  27  003D              #line 27 "c:\users\tech\desktop\gasdetector\Display\Display.c"
  27  003D  361F        	clr [31].4
  27  003E  2800     R  	jmp _L20
  27  003F              _L5:
  34  003F              #line 34 "c:\users\tech\desktop\gasdetector\Display\Display.c"
  34  003F  339F        	set [31].7
  34  0040  2800     R  	jmp _L24
  34  0041              _L6:
  43  0041              #line 43 "c:\users\tech\desktop\gasdetector\Display\Display.c"
"File: Display.c     Assembler  Version HGASM0202      Page 4

  43  0041  379F        	clr [31].7
  44  0042              #line 44 "c:\users\tech\desktop\gasdetector\Display\Display.c"
  44  0042  3423        	clr [35].0
  45  0043              #line 45 "c:\users\tech\desktop\gasdetector\Display\Display.c"
  45  0043  321F        	set [31].4
  45  0044  2800     R  	jmp _L26
  45  0045              _L7:
  52  0045              #line 52 "c:\users\tech\desktop\gasdetector\Display\Display.c"
  52  0045  379F        	clr [31].7
  53  0046              #line 53 "c:\users\tech\desktop\gasdetector\Display\Display.c"
  53  0046  3423        	clr [35].0
  54  0047              #line 54 "c:\users\tech\desktop\gasdetector\Display\Display.c"
  54  0047  361F        	clr [31].4
  55  0048              #line 55 "c:\users\tech\desktop\gasdetector\Display\Display.c"
  55  0048  3794        	clr [20].7
  55  0049  2800     R  	jmp _L23
  55  004A              _L8:
  61  004A              #line 61 "c:\users\tech\desktop\gasdetector\Display\Display.c"
  61  004A  339F        	set [31].7
  62  004B              #line 62 "c:\users\tech\desktop\gasdetector\Display\Display.c"
  62  004B  3423        	clr [35].0
  63  004C              #line 63 "c:\users\tech\desktop\gasdetector\Display\Display.c"
  63  004C  361F        	clr [31].4
  64  004D              #line 64 "c:\users\tech\desktop\gasdetector\Display\Display.c"
  64  004D  3394        	set [20].7
  64  004E  2800     R  	jmp _L30
  64  004F              _L9:
  70  004F              #line 70 "c:\users\tech\desktop\gasdetector\Display\Display.c"
  70  004F  379F        	clr [31].7
  71  0050              #line 71 "c:\users\tech\desktop\gasdetector\Display\Display.c"
  71  0050  3023        	set [35].0
  71  0051  2800     R  	jmp _L31
  71  0052              _L10:
  79  0052              #line 79 "c:\users\tech\desktop\gasdetector\Display\Display.c"
  79  0052  379F        	clr [31].7
  79  0053  2800     R  	jmp _L28
  79  0054              _L11:
  88  0054              #line 88 "c:\users\tech\desktop\gasdetector\Display\Display.c"
  88  0054  379F        	clr [31].7
  88  0055              _L24:
  89  0055              #line 89 "c:\users\tech\desktop\gasdetector\Display\Display.c"
  89  0055  3423        	clr [35].0
  90  0056              #line 90 "c:\users\tech\desktop\gasdetector\Display\Display.c"
  90  0056  361F        	clr [31].4
  91  0057              #line 91 "c:\users\tech\desktop\gasdetector\Display\Display.c"
  91  0057  3394        	set [20].7
  92  0058              #line 92 "c:\users\tech\desktop\gasdetector\Display\Display.c"
  92  0058  331F        	set [31].6
  93  0059              #line 93 "c:\users\tech\desktop\gasdetector\Display\Display.c"
  93  0059  30A3        	set [35].1
  93  005A  2800     R  	jmp _L22
  93  005B              _L12:
  97  005B              #line 97 "c:\users\tech\desktop\gasdetector\Display\Display.c"
  97  005B  379F        	clr [31].7
  98  005C              #line 98 "c:\users\tech\desktop\gasdetector\Display\Display.c"
  98  005C  3423        	clr [35].0
  98  005D  2800     R  	jmp _L29
  98  005E              _L13:
 106  005E              #line 106 "c:\users\tech\desktop\gasdetector\Display\Display.c"
 106  005E  379F        	clr [31].7
"File: Display.c     Assembler  Version HGASM0202      Page 5

 107  005F              #line 107 "c:\users\tech\desktop\gasdetector\Display\Display.c"
 107  005F  3423        	clr [35].0
 107  0060              _L31:
 108  0060              #line 108 "c:\users\tech\desktop\gasdetector\Display\Display.c"
 108  0060  361F        	clr [31].4
 109  0061              #line 109 "c:\users\tech\desktop\gasdetector\Display\Display.c"
 109  0061  3794        	clr [20].7
 109  0062              _L30:
 110  0062              #line 110 "c:\users\tech\desktop\gasdetector\Display\Display.c"
 110  0062  331F        	set [31].6
 110  0063  2800     R  	jmp _L27
 110  0064              _L15:
 116  0064              #line 116 "c:\users\tech\desktop\gasdetector\Display\Display.c"
 116  0064  339F        	set [31].7
 116  0065              _L28:
 117  0065              #line 117 "c:\users\tech\desktop\gasdetector\Display\Display.c"
 117  0065  3023        	set [35].0
 117  0066              _L29:
 118  0066              #line 118 "c:\users\tech\desktop\gasdetector\Display\Display.c"
 118  0066  361F        	clr [31].4
 119  0067              #line 119 "c:\users\tech\desktop\gasdetector\Display\Display.c"
 119  0067  3794        	clr [20].7
 120  0068              #line 120 "c:\users\tech\desktop\gasdetector\Display\Display.c"
 120  0068  371F        	clr [31].6
 120  0069              _L27:
 121  0069              #line 121 "c:\users\tech\desktop\gasdetector\Display\Display.c"
 121  0069  34A3        	clr [35].1
 121  006A  2800     R  	jmp _L21
 121  006B              _L16:
 125  006B              #line 125 "c:\users\tech\desktop\gasdetector\Display\Display.c"
 125  006B  339F        	set [31].7
 126  006C              #line 126 "c:\users\tech\desktop\gasdetector\Display\Display.c"
 126  006C  3023        	set [35].0
 127  006D              #line 127 "c:\users\tech\desktop\gasdetector\Display\Display.c"
 127  006D  321F        	set [31].4
 127  006E              _L20:
 128  006E              #line 128 "c:\users\tech\desktop\gasdetector\Display\Display.c"
 128  006E  3794        	clr [20].7
 129  006F              #line 129 "c:\users\tech\desktop\gasdetector\Display\Display.c"
 129  006F  371F        	clr [31].6
 130  0070              #line 130 "c:\users\tech\desktop\gasdetector\Display\Display.c"
 130  0070  34A3        	clr [35].1
 130  0071              _L22:
 131  0071              #line 131 "c:\users\tech\desktop\gasdetector\Display\Display.c"
 131  0071  319F        	set [31].3
 132  0072              #line 132 "c:\users\tech\desktop\gasdetector\Display\Display.c"
 132  0072  2800     R  	jmp _L2
 132  0073              _L17:
 134  0073              #line 134 "c:\users\tech\desktop\gasdetector\Display\Display.c"
 134  0073  339F        	set [31].7
 135  0074              #line 135 "c:\users\tech\desktop\gasdetector\Display\Display.c"
 135  0074  3023        	set [35].0
 136  0075              #line 136 "c:\users\tech\desktop\gasdetector\Display\Display.c"
 136  0075  361F        	clr [31].4
 137  0076              #line 137 "c:\users\tech\desktop\gasdetector\Display\Display.c"
 137  0076  3394        	set [20].7
 137  0077  2800     R  	jmp _L25
 137  0078              _L26:
 146  0078              #line 146 "c:\users\tech\desktop\gasdetector\Display\Display.c"
 146  0078  3794        	clr [20].7
"File: Display.c     Assembler  Version HGASM0202      Page 6

 146  0079              _L25:
 147  0079              #line 147 "c:\users\tech\desktop\gasdetector\Display\Display.c"
 147  0079  371F        	clr [31].6
 147  007A  2800     R  	jmp _L19
 147  007B              _L14:
 152  007B              #line 152 "c:\users\tech\desktop\gasdetector\Display\Display.c"
 152  007B  339F        	set [31].7
 153  007C              #line 153 "c:\users\tech\desktop\gasdetector\Display\Display.c"
 153  007C  3023        	set [35].0
 154  007D              #line 154 "c:\users\tech\desktop\gasdetector\Display\Display.c"
 154  007D  321F        	set [31].4
 155  007E              #line 155 "c:\users\tech\desktop\gasdetector\Display\Display.c"
 155  007E  3394        	set [20].7
 155  007F              _L23:
 156  007F              #line 156 "c:\users\tech\desktop\gasdetector\Display\Display.c"
 156  007F  331F        	set [31].6
 156  0080              _L19:
 157  0080              #line 157 "c:\users\tech\desktop\gasdetector\Display\Display.c"
 157  0080  30A3        	set [35].1
 157  0081              _L21:
 158  0081              #line 158 "c:\users\tech\desktop\gasdetector\Display\Display.c"
 158  0081  359F        	clr [31].3
 158  0082              _L2:
 158  0082  0003        	ret
 158  0083              _segmentNumbers endp
 158  0083              #line 158 "c:\users\tech\desktop\gasdetector\Display\Display.c"
 158  0083              #pragma debug scope 1 1
 158  0083              public _segmentCharacters
 158  0083              #pragma debug scope 4 1
 163  0083              #line 163 "c:\users\tech\desktop\gasdetector\Display\Display.c"
 163  0000              _segmentCharacters .section 'code'
 163  0000              _segmentCharacters proc
 163  0000  00              local _segmentCharacters_2 db 1 dup(?)	; 0,1
 163  0000  0080     E  	mov ra,a
 163  0001  0080     R  	mov _segmentCharacters_2[0],a
 163  0002              #pragma debug variable 8 4 _segmentCharacters_2+0 "n"
 165  0002              #line 165 "c:\users\tech\desktop\gasdetector\Display\Display.c"
 165  0002  0700     E  	mov a,ra
 165  0003  0A2D        	sub a,45
 165  0004  3D0A        	sz z
 165  0005  2800     R  	jmp _L35
 165  0006  0A35        	sub a,(98)-(45)
 165  0007  3D0A        	sz z
 165  0008  2800     R  	jmp _L36
 165  0009              #line 165 "c:\users\tech\desktop\gasdetector\Display\Display.c"
 165  0009  0700     E  	mov a,ra
 165  000A  0A6C        	sub a,108
 165  000B  3D0A        	sz z
 165  000C  2800     R  	jmp _L37
 165  000D  0A02        	sub a,(110)-(108)
 165  000E  3D0A        	sz z
 165  000F  2800     R  	jmp _L38
 165  0010  0700     E  	mov a,ra
 165  0011  0A6F        	sub a,111
 165  0012  390A        	snz z
 165  0013  2800     R  	jmp _L33
 196  0014              #line 196 "c:\users\tech\desktop\gasdetector\Display\Display.c"
 196  0014  339F        	set [31].7
 197  0015              #line 197 "c:\users\tech\desktop\gasdetector\Display\Display.c"
 197  0015  3023        	set [35].0
"File: Display.c     Assembler  Version HGASM0202      Page 7

 198  0016              #line 198 "c:\users\tech\desktop\gasdetector\Display\Display.c"
 198  0016  361F        	clr [31].4
 199  0017              #line 199 "c:\users\tech\desktop\gasdetector\Display\Display.c"
 199  0017  3794        	clr [20].7
 199  0018  2800     R  	jmp _L40
 199  0019              _L36:
 169  0019              #line 169 "c:\users\tech\desktop\gasdetector\Display\Display.c"
 169  0019  339F        	set [31].7
 170  001A              #line 170 "c:\users\tech\desktop\gasdetector\Display\Display.c"
 170  001A  3023        	set [35].0
 171  001B              #line 171 "c:\users\tech\desktop\gasdetector\Display\Display.c"
 171  001B  361F        	clr [31].4
 172  001C              #line 172 "c:\users\tech\desktop\gasdetector\Display\Display.c"
 172  001C  3794        	clr [20].7
 173  001D              #line 173 "c:\users\tech\desktop\gasdetector\Display\Display.c"
 173  001D  371F        	clr [31].6
 174  001E              #line 174 "c:\users\tech\desktop\gasdetector\Display\Display.c"
 174  001E  34A3        	clr [35].1
 174  001F  2800     R  	jmp _L41
 174  0020              _L37:
 178  0020              #line 178 "c:\users\tech\desktop\gasdetector\Display\Display.c"
 178  0020  339F        	set [31].7
 179  0021              #line 179 "c:\users\tech\desktop\gasdetector\Display\Display.c"
 179  0021  3023        	set [35].0
 180  0022              #line 180 "c:\users\tech\desktop\gasdetector\Display\Display.c"
 180  0022  321F        	set [31].4
 181  0023              #line 181 "c:\users\tech\desktop\gasdetector\Display\Display.c"
 181  0023  3794        	clr [20].7
 182  0024              #line 182 "c:\users\tech\desktop\gasdetector\Display\Display.c"
 182  0024  371F        	clr [31].6
 183  0025              #line 183 "c:\users\tech\desktop\gasdetector\Display\Display.c"
 183  0025  34A3        	clr [35].1
 184  0026              #line 184 "c:\users\tech\desktop\gasdetector\Display\Display.c"
 184  0026  319F        	set [31].3
 185  0027              #line 185 "c:\users\tech\desktop\gasdetector\Display\Display.c"
 185  0027  2800     R  	jmp _L33
 185  0028              _L38:
 187  0028              #line 187 "c:\users\tech\desktop\gasdetector\Display\Display.c"
 187  0028  339F        	set [31].7
 188  0029              #line 188 "c:\users\tech\desktop\gasdetector\Display\Display.c"
 188  0029  3023        	set [35].0
 189  002A              #line 189 "c:\users\tech\desktop\gasdetector\Display\Display.c"
 189  002A  361F        	clr [31].4
 190  002B              #line 190 "c:\users\tech\desktop\gasdetector\Display\Display.c"
 190  002B  3394        	set [20].7
 190  002C              _L40:
 200  002C              #line 200 "c:\users\tech\desktop\gasdetector\Display\Display.c"
 200  002C  371F        	clr [31].6
 201  002D              #line 201 "c:\users\tech\desktop\gasdetector\Display\Display.c"
 201  002D  30A3        	set [35].1
 201  002E              _L41:
 202  002E              #line 202 "c:\users\tech\desktop\gasdetector\Display\Display.c"
 202  002E  359F        	clr [31].3
 203  002F              #line 203 "c:\users\tech\desktop\gasdetector\Display\Display.c"
 203  002F  2800     R  	jmp _L33
 203  0030              _L35:
 205  0030              #line 205 "c:\users\tech\desktop\gasdetector\Display\Display.c"
 205  0030  339F        	set [31].7
 206  0031              #line 206 "c:\users\tech\desktop\gasdetector\Display\Display.c"
 206  0031  3023        	set [35].0
"File: Display.c     Assembler  Version HGASM0202      Page 8

 207  0032              #line 207 "c:\users\tech\desktop\gasdetector\Display\Display.c"
 207  0032  321F        	set [31].4
 207  0033              _L33:
 207  0033  0003        	ret
 207  0034              _segmentCharacters endp
 207  0034              #line 207 "c:\users\tech\desktop\gasdetector\Display\Display.c"
 207  0034              #pragma debug scope 1 1
 207  0034              public _Display
 207  0034              #pragma debug scope 5 1
 211  0034              #line 211 "c:\users\tech\desktop\gasdetector\Display\Display.c"
 211  0000              _Display .section 'code'
 211  0000              _Display proc
 211  0000              public _Display_2
 211  0000  000B[           local _Display_2 db 11 dup(?)	; 3,8
            00
            ]
 211  000B              #pragma debug variable 11 5 _Display_2+0 "number"
 211  000B              #pragma debug variable 7 5 _Display_2+2 "character"
 211  000B              #pragma debug array 42 7 4 5
 211  000B              #pragma debug array 42 7 4 5
 211  000B              #pragma debug variable 42 5 _Display_2+3 "displayBuffer"
 211  000B              #pragma debug variable 7 5 _Display_2+7 "digitNumber"
 213  000B              #line 213 "c:\users\tech\desktop\gasdetector\Display\Display.c"
 213  0000  1F00     R  	clr _Display_2[3]
 213  0001  1F00     R  	clr _Display_2[4]
 213  0002  1F00     R  	clr _Display_2[5]
 219  0003              #line 219 "c:\users\tech\desktop\gasdetector\Display\Display.c"
 219  0003  0700     R  	mov a,_Display_2[2]
 219  0004  0A30        	sub a,48
 219  0005  390A        	snz z
 219  0006  2800     R  	jmp _L43
 213  0007              #line 213 "c:\users\tech\desktop\gasdetector\Display\Display.c"
 213  0007  1F00     R  	clr _Display_2[6]
 215  0008              #line 215 "c:\users\tech\desktop\gasdetector\Display\Display.c"
 215  0008  0F03        	mov a,3
 215  0009  0080     E  	mov rb,a
 215  000A  2800     R  	jmp _L44
 215  000B              _L43:
 222  000B              #line 222 "c:\users\tech\desktop\gasdetector\Display\Display.c"
 222  000B  0700     R  	mov a,_Display_2[2]
 222  000C  0080     R  	mov _Display_2[6],a
 221  000D              #line 221 "c:\users\tech\desktop\gasdetector\Display\Display.c"
 221  000D  0F02        	mov a,2
 221  000E  0080     E  	mov rb,a
 221  000F              _L44:
 215  000F              #line 215 "c:\users\tech\desktop\gasdetector\Display\Display.c"
 215  000F  1F00     E  	clr ra
 227  0010              #line 227 "c:\users\tech\desktop\gasdetector\Display\Display.c"
 227  0010  0700     E  	mov a,rb
 227  0011  0080     R  	mov _Display_2[7],a
 227  0012  1F00     R  	clr _Display_2[8]
 227  0013  3F85        	sz acc.7
 227  0014  1F80     R  	set _Display_2[8]
 227  0015  0F00     R  	mov a,low offset _Display_2
 227  0016  0080     E  	mov rb,a
 227  0017  0F00     R  	mov a,high offset _Display_2
 227  0018  0080     E  	mov rc,a
 227  0019  0F03        	mov a,3
 227  001A  0300     E  	add a,rb
 227  001B  0080     R  	mov _Display_2[9],a
"File: Display.c     Assembler  Version HGASM0202      Page 9

 227  001C  0F00        	mov a,0
 227  001D  1300     E  	adc a,rc
 227  001E  0080     R  	mov _Display_2[10],a
 227  001F              _L45:
 224  001F              #line 224 "c:\users\tech\desktop\gasdetector\Display\Display.c"
 224  001F  0700     R  	mov a,_Display_2[0]
 224  0020  0500     R  	or a,_Display_2[1]
 224  0021  3D0A        	sz z
 224  0022  2800     R  	jmp _L56
 227  0023              #line 227 "c:\users\tech\desktop\gasdetector\Display\Display.c"
 227  0023  0700     R  	mov a,_Display_2[0]
 227  0024  0080     E  	mov _builtin_holtek_udivmodhi4_2[0],a
 227  0025  0700     R  	mov a,_Display_2[1]
 227  0026  0080     E  	mov _builtin_holtek_udivmodhi4_2[1],a
 227  0027  0F0A        	mov a,10
 227  0028  0080     E  	mov _builtin_holtek_udivmodhi4_2[2],a
 227  0029  0F00        	mov a,0
 227  002A  0080     E  	mov _builtin_holtek_udivmodhi4_2[3],a
 227  002B  2000     E  	call _builtin_holtek_divmodhi4
 227  002C  0700     E  	mov a,_builtin_holtek_udivmodhi4_2[4]
 227  002D  0080     E  	mov rb,a
 227  002E  0700     E  	mov a,_builtin_holtek_udivmodhi4_2[5]
 227  002F  0080     E  	mov rc,a
 227  0030  0700     R  	mov a,_Display_2[7]
 227  0031  0200     E  	sub a,ra
 227  0032  0080     E  	mov rd,a
 227  0033  0700     R  	mov a,_Display_2[8]
 227  0034  1F00     E  	clr re
 227  0035  3C00     E  	sz ra.7
 227  0036  1F80     E  	set re
 227  0037  1280     E  	sbcm a,re
 227  0038  0700     E  	mov a,rd
 227  0039  0300     R  	add a,_Display_2[9]
 227  003A  0083        	mov mp,a
 227  003B  0700     E  	mov a,re
 227  003C  1300     R  	adc a,_Display_2[10]
 227  003D  0081        	mov sbp,a
 227  003E  0701        	mov a,sbp
 227  003F  0084        	mov bp,a
 227  0040  0700     E  	mov a,rb
 227  0041  0082        	mov ir,a
 228  0042              #line 228 "c:\users\tech\desktop\gasdetector\Display\Display.c"
 228  0042  0700     R  	mov a,_Display_2[0]
 228  0043  0280     E  	subm a,rb
 228  0044  0700     R  	mov a,_Display_2[1]
 228  0045  1280     E  	sbcm a,rc
 228  0046  0700     E  	mov a,rb
 228  0047  0080     E  	mov _builtin_holtek_udivmodhi4_2[0],a
 228  0048  0700     E  	mov a,rc
 228  0049  0080     E  	mov _builtin_holtek_udivmodhi4_2[1],a
 228  004A  0F0A        	mov a,10
 228  004B  0080     E  	mov _builtin_holtek_udivmodhi4_2[2],a
 228  004C  0F00        	mov a,0
 228  004D  0080     E  	mov _builtin_holtek_udivmodhi4_2[3],a
 228  004E  2000     E  	call _builtin_holtek_divmodhi4
 228  004F  0700     E  	mov a,_builtin_holtek_udivmodhi4_2[0]
 228  0050  0080     R  	mov _Display_2[0],a
 228  0051  0700     E  	mov a,_builtin_holtek_udivmodhi4_2[1]
 228  0052  0080     R  	mov _Display_2[1],a
 229  0053              #line 229 "c:\users\tech\desktop\gasdetector\Display\Display.c"
"File: Display.c     Assembler  Version HGASM0202      Page 10

 229  0053  1480     E  	inc ra
 229  0054  2800     R  	jmp _L45
 229  0055              _L56:
 224  0055              #line 224 "c:\users\tech\desktop\gasdetector\Display\Display.c"
 224  0055  1F00     R  	clr _Display_2[7]
 224  0056              _L53:
 244  0056              #line 244 "c:\users\tech\desktop\gasdetector\Display\Display.c"
 244  0056  0700     R  	mov a,_Display_2[7]
 244  0057  0A01        	sub a,1
 244  0058  3D0A        	sz z
 244  0059  2800     R  	jmp _L48
 244  005A  0A01        	sub a,(2)-(1)
 244  005B  3D0A        	sz z
 244  005C  2800     R  	jmp _L49
 244  005D  0700     R  	mov a,_Display_2[7]
 244  005E  0A03        	sub a,3
 244  005F  3D0A        	sz z
 244  0060  2800     R  	jmp _L50
 247  0061              #line 247 "c:\users\tech\desktop\gasdetector\Display\Display.c"
 247  0061  0700     R  	mov a,_Display_2[3]
 247  0062  2000     R  	call _segmentNumbers
 248  0063              #line 248 "c:\users\tech\desktop\gasdetector\Display\Display.c"
 248  0063  329B        	set [27].5
 249  0064              #line 249 "c:\users\tech\desktop\gasdetector\Display\Display.c"
 249  0064  371B        	clr [27].6
 249  0065  2800     R  	jmp _L55
 249  0066              _L48:
 255  0066              #line 255 "c:\users\tech\desktop\gasdetector\Display\Display.c"
 255  0066  0700     R  	mov a,_Display_2[4]
 255  0067  0080     E  	mov ra,a
 255  0068  0700     E  	mov a,ra
 255  0069  2000     R  	call _segmentNumbers
 256  006A              #line 256 "c:\users\tech\desktop\gasdetector\Display\Display.c"
 256  006A  369B        	clr [27].5
 257  006B              #line 257 "c:\users\tech\desktop\gasdetector\Display\Display.c"
 257  006B  331B        	set [27].6
 257  006C              _L55:
 258  006C              #line 258 "c:\users\tech\desktop\gasdetector\Display\Display.c"
 258  006C  379B        	clr [27].7
 258  006D  2800     R  	jmp _L54
 258  006E              _L49:
 263  006E              #line 263 "c:\users\tech\desktop\gasdetector\Display\Display.c"
 263  006E  0700     R  	mov a,_Display_2[5]
 263  006F  0080     E  	mov ra,a
 263  0070  0700     E  	mov a,ra
 263  0071  2000     R  	call _segmentNumbers
 264  0072              #line 264 "c:\users\tech\desktop\gasdetector\Display\Display.c"
 264  0072  369B        	clr [27].5
 265  0073              #line 265 "c:\users\tech\desktop\gasdetector\Display\Display.c"
 265  0073  371B        	clr [27].6
 266  0074              #line 266 "c:\users\tech\desktop\gasdetector\Display\Display.c"
 266  0074  339B        	set [27].7
 266  0075              _L54:
 267  0075              #line 267 "c:\users\tech\desktop\gasdetector\Display\Display.c"
 267  0075  361B        	clr [27].4
 269  0076              #line 269 "c:\users\tech\desktop\gasdetector\Display\Display.c"
 269  0076  2800     R  	jmp _L51
 269  0077              _L50:
 272  0077              #line 272 "c:\users\tech\desktop\gasdetector\Display\Display.c"
 272  0077  0700     R  	mov a,_Display_2[6]
"File: Display.c     Assembler  Version HGASM0202      Page 11

 272  0078  0080     E  	mov ra,a
 272  0079  0700     E  	mov a,ra
 272  007A  2000     R  	call _segmentNumbers
 273  007B              #line 273 "c:\users\tech\desktop\gasdetector\Display\Display.c"
 273  007B  369B        	clr [27].5
 274  007C              #line 274 "c:\users\tech\desktop\gasdetector\Display\Display.c"
 274  007C  371B        	clr [27].6
 275  007D              #line 275 "c:\users\tech\desktop\gasdetector\Display\Display.c"
 275  007D  379B        	clr [27].7
 276  007E              #line 276 "c:\users\tech\desktop\gasdetector\Display\Display.c"
 276  007E  321B        	set [27].4
 276  007F              _L51:
 280  007F              #line 280 "c:\users\tech\desktop\gasdetector\Display\Display.c"
 280  007F              ;# 280 "c:\users\tech\desktop\gasdetector\Display\Display.c" 1
 280  007F              	IF 1000>263690
 280  007F              ;# 280 "c:\users\tech\desktop\gasdetector\Display\Display.c" 1
 280  007F              	ERRMESSAGE 'the value 1000of the argument exceeds the maxinum 263690'
 280  007F              	ENDIF
 280  007F              ;# 280 "c:\users\tech\desktop\gasdetector\Display\Display.c" 1
 280  007F              	IF 1000<0
 280  007F              ;# 280 "c:\users\tech\desktop\gasdetector\Display\Display.c" 1
 280  007F              	ERRMESSAGE 'the value 1000 of the argument exceeds the mininum 0'
 280  007F              	ENDIF
 280  007F              ;# 280 "c:\users\tech\desktop\gasdetector\Display\Display.c" 1
 280  007F              	IF 1000==0
 280  007F              ;# 280 "c:\users\tech\desktop\gasdetector\Display\Display.c" 1
 280  007F              	JMP $
 280  007F              	ENDIF
 280  007F              ;# 280 "c:\users\tech\desktop\gasdetector\Display\Display.c" 1
 280  007F              	IF 1000==1
 280  007F              ;# 280 "c:\users\tech\desktop\gasdetector\Display\Display.c" 1
 280  007F              	NOP
 280  007F              	ENDIF
 280  007F              ;# 280 "c:\users\tech\desktop\gasdetector\Display\Display.c" 1
 280  007F              	IF 1000==2
 280  007F              ;# 280 "c:\users\tech\desktop\gasdetector\Display\Display.c" 1
 280  007F              	NOP
 280  007F              ;# 280 "c:\users\tech\desktop\gasdetector\Display\Display.c" 1
 280  007F              	NOP
 280  007F              	ENDIF
 280  007F              ;# 280 "c:\users\tech\desktop\gasdetector\Display\Display.c" 1
 280  007F              	IF 1000==3
 280  007F              ;# 280 "c:\users\tech\desktop\gasdetector\Display\Display.c" 1
 280  007F              	NOP
 280  007F              ;# 280 "c:\users\tech\desktop\gasdetector\Display\Display.c" 1
 280  007F              	NOP
 280  007F              ;# 280 "c:\users\tech\desktop\gasdetector\Display\Display.c" 1
 280  007F              	NOP
 280  007F              	ENDIF
 280  007F              ;# 280 "c:\users\tech\desktop\gasdetector\Display\Display.c" 1
 280  007F              	IF (1000<8) AND (1000>3)
 280  007F              ;# 280 "c:\users\tech\desktop\gasdetector\Display\Display.c" 1
 280  007F              	CALL __DELAY3 + 7 -1000
 280  007F              	ENDIF
 280  007F              ;# 280 "c:\users\tech\desktop\gasdetector\Display\Display.c" 1
 280  007F              	IF (1000< 0404h) AND (1000>7)
 280  007F              ;# 280 "c:\users\tech\desktop\gasdetector\Display\Display.c" 1
 280  007F  0FF9        	MOV A,1000/4-1
 280  0080              ;# 280 "c:\users\tech\desktop\gasdetector\Display\Display.c" 1
 280  0080  2000     E  	CALL __DELAYX3 + 3 -(1000 MOD 4)
"File: Display.c     Assembler  Version HGASM0202      Page 12

 280  0081              	ENDIF
 280  0081              ;# 280 "c:\users\tech\desktop\gasdetector\Display\Display.c" 1
 280  0081              	IF (1000< 0x40B) AND (1000> 0403h)
 280  0081              ;# 280 "c:\users\tech\desktop\gasdetector\Display\Display.c" 1
 280  0081              	MOV A,0 
 280  0081              ;# 280 "c:\users\tech\desktop\gasdetector\Display\Display.c" 1
 280  0081              	CALL __DELAYX6 + 0x40a -1000
 280  0081              	ENDIF
 280  0081              ;# 280 "c:\users\tech\desktop\gasdetector\Display\Display.c" 1
 280  0081              	IF (1000 >= 0x40b) AND ((((1000-9)%0402h)/4+1)>256)
 280  0081              ;# 280 "c:\users\tech\desktop\gasdetector\Display\Display.c" 1
 280  0081              	MOV A,(1000-9)/0402h
 280  0081              ;# 280 "c:\users\tech\desktop\gasdetector\Display\Display.c" 1
 280  0081              	MOV _builtin_holtek_delay_2,A
 280  0081              ;# 280 "c:\users\tech\desktop\gasdetector\Display\Display.c" 1
 280  0081              	MOV A,0
 280  0081              ;# 280 "c:\users\tech\desktop\gasdetector\Display\Display.c" 1
 280  0081              	CALL __DELAYY5 +5- (((1000-9)%0402h)%6)
 280  0081              	ENDIF
 280  0081              ;# 280 "c:\users\tech\desktop\gasdetector\Display\Display.c" 1
 280  0081              	IF (1000 >= 0x40b) AND ((((1000-9)%0402h)/4+1)<=256)
 280  0081              ;# 280 "c:\users\tech\desktop\gasdetector\Display\Display.c" 1
 280  0081              	MOV A,(1000-9)/0402h
 280  0081              ;# 280 "c:\users\tech\desktop\gasdetector\Display\Display.c" 1
 280  0081              	MOV _builtin_holtek_delay_2,A
 280  0081              ;# 280 "c:\users\tech\desktop\gasdetector\Display\Display.c" 1
 280  0081              	MOV A,((1000-9)%0402h)/4+1
 280  0081              ;# 280 "c:\users\tech\desktop\gasdetector\Display\Display.c" 1
 280  0081              	CALL __DELAYY3 +3-(((1000-9)%0402h)%4)
 280  0081              	ENDIF
 240  0081              #line 240 "c:\users\tech\desktop\gasdetector\Display\Display.c"
 240  0081  1480     R  	inc _Display_2[7]
 240  0082  0700     R  	mov a,_Display_2[7]
 240  0083  0A04        	sub a,4
 240  0084  390A        	snz z
 240  0085  2800     R  	jmp _L53
 240  0086  0003        	ret
 240  0087              _Display endp
 240  0087              #line 240 "c:\users\tech\desktop\gasdetector\Display\Display.c"
 240  0087              #pragma debug scope 1 1
 240  0087              public _DisplayLooding
 240  0087              #pragma debug scope 6 1
 287  0087              #line 287 "c:\users\tech\desktop\gasdetector\Display\Display.c"
 287  0000              _DisplayLooding .section 'code'
 287  0000              _DisplayLooding proc
 287  0000  00              local _DisplayLooding_2 db 1 dup(?)	; 0,1
 287  0000  0080     E  	mov ra,a
 287  0001  0080     R  	mov _DisplayLooding_2[0],a
 287  0002              #pragma debug variable 7 6 _DisplayLooding_2+0 "cunterDigit"
 291  0002              #line 291 "c:\users\tech\desktop\gasdetector\Display\Display.c"
 291  0002  0700     E  	mov a,ra
 291  0003  0A00        	sub a,0
 291  0004  3D0A        	sz z
 291  0005  2800     R  	jmp _L59
 291  0006  0A01        	sub a,(1)-(0)
 291  0007  3D0A        	sz z
 291  0008  2800     R  	jmp _L60
 291  0009              #line 291 "c:\users\tech\desktop\gasdetector\Display\Display.c"
 291  0009  0700     E  	mov a,ra
 291  000A  0A02        	sub a,2
"File: Display.c     Assembler  Version HGASM0202      Page 13

 291  000B  3D0A        	sz z
 291  000C  2800     R  	jmp _L61
 291  000D  0700     E  	mov a,ra
 291  000E  0A03        	sub a,3
 291  000F  390A        	snz z
 291  0010  2800     R  	jmp _L57
 320  0011              #line 320 "c:\users\tech\desktop\gasdetector\Display\Display.c"
 320  0011  369B        	clr [27].5
 321  0012              #line 321 "c:\users\tech\desktop\gasdetector\Display\Display.c"
 321  0012  371B        	clr [27].6
 322  0013              #line 322 "c:\users\tech\desktop\gasdetector\Display\Display.c"
 322  0013  379B        	clr [27].7
 323  0014              #line 323 "c:\users\tech\desktop\gasdetector\Display\Display.c"
 323  0014  321B        	set [27].4
 325  0015              #line 325 "c:\users\tech\desktop\gasdetector\Display\Display.c"
 325  0015  2800     R  	jmp _L57
 325  0016              _L59:
 294  0016              #line 294 "c:\users\tech\desktop\gasdetector\Display\Display.c"
 294  0016  0F6F        	mov a,111
 294  0017  2000     R  	call _segmentCharacters
 295  0018              #line 295 "c:\users\tech\desktop\gasdetector\Display\Display.c"
 295  0018  329B        	set [27].5
 296  0019              #line 296 "c:\users\tech\desktop\gasdetector\Display\Display.c"
 296  0019  371B        	clr [27].6
 296  001A  2800     R  	jmp _L64
 296  001B              _L60:
 303  001B              #line 303 "c:\users\tech\desktop\gasdetector\Display\Display.c"
 303  001B  369B        	clr [27].5
 304  001C              #line 304 "c:\users\tech\desktop\gasdetector\Display\Display.c"
 304  001C  331B        	set [27].6
 304  001D              _L64:
 305  001D              #line 305 "c:\users\tech\desktop\gasdetector\Display\Display.c"
 305  001D  379B        	clr [27].7
 305  001E  2800     R  	jmp _L63
 305  001F              _L61:
 311  001F              #line 311 "c:\users\tech\desktop\gasdetector\Display\Display.c"
 311  001F  369B        	clr [27].5
 312  0020              #line 312 "c:\users\tech\desktop\gasdetector\Display\Display.c"
 312  0020  371B        	clr [27].6
 313  0021              #line 313 "c:\users\tech\desktop\gasdetector\Display\Display.c"
 313  0021  339B        	set [27].7
 313  0022              _L63:
 314  0022              #line 314 "c:\users\tech\desktop\gasdetector\Display\Display.c"
 314  0022  361B        	clr [27].4
 314  0023              _L57:
 314  0023  0003        	ret
 314  0024              _DisplayLooding endp
 314  0024              #line 314 "c:\users\tech\desktop\gasdetector\Display\Display.c"
 314  0024              #pragma debug scope 1 1
 314  0024              #pragma debug struct_end
 314  0024              #pragma debug struct_end
 314  0024              #pragma debug union_end
 314  0024              #pragma debug union_end
 314  0024              #pragma debug variable 44 1 ___pa "__pa" 1
 314  0024              #pragma debug struct_end
 314  0024              #pragma debug struct_end
 314  0024              #pragma debug union_end
 314  0024              #pragma debug union_end
 314  0024              #pragma debug variable 46 1 ___pb "__pb" 1
 314  0024              #pragma debug struct_end
"File: Display.c     Assembler  Version HGASM0202      Page 14

 314  0024              #pragma debug struct_end
 314  0024              #pragma debug union_end
 314  0024              #pragma debug union_end
 314  0024              #pragma debug variable 48 1 ___pc "__pc" 1
 314  0024              #pragma debug struct_end
 314  0024              #pragma debug struct_end
 314  0024              #pragma debug union_end
 314  0024              #pragma debug union_end
 314  0024              #pragma debug variable 50 1 ___pd "__pd" 1
 314  0024              extern _builtin_holtek_divmodhi4:near
 314  0024              extern _builtin_holtek_udivmodhi4_2:byte
 314  0024              extern _builtin_holtek_udivmodhi4:near
 314  0024              
 314  0024              ; 
 314  0024              ; Generated by holtek-gcc v3.19, Tue May 21 15:12:40 2024
 314  0024              ; Rebuild 718
 314  0024              ; end of file


        0 Errors, 0