"File: Main.c        Assembler  Version HGASM0202      Page 1


   1  0000              ; Generated by holtek-gcc v3.19, Tue May 14 11:04:41 2024
   2  0000              ; 
   3  0000              ; Configuration:
   4  0000              ;       without long instruction
   5  0000              ;       Single ROM, Multi-RAM
   6  0000              ;       bits_per_rom_unit:16
   7  0000              ;       with mp1
   8  0000              ;       with tbhp, address(0x9)
   9  0000              ;          Use tabrd-const
  10  0000              ;       
  11  0000              ;       
  12  0000              ;       
  13  0000              ; use 'tabrdc' instead of 'tabrd'
  14  0000              ;       
  15  0000              
  16  0000              #pragma translator "holtek-gcc 4.6.4" "3.19" "build 20130711"
  17  0000              ; Rebuild 718
  18  0000              
  19  0000              ir equ [2]
  20  0000              mp equ [3]
  21  0000              sbp equ [1]
  22  0000              acc equ [5]
  23  0000              bp equ [4]
  24  0000              tblp equ [7]
  25  0000              tbhp equ [9]
  26  0000              status equ [10]
  27  0000              c equ [10].0
  28  0000              ac equ [10].1
  29  0000              z equ [10].2
  30  0000              ov equ [10].3
  31  0000              intc equ [11]
  32  0000              
  33  0000              extern ra:byte
  34  0000              extern rb:byte
  35  0000              extern rc:byte
  36  0000              extern rd:byte
  37  0000              extern re:byte
  38  0000              extern rf:byte
  39  0000              extern rg:byte
  40  0000              extern rh:byte
  41  0000              extern _Crom2Prom:near
  42  0000              extern _Crom2PromNext:near
  43  0000              
  44  0000              RAMBANK 0 @HCCINIT, @HCCINIT0
  45  0000              
  46  0000              RAMBANK 0 @BITDATASEC, @BITDATASEC1
  47  0000              @HCCINIT	.section 'data'
  48  0000              @HCCINIT0	.section 'data'
  49  0000              @BITDATASEC	 .section 'data'
  50  0000              @BITDATASEC1	 .section 'data'
  51  0000              
  52  0000              #pragma debug scope 1 1
  53  0000              	extern __DELAY3:near
  54  0000              	extern __DELAYX3:near
  55  0000              	extern __DELAYX6:near
  56  0000              	extern __DELAYY5:near
  57  0000              	extern __DELAYY3:near
  58  0000              	extern _builtin_holtek_delay_2:byte
  59  0000              ___pc equ [31]
"File: Main.ASM      Assembler  Version HGASM0202      Page 2

  60  0000              ___pd equ [35]
  61  0000              ___pa equ [20]
  62  0000              public _SEGMENT_number
  63  0000              #pragma debug scope 2 1

 490  0000              #line 490 "c:\users\tech\desktop\gasdetector\Main.c"
 490  0000              _SEGMENT_number .section 'code'
 490  0000              _SEGMENT_number proc
 490  0000  00              local _SEGMENT_number_2 db 1 dup(?)	; 0,1
 490  0000  0080     E  	mov ra,a
 490  0001  0080     R  	mov _SEGMENT_number_2[0],a
 490  0002              #pragma debug variable 8 2 _SEGMENT_number_2+0 "n"
 492  0002              #line 492 "c:\users\tech\desktop\gasdetector\Main.c"
 492  0002  0700     E  	mov a,ra
 492  0003  0A00        	sub a,0
 492  0004  3D0A        	sz z
 492  0005  2800     R  	jmp _L3
 492  0006  0A01        	sub a,(1)-(0)
 492  0007  3D0A        	sz z
 492  0008  2800     R  	jmp _L4
 492  0009              #line 492 "c:\users\tech\desktop\gasdetector\Main.c"
 492  0009  0700     E  	mov a,ra
 492  000A  0A02        	sub a,2
 492  000B  3D0A        	sz z
 492  000C  2800     R  	jmp _L5
 492  000D  0A01        	sub a,(3)-(2)
 492  000E  3D0A        	sz z
 492  000F  2800     R  	jmp _L6
 492  0010  0700     E  	mov a,ra
 492  0011  0A04        	sub a,4
 492  0012  3D0A        	sz z
 492  0013  2800     R  	jmp _L7
 492  0014  0A01        	sub a,(5)-(4)
 492  0015  3D0A        	sz z
 492  0016  2800     R  	jmp _L8
 492  0017  0700     E  	mov a,ra
 492  0018  0A06        	sub a,6
 492  0019  3D0A        	sz z
 492  001A  2800     R  	jmp _L9
 492  001B  0A01        	sub a,(7)-(6)
 492  001C  3D0A        	sz z
 492  001D  2800     R  	jmp _L10
 492  001E  0700     E  	mov a,ra
 492  001F  0A08        	sub a,8
 492  0020  3D0A        	sz z
 492  0021  2800     R  	jmp _L11
 492  0022  0A01        	sub a,(9)-(8)
 492  0023  3D0A        	sz z
 492  0024  2800     R  	jmp _L12
 492  0025  0700     E  	mov a,ra
 492  0026  0A2D        	sub a,45
 492  0027  3D0A        	sz z
 492  0028  2800     R  	jmp _L13
 492  0029  0A35        	sub a,(98)-(45)
 492  002A  3D0A        	sz z
 492  002B  2800     R  	jmp _L14
 492  002C  0700     E  	mov a,ra
 492  002D  0A6C        	sub a,108
 492  002E  3D0A        	sz z
 492  002F  2800     R  	jmp _L15
"File: Main.c        Assembler  Version HGASM0202      Page 3

 492  0030  0A02        	sub a,(110)-(108)
 492  0031  3D0A        	sz z
 492  0032  2800     R  	jmp _L16
 492  0033  0700     E  	mov a,ra
 492  0034  0A6F        	sub a,111
 492  0035  390A        	snz z
 492  0036  2800     R  	jmp _L1
 613  0037              #line 613 "c:\users\tech\desktop\gasdetector\Main.c"
 613  0037  339F        	set [31].7
 614  0038              #line 614 "c:\users\tech\desktop\gasdetector\Main.c"
 614  0038  3023        	set [35].0
 615  0039              #line 615 "c:\users\tech\desktop\gasdetector\Main.c"
 615  0039  361F        	clr [31].4
 615  003A  2800     R  	jmp _L25
 615  003B              _L3:
 495  003B              #line 495 "c:\users\tech\desktop\gasdetector\Main.c"
 495  003B  379F        	clr [31].7
 496  003C              #line 496 "c:\users\tech\desktop\gasdetector\Main.c"
 496  003C  3423        	clr [35].0
 497  003D              #line 497 "c:\users\tech\desktop\gasdetector\Main.c"
 497  003D  361F        	clr [31].4
 497  003E  2800     R  	jmp _L19
 497  003F              _L4:
 504  003F              #line 504 "c:\users\tech\desktop\gasdetector\Main.c"
 504  003F  339F        	set [31].7
 504  0040  2800     R  	jmp _L23
 504  0041              _L5:
 513  0041              #line 513 "c:\users\tech\desktop\gasdetector\Main.c"
 513  0041  379F        	clr [31].7
 514  0042              #line 514 "c:\users\tech\desktop\gasdetector\Main.c"
 514  0042  3423        	clr [35].0
 515  0043              #line 515 "c:\users\tech\desktop\gasdetector\Main.c"
 515  0043  321F        	set [31].4
 515  0044  2800     R  	jmp _L25
 515  0045              _L6:
 522  0045              #line 522 "c:\users\tech\desktop\gasdetector\Main.c"
 522  0045  379F        	clr [31].7
 523  0046              #line 523 "c:\users\tech\desktop\gasdetector\Main.c"
 523  0046  3423        	clr [35].0
 524  0047              #line 524 "c:\users\tech\desktop\gasdetector\Main.c"
 524  0047  361F        	clr [31].4
 525  0048              #line 525 "c:\users\tech\desktop\gasdetector\Main.c"
 525  0048  3794        	clr [20].7
 525  0049  2800     R  	jmp _L22
 525  004A              _L7:
 531  004A              #line 531 "c:\users\tech\desktop\gasdetector\Main.c"
 531  004A  339F        	set [31].7
 532  004B              #line 532 "c:\users\tech\desktop\gasdetector\Main.c"
 532  004B  3423        	clr [35].0
 533  004C              #line 533 "c:\users\tech\desktop\gasdetector\Main.c"
 533  004C  361F        	clr [31].4
 534  004D              #line 534 "c:\users\tech\desktop\gasdetector\Main.c"
 534  004D  3394        	set [20].7
 534  004E  2800     R  	jmp _L29
 534  004F              _L8:
 540  004F              #line 540 "c:\users\tech\desktop\gasdetector\Main.c"
 540  004F  379F        	clr [31].7
 541  0050              #line 541 "c:\users\tech\desktop\gasdetector\Main.c"
 541  0050  3023        	set [35].0
 541  0051  2800     R  	jmp _L30
"File: Main.c        Assembler  Version HGASM0202      Page 4

 541  0052              _L9:
 549  0052              #line 549 "c:\users\tech\desktop\gasdetector\Main.c"
 549  0052  379F        	clr [31].7
 549  0053  2800     R  	jmp _L27
 549  0054              _L10:
 558  0054              #line 558 "c:\users\tech\desktop\gasdetector\Main.c"
 558  0054  379F        	clr [31].7
 558  0055              _L23:
 559  0055              #line 559 "c:\users\tech\desktop\gasdetector\Main.c"
 559  0055  3423        	clr [35].0
 560  0056              #line 560 "c:\users\tech\desktop\gasdetector\Main.c"
 560  0056  361F        	clr [31].4
 561  0057              #line 561 "c:\users\tech\desktop\gasdetector\Main.c"
 561  0057  3394        	set [20].7
 562  0058              #line 562 "c:\users\tech\desktop\gasdetector\Main.c"
 562  0058  331F        	set [31].6
 563  0059              #line 563 "c:\users\tech\desktop\gasdetector\Main.c"
 563  0059  30A3        	set [35].1
 563  005A  2800     R  	jmp _L21
 563  005B              _L11:
 567  005B              #line 567 "c:\users\tech\desktop\gasdetector\Main.c"
 567  005B  379F        	clr [31].7
 568  005C              #line 568 "c:\users\tech\desktop\gasdetector\Main.c"
 568  005C  3423        	clr [35].0
 568  005D  2800     R  	jmp _L28
 568  005E              _L12:
 576  005E              #line 576 "c:\users\tech\desktop\gasdetector\Main.c"
 576  005E  379F        	clr [31].7
 577  005F              #line 577 "c:\users\tech\desktop\gasdetector\Main.c"
 577  005F  3423        	clr [35].0
 577  0060              _L30:
 578  0060              #line 578 "c:\users\tech\desktop\gasdetector\Main.c"
 578  0060  361F        	clr [31].4
 579  0061              #line 579 "c:\users\tech\desktop\gasdetector\Main.c"
 579  0061  3794        	clr [20].7
 579  0062              _L29:
 580  0062              #line 580 "c:\users\tech\desktop\gasdetector\Main.c"
 580  0062  331F        	set [31].6
 580  0063  2800     R  	jmp _L26
 580  0064              _L14:
 586  0064              #line 586 "c:\users\tech\desktop\gasdetector\Main.c"
 586  0064  339F        	set [31].7
 586  0065              _L27:
 587  0065              #line 587 "c:\users\tech\desktop\gasdetector\Main.c"
 587  0065  3023        	set [35].0
 587  0066              _L28:
 588  0066              #line 588 "c:\users\tech\desktop\gasdetector\Main.c"
 588  0066  361F        	clr [31].4
 589  0067              #line 589 "c:\users\tech\desktop\gasdetector\Main.c"
 589  0067  3794        	clr [20].7
 590  0068              #line 590 "c:\users\tech\desktop\gasdetector\Main.c"
 590  0068  371F        	clr [31].6
 590  0069              _L26:
 591  0069              #line 591 "c:\users\tech\desktop\gasdetector\Main.c"
 591  0069  34A3        	clr [35].1
 591  006A  2800     R  	jmp _L20
 591  006B              _L15:
 595  006B              #line 595 "c:\users\tech\desktop\gasdetector\Main.c"
 595  006B  339F        	set [31].7
 596  006C              #line 596 "c:\users\tech\desktop\gasdetector\Main.c"
"File: Main.c        Assembler  Version HGASM0202      Page 5

 596  006C  3023        	set [35].0
 597  006D              #line 597 "c:\users\tech\desktop\gasdetector\Main.c"
 597  006D  321F        	set [31].4
 597  006E              _L19:
 598  006E              #line 598 "c:\users\tech\desktop\gasdetector\Main.c"
 598  006E  3794        	clr [20].7
 599  006F              #line 599 "c:\users\tech\desktop\gasdetector\Main.c"
 599  006F  371F        	clr [31].6
 600  0070              #line 600 "c:\users\tech\desktop\gasdetector\Main.c"
 600  0070  34A3        	clr [35].1
 600  0071              _L21:
 601  0071              #line 601 "c:\users\tech\desktop\gasdetector\Main.c"
 601  0071  319F        	set [31].3
 602  0072              #line 602 "c:\users\tech\desktop\gasdetector\Main.c"
 602  0072  2800     R  	jmp _L1
 602  0073              _L16:
 604  0073              #line 604 "c:\users\tech\desktop\gasdetector\Main.c"
 604  0073  339F        	set [31].7
 605  0074              #line 605 "c:\users\tech\desktop\gasdetector\Main.c"
 605  0074  3023        	set [35].0
 606  0075              #line 606 "c:\users\tech\desktop\gasdetector\Main.c"
 606  0075  361F        	clr [31].4
 607  0076              #line 607 "c:\users\tech\desktop\gasdetector\Main.c"
 607  0076  3394        	set [20].7
 607  0077  2800     R  	jmp _L24
 607  0078              _L25:
 616  0078              #line 616 "c:\users\tech\desktop\gasdetector\Main.c"
 616  0078  3794        	clr [20].7
 616  0079              _L24:
 617  0079              #line 617 "c:\users\tech\desktop\gasdetector\Main.c"
 617  0079  371F        	clr [31].6
 617  007A  2800     R  	jmp _L18
 617  007B              _L13:
 622  007B              #line 622 "c:\users\tech\desktop\gasdetector\Main.c"
 622  007B  339F        	set [31].7
 623  007C              #line 623 "c:\users\tech\desktop\gasdetector\Main.c"
 623  007C  3023        	set [35].0
 624  007D              #line 624 "c:\users\tech\desktop\gasdetector\Main.c"
 624  007D  321F        	set [31].4
 625  007E              #line 625 "c:\users\tech\desktop\gasdetector\Main.c"
 625  007E  3394        	set [20].7
 625  007F              _L22:
 626  007F              #line 626 "c:\users\tech\desktop\gasdetector\Main.c"
 626  007F  331F        	set [31].6
 626  0080              _L18:
 627  0080              #line 627 "c:\users\tech\desktop\gasdetector\Main.c"
 627  0080  30A3        	set [35].1
 627  0081              _L20:
 628  0081              #line 628 "c:\users\tech\desktop\gasdetector\Main.c"
 628  0081  359F        	clr [31].3
 628  0082              _L1:
 628  0082  0003        	ret
 628  0083              _SEGMENT_number endp
 628  0083              #line 628 "c:\users\tech\desktop\gasdetector\Main.c"
 628  0083              #pragma debug scope 1 1
 628  0083              ___scc equ [16]
 628  0083              ___wdtc equ [25]
 628  0083              ___lvrc equ [12]
 628  0083              ___lvpuc equ [24]
 628  0083              ___pac equ [21]
"File: Main.c        Assembler  Version HGASM0202      Page 6

 628  0083              ___pbc equ [28]
 628  0083              ___pcc equ [32]
 628  0083              ___pdc equ [36]
 628  0083              ___pas1 equ [86]
 628  0083              ___pas0 equ [85]
 628  0083              ___pbs1 equ [88]
 628  0083              ___pbs0 equ [87]
 628  0083              ___pcs1 equ [90]
 628  0083              ___pcs0 equ [89]
 628  0083              ___pds0 equ [91]
 628  0083              ___pbpu equ [29]
 628  0083              ___tb0c equ [76]
 628  0083              ___pscr equ [75]
 628  0083              ___intc1 equ [80]
 628  0083              ___tb1c equ [77]
 628  0083              ___sadc1 equ [42]
 628  0083              ___sadc0 equ [41]
 628  0083              ___pb equ [27]
 628  0083              ___sadoh equ [40]
 628  0083              ___sadol equ [39]
 628  0083              public _main
 628  0083              #pragma debug scope 3 1
  49  0083              #line 49 "c:\users\tech\desktop\gasdetector\Main.c"
  49  0083              IFDEF WITH_DEFAULT_STARTUP
  49  0083              extern _main_initial0:near
  49  0083              extern _main_startup:near
  49  0083              ENDIF
  49  0083              
  49  0083              ROMBANK 0 @start
  49  0000              @start .section com_l 'code'
  49  0000              _main_startup1:
  49  0000              @start .section com_e 'code'
  49  0000  2800     R  	jmp _main
  49  0001              
  49  0000              _main .section 'code'
  49  0000              _main proc
  49  0000  0007[           local _main_2 db 7 dup(?)
            00
            ]
  53  0007              #line 53 "c:\users\tech\desktop\gasdetector\Main.c"
  53  0000  3690        	clr [16].5
  54  0001              #line 54 "c:\users\tech\desktop\gasdetector\Main.c"
  54  0001  3710        	clr [16].6
  55  0002              #line 55 "c:\users\tech\desktop\gasdetector\Main.c"
  55  0002  3790        	clr [16].7
  57  0003              #line 57 "c:\users\tech\desktop\gasdetector\Main.c"
  57  0003  3510        	clr [16].2
  59  0004              #line 59 "c:\users\tech\desktop\gasdetector\Main.c"
  59  0004  3010        	set [16].0
  61  0005              #line 61 "c:\users\tech\desktop\gasdetector\Main.c"
  61  0005  0FAF        	mov a,175
  61  0006  0099        	mov [25],a
  63  0007              #line 63 "c:\users\tech\desktop\gasdetector\Main.c"
  63  0007  0FA5        	mov a,165
  63  0008  008C        	mov [12],a
  67  0009              #line 67 "c:\users\tech\desktop\gasdetector\Main.c"
  67  0009  3418        	clr [24].0
  69  000A              #line 69 "c:\users\tech\desktop\gasdetector\Main.c"
  69  000A  0F69        	mov a,105
  69  000B  0695        	andm a,[21]
"File: Main.c        Assembler  Version HGASM0202      Page 7

  70  000C              #line 70 "c:\users\tech\desktop\gasdetector\Main.c"
  70  000C  0F06        	mov a,6
  70  000D  0595        	orm a,[21]
  72  000E              #line 72 "c:\users\tech\desktop\gasdetector\Main.c"
  72  000E  071C        	mov a,[28]
  72  000F  0080     E  	mov ra,a
  72  0010  1F1C        	clr [28]
  73  0011              #line 73 "c:\users\tech\desktop\gasdetector\Main.c"
  73  0011  0F0B        	mov a,11
  73  0012  059C        	orm a,[28]
  75  0013              #line 75 "c:\users\tech\desktop\gasdetector\Main.c"
  75  0013  0720        	mov a,[32]
  75  0014  0080     E  	mov ra,a
  75  0015  1F20        	clr [32]
  78  0016              #line 78 "c:\users\tech\desktop\gasdetector\Main.c"
  78  0016  0724        	mov a,[36]
  78  0017  0080     E  	mov ra,a
  78  0018  1F24        	clr [36]
  81  0019              #line 81 "c:\users\tech\desktop\gasdetector\Main.c"
  81  0019  1F56        	clr [86]
  82  001A              #line 82 "c:\users\tech\desktop\gasdetector\Main.c"
  82  001A  0F08        	mov a,8
  82  001B  00D5        	mov [85],a
  84  001C              #line 84 "c:\users\tech\desktop\gasdetector\Main.c"
  84  001C  1F58        	clr [88]
  85  001D              #line 85 "c:\users\tech\desktop\gasdetector\Main.c"
  85  001D  0F0A        	mov a,10
  85  001E  00D7        	mov [87],a
  87  001F              #line 87 "c:\users\tech\desktop\gasdetector\Main.c"
  87  001F  1F5A        	clr [90]
  88  0020              #line 88 "c:\users\tech\desktop\gasdetector\Main.c"
  88  0020  1F59        	clr [89]
  90  0021              #line 90 "c:\users\tech\desktop\gasdetector\Main.c"
  90  0021  1F5B        	clr [91]
  92  0022              #line 92 "c:\users\tech\desktop\gasdetector\Main.c"
  92  0022  319D        	set [29].3
  96  0023              #line 96 "c:\users\tech\desktop\gasdetector\Main.c"
  96  0023  33CC        	set [76].7
  98  0024              #line 98 "c:\users\tech\desktop\gasdetector\Main.c"
  98  0024  304B        	set [75].0
  99  0025              #line 99 "c:\users\tech\desktop\gasdetector\Main.c"
  99  0025  30CB        	set [75].1
 101  0026              #line 101 "c:\users\tech\desktop\gasdetector\Main.c"
 101  0026  304C        	set [76].0
 102  0027              #line 102 "c:\users\tech\desktop\gasdetector\Main.c"
 102  0027  34CC        	clr [76].1
 103  0028              #line 103 "c:\users\tech\desktop\gasdetector\Main.c"
 103  0028  354C        	clr [76].2
 105  0029              #line 105 "c:\users\tech\desktop\gasdetector\Main.c"
 105  0029  3150        	set [80].2
 107  002A              #line 107 "c:\users\tech\desktop\gasdetector\Main.c"
 107  002A  33CD        	set [77].7
 109  002B              #line 109 "c:\users\tech\desktop\gasdetector\Main.c"
 109  002B  304D        	set [77].0
 110  002C              #line 110 "c:\users\tech\desktop\gasdetector\Main.c"
 110  002C  30CD        	set [77].1
 111  002D              #line 111 "c:\users\tech\desktop\gasdetector\Main.c"
 111  002D  314D        	set [77].2
 113  002E              #line 113 "c:\users\tech\desktop\gasdetector\Main.c"
 113  002E  31D0        	set [80].3
"File: Main.c        Assembler  Version HGASM0202      Page 8

 118  002F              #line 118 "c:\users\tech\desktop\gasdetector\Main.c"
 118  002F  352A        	clr [42].2
 119  0030              #line 119 "c:\users\tech\desktop\gasdetector\Main.c"
 119  0030  30AA        	set [42].1
 120  0031              #line 120 "c:\users\tech\desktop\gasdetector\Main.c"
 120  0031  302A        	set [42].0
 123  0032              #line 123 "c:\users\tech\desktop\gasdetector\Main.c"
 123  0032  32A9        	set [41].5
 125  0033              #line 125 "c:\users\tech\desktop\gasdetector\Main.c"
 125  0033  3229        	set [41].4
 128  0034              #line 128 "c:\users\tech\desktop\gasdetector\Main.c"
 128  0034  36AA        	clr [42].5
 129  0035              #line 129 "c:\users\tech\desktop\gasdetector\Main.c"
 129  0035  372A        	clr [42].6
 130  0036              #line 130 "c:\users\tech\desktop\gasdetector\Main.c"
 130  0036  37AA        	clr [42].7
 133  0037              #line 133 "c:\users\tech\desktop\gasdetector\Main.c"
 133  0037  31AA        	set [42].3
 134  0038              #line 134 "c:\users\tech\desktop\gasdetector\Main.c"
 134  0038  362A        	clr [42].4
 138  0039              #line 138 "c:\users\tech\desktop\gasdetector\Main.c"
 138  0039  32A9        	set [41].5
 141  003A              #line 141 "c:\users\tech\desktop\gasdetector\Main.c"
 141  003A  3429        	clr [41].0
 142  003B              #line 142 "c:\users\tech\desktop\gasdetector\Main.c"
 142  003B  34A9        	clr [41].1
 143  003C              #line 143 "c:\users\tech\desktop\gasdetector\Main.c"
 143  003C  3529        	clr [41].2
 144  003D              #line 144 "c:\users\tech\desktop\gasdetector\Main.c"
 144  003D  35A9        	clr [41].3
 147  003E              #line 147 "c:\users\tech\desktop\gasdetector\Main.c"
 147  003E  329B        	set [27].5
 148  003F              #line 148 "c:\users\tech\desktop\gasdetector\Main.c"
 148  003F  331B        	set [27].6
 149  0040              #line 149 "c:\users\tech\desktop\gasdetector\Main.c"
 149  0040  339B        	set [27].7
 150  0041              #line 150 "c:\users\tech\desktop\gasdetector\Main.c"
 150  0041  321B        	set [27].4
 151  0042              #line 151 "c:\users\tech\desktop\gasdetector\Main.c"
 151  0042  379F        	clr [31].7
 152  0043              #line 152 "c:\users\tech\desktop\gasdetector\Main.c"
 152  0043  3423        	clr [35].0
 153  0044              #line 153 "c:\users\tech\desktop\gasdetector\Main.c"
 153  0044  361F        	clr [31].4
 154  0045              #line 154 "c:\users\tech\desktop\gasdetector\Main.c"
 154  0045  3794        	clr [20].7
 155  0046              #line 155 "c:\users\tech\desktop\gasdetector\Main.c"
 155  0046  371F        	clr [31].6
 156  0047              #line 156 "c:\users\tech\desktop\gasdetector\Main.c"
 156  0047  34A3        	clr [35].1
 157  0048              #line 157 "c:\users\tech\desktop\gasdetector\Main.c"
 157  0048  359F        	clr [31].3
 159  0049              #line 159 "c:\users\tech\desktop\gasdetector\Main.c"
 159  0049  3429        	clr [41].0
 160  004A              #line 160 "c:\users\tech\desktop\gasdetector\Main.c"
 160  004A  34A9        	clr [41].1
 161  004B              #line 161 "c:\users\tech\desktop\gasdetector\Main.c"
 161  004B  3529        	clr [41].2
 162  004C              #line 162 "c:\users\tech\desktop\gasdetector\Main.c"
 162  004C  35A9        	clr [41].3
"File: Main.c        Assembler  Version HGASM0202      Page 9

 164  004D              #line 164 "c:\users\tech\desktop\gasdetector\Main.c"
 164  004D  3614        	clr [20].4
 165  004E              #line 165 "c:\users\tech\desktop\gasdetector\Main.c"
 165  004E  341F        	clr [31].0
 166  004F              #line 166 "c:\users\tech\desktop\gasdetector\Main.c"
 166  004F  349F        	clr [31].1
 167  0050              #line 167 "c:\users\tech\desktop\gasdetector\Main.c"
 167  0050  351F        	clr [31].2
 168  0051              #line 168 "c:\users\tech\desktop\gasdetector\Main.c"
 168  0051  311B        	set [27].2
 168  0052  0700     R  	mov a,_delay[0]
 168  0053  0080     E  	mov rd,a
 168  0054  0700     R  	mov a,_delay[1]
 168  0055  0080     E  	mov re,a
 168  0056  0700     R  	mov a,_delay[2]
 168  0057  0080     E  	mov rf,a
 168  0058  0700     R  	mov a,_delay[3]
 168  0059  0080     E  	mov rg,a
 168  005A              _L33:
 170  005A              #line 170 "c:\users\tech\desktop\gasdetector\Main.c"
 170  005A  0F9F        	mov a,159
 170  005B  0200     E  	sub a,rd
 170  005C  0F86        	mov a,134
 170  005D  1200     E  	sbc a,re
 170  005E  0F01        	mov a,1
 170  005F  1200     E  	sbc a,rf
 170  0060  0F00        	mov a,0
 170  0061  1200     E  	sbc a,rg
 170  0062  380A        	snz c
 170  0063  2800     R  	jmp _L115
 172  0064              #line 172 "c:\users\tech\desktop\gasdetector\Main.c"
 172  0064  0F01        	mov a,1
 172  0065  0380     E  	addm a,rd
 172  0066  0F00        	mov a,0
 172  0067  1380     E  	adcm a,re
 172  0068  1380     E  	adcm a,rf
 172  0069  1380     E  	adcm a,rg
 172  006A  2800     R  	jmp _L33
 172  006B              _L115:
 175  006B              #line 175 "c:\users\tech\desktop\gasdetector\Main.c"
 175  006B  1F00     R  	clr _delay[0]
 175  006C  1F00     R  	clr _delay[1]
 175  006D  1F00     R  	clr _delay[2]
 175  006E  1F00     R  	clr _delay[3]
 177  006F              #line 177 "c:\users\tech\desktop\gasdetector\Main.c"
 177  006F  301F        	set [31].0
 177  0070              _L78:
 182  0070              #line 182 "c:\users\tech\desktop\gasdetector\Main.c"
 182  0070  111B        	swapa [27]
 182  0071  1885        	rl acc
 182  0072  0E1F        	and a,1fh
 182  0073  0080     E  	mov rb,a
 182  0074  0F01        	mov a,1
 182  0075  0480     E  	xorm a,rb
 182  0076  1F00     E  	clr rc
 182  0077  0F01        	mov a,1  
 182  0078  0680     E  	andm a,rb  
 182  0079  0F00        	mov a,0  
 182  007A  0680     E  	andm a,rc
 182  007B              	;
"File: Main.c        Assembler  Version HGASM0202      Page 10

 182  007B  3400     R  	clr _PB
 182  007C  3C00     E  	sz rb.0
 182  007D  3000     R  	set _PB
 184  007E              #line 184 "c:\users\tech\desktop\gasdetector\Main.c"
 184  007E  3C00     R  	sz _fire_gas
 184  007F  2800     R  	jmp _L35
 184  0080  3800     E  	snz rb.0
 184  0081  2800     R  	jmp _L36
 184  0082              _L35:
 186  0082              #line 186 "c:\users\tech\desktop\gasdetector\Main.c"
 186  0082  3214        	set [20].4
 187  0083              #line 187 "c:\users\tech\desktop\gasdetector\Main.c"
 187  0083  309F        	set [31].1
 188  0084              #line 188 "c:\users\tech\desktop\gasdetector\Main.c"
 188  0084  311B        	set [27].2
 188  0085  2800     R  	jmp _L37
 188  0086              _L36:
 192  0086              #line 192 "c:\users\tech\desktop\gasdetector\Main.c"
 192  0086  3614        	clr [20].4
 193  0087              #line 193 "c:\users\tech\desktop\gasdetector\Main.c"
 193  0087  349F        	clr [31].1
 194  0088              #line 194 "c:\users\tech\desktop\gasdetector\Main.c"
 194  0088  351B        	clr [27].2
 194  0089              _L37:
 197  0089              #line 197 "c:\users\tech\desktop\gasdetector\Main.c"
 197  0089  3C00     R  	sz _falt_BAT
 197  008A  2800     R  	jmp _L38
 197  008B  3C00     R  	sz _falt_gas
 197  008C  2800     R  	jmp _L38
 197  008D  3800     R  	snz _PB
 197  008E  2800     R  	jmp _L39
 197  008F              _L38:
 199  008F              #line 199 "c:\users\tech\desktop\gasdetector\Main.c"
 199  008F  311F        	set [31].2
 199  0090  2800     R  	jmp _L40
 199  0091              _L39:
 203  0091              #line 203 "c:\users\tech\desktop\gasdetector\Main.c"
 203  0091  351F        	clr [31].2
 203  0092              _L40:
 206  0092              #line 206 "c:\users\tech\desktop\gasdetector\Main.c"
 206  0092  0FFA        	mov a,250
 206  0093  0200     R  	sub a,_adc_GAS[0]
 206  0094  0F00        	mov a,0
 206  0095  1200     R  	sbc a,_adc_GAS[1]
 206  0096  3C0A        	sz c
 206  0097  2800     R  	jmp _L41
 208  0098              #line 208 "c:\users\tech\desktop\gasdetector\Main.c"
 208  0098  3000     R  	set _fire_gas
 208  0099  2800     R  	jmp _L42
 208  009A              _L41:
 212  009A              #line 212 "c:\users\tech\desktop\gasdetector\Main.c"
 212  009A  3400     R  	clr _fire_gas
 212  009B              _L42:
 215  009B              #line 215 "c:\users\tech\desktop\gasdetector\Main.c"
 215  009B  0F09        	mov a,9
 215  009C  0200     R  	sub a,_GAS_ERR[0]
 215  009D  0F00        	mov a,0
 215  009E  1200     R  	sbc a,_GAS_ERR[1]
 215  009F  380A        	snz c
 215  00A0  2800     R  	jmp _L43
"File: Main.c        Assembler  Version HGASM0202      Page 11

 217  00A1              #line 217 "c:\users\tech\desktop\gasdetector\Main.c"
 217  00A1  3000     R  	set _falt_gas
 217  00A2  2800     R  	jmp _L44
 217  00A3              _L43:
 221  00A3              #line 221 "c:\users\tech\desktop\gasdetector\Main.c"
 221  00A3  3400     R  	clr _falt_gas
 221  00A4              _L44:
 224  00A4              #line 224 "c:\users\tech\desktop\gasdetector\Main.c"
 224  00A4  0700     R  	mov a,_BAT_ADC[0]
 224  00A5  0080     E  	mov rb,a
 224  00A6  0700     R  	mov a,_BAT_ADC[1]
 224  00A7  0080     E  	mov rc,a
 224  00A8  0FAA        	mov a,170
 224  00A9  0300     E  	add a,rb
 224  00AA  0080     E  	mov rd,a
 224  00AB  0FFD        	mov a,253
 224  00AC  1300     E  	adc a,rc
 224  00AD  0080     E  	mov re,a
 224  00AE  0F63        	mov a,99
 224  00AF  0200     E  	sub a,rd
 224  00B0  0F01        	mov a,1
 224  00B1  1200     E  	sbc a,re
 224  00B2  3C0A        	sz c
 224  00B3  2800     R  	jmp _L45
 226  00B4              #line 226 "c:\users\tech\desktop\gasdetector\Main.c"
 226  00B4  3000     R  	set _falt_BAT
 227  00B5              #line 227 "c:\users\tech\desktop\gasdetector\Main.c"
 227  00B5  0F65        	mov a,101
 227  00B6  0080     R  	mov _BAT[0],a
 228  00B7              #line 228 "c:\users\tech\desktop\gasdetector\Main.c"
 228  00B7  1F00     R  	clr _BAT_ADC_D[0]
 228  00B8  1F00     R  	clr _BAT_ADC_D[1]
 228  00B9  2800     R  	jmp _L46
 228  00BA              _L45:
 232  00BA              #line 232 "c:\users\tech\desktop\gasdetector\Main.c"
 232  00BA  3400     R  	clr _falt_BAT
 232  00BB              _L46:
 235  00BB              #line 235 "c:\users\tech\desktop\gasdetector\Main.c"
 235  00BB  0FC5        	mov a,197
 235  00BC  0300     E  	add a,rb
 235  00BD  0080     E  	mov rd,a
 235  00BE  0FFD        	mov a,253
 235  00BF  1300     E  	adc a,rc
 235  00C0  0080     E  	mov re,a
 235  00C1  0F2A        	mov a,42
 235  00C2  0200     E  	sub a,rd
 235  00C3  0F00        	mov a,0
 235  00C4  1200     E  	sbc a,re
 235  00C5  380A        	snz c
 235  00C6  2800     R  	jmp _L47
 237  00C7              #line 237 "c:\users\tech\desktop\gasdetector\Main.c"
 237  00C7  0F03        	mov a,3
 237  00C8  0080     R  	mov _BAT[0],a
 238  00C9              #line 238 "c:\users\tech\desktop\gasdetector\Main.c"
 238  00C9  3000     R  	set _falt_BAT
 238  00CA  2800     R  	jmp _L48
 238  00CB              _L47:
 240  00CB              #line 240 "c:\users\tech\desktop\gasdetector\Main.c"
 240  00CB  0FA3        	mov a,163
 240  00CC  0200     E  	sub a,rb
"File: Main.c        Assembler  Version HGASM0202      Page 12

 240  00CD  0F02        	mov a,2
 240  00CE  1200     E  	sbc a,rc
 240  00CF  380A        	snz c
 240  00D0  2800     R  	jmp _L49
 242  00D1              #line 242 "c:\users\tech\desktop\gasdetector\Main.c"
 242  00D1  0F01        	mov a,1
 242  00D2  0080     R  	mov _BAT[0],a
 243  00D3              #line 243 "c:\users\tech\desktop\gasdetector\Main.c"
 243  00D3  0F14        	mov a,20
 243  00D4  0080     R  	mov _BAT_ADC_D[0],a
 243  00D5  1F00     R  	clr _BAT_ADC_D[1]
 243  00D6  2800     R  	jmp _L48
 243  00D7              _L49:
 245  00D7              #line 245 "c:\users\tech\desktop\gasdetector\Main.c"
 245  00D7  0FE0        	mov a,224
 245  00D8  0200     E  	sub a,rb
 245  00D9  0F02        	mov a,2
 245  00DA  1200     E  	sbc a,rc
 245  00DB  380A        	snz c
 245  00DC  2800     R  	jmp _L50
 247  00DD              #line 247 "c:\users\tech\desktop\gasdetector\Main.c"
 247  00DD  0F01        	mov a,1
 247  00DE  0080     R  	mov _BAT[0],a
 248  00DF              #line 248 "c:\users\tech\desktop\gasdetector\Main.c"
 248  00DF  0F28        	mov a,40
 248  00E0  0080     R  	mov _BAT_ADC_D[0],a
 248  00E1  1F00     R  	clr _BAT_ADC_D[1]
 248  00E2  2800     R  	jmp _L48
 248  00E3              _L50:
 250  00E3              #line 250 "c:\users\tech\desktop\gasdetector\Main.c"
 250  00E3  0FF5        	mov a,245
 250  00E4  0200     E  	sub a,rb
 250  00E5  0F02        	mov a,2
 250  00E6  1200     E  	sbc a,rc
 250  00E7  380A        	snz c
 250  00E8  2800     R  	jmp _L51
 252  00E9              #line 252 "c:\users\tech\desktop\gasdetector\Main.c"
 252  00E9  0F01        	mov a,1
 252  00EA  0080     R  	mov _BAT[0],a
 253  00EB              #line 253 "c:\users\tech\desktop\gasdetector\Main.c"
 253  00EB  0F3C        	mov a,60
 253  00EC  0080     R  	mov _BAT_ADC_D[0],a
 253  00ED  1F00     R  	clr _BAT_ADC_D[1]
 253  00EE  2800     R  	jmp _L48
 253  00EF              _L51:
 255  00EF              #line 255 "c:\users\tech\desktop\gasdetector\Main.c"
 255  00EF  0F28        	mov a,40
 255  00F0  0200     E  	sub a,rb
 255  00F1  0F03        	mov a,3
 255  00F2  1200     E  	sbc a,rc
 255  00F3  380A        	snz c
 255  00F4  2800     R  	jmp _L52
 257  00F5              #line 257 "c:\users\tech\desktop\gasdetector\Main.c"
 257  00F5  0F01        	mov a,1
 257  00F6  0080     R  	mov _BAT[0],a
 258  00F7              #line 258 "c:\users\tech\desktop\gasdetector\Main.c"
 258  00F7  0F50        	mov a,80
 258  00F8  0080     R  	mov _BAT_ADC_D[0],a
 258  00F9  1F00     R  	clr _BAT_ADC_D[1]
 258  00FA  2800     R  	jmp _L48
"File: Main.c        Assembler  Version HGASM0202      Page 13

 258  00FB              _L52:
 260  00FB              #line 260 "c:\users\tech\desktop\gasdetector\Main.c"
 260  00FB  0FAB        	mov a,171
 260  00FC  0200     E  	sub a,rb
 260  00FD  0F03        	mov a,3
 260  00FE  1200     E  	sbc a,rc
 260  00FF  380A        	snz c
 260  0100  2800     R  	jmp _L48
 262  0101              #line 262 "c:\users\tech\desktop\gasdetector\Main.c"
 262  0101  0F01        	mov a,1
 262  0102  0080     R  	mov _BAT[0],a
 263  0103              #line 263 "c:\users\tech\desktop\gasdetector\Main.c"
 263  0103  0F64        	mov a,100
 263  0104  0080     R  	mov _BAT_ADC_D[0],a
 263  0105  1F00     R  	clr _BAT_ADC_D[1]
 263  0106              _L48:
 268  0106              #line 268 "c:\users\tech\desktop\gasdetector\Main.c"
 268  0106  3BD0        	snz [80].7
 268  0107  2800     R  	jmp _L53
 271  0108              #line 271 "c:\users\tech\desktop\gasdetector\Main.c"
 271  0108  37D0        	clr [80].7
 271  0109              _L53:
 276  0109              #line 276 "c:\users\tech\desktop\gasdetector\Main.c"
 276  0109  3B50        	snz [80].6
 276  010A  2800     R  	jmp _L54
 279  010B              #line 279 "c:\users\tech\desktop\gasdetector\Main.c"
 279  010B  3750        	clr [80].6
 281  010C              #line 281 "c:\users\tech\desktop\gasdetector\Main.c"
 281  010C  0700     R  	mov a,_SEG[0]
 281  010D  0A00        	sub a,0
 281  010E  3D0A        	sz z
 281  010F  2800     R  	jmp _L56
 281  0110  0A01        	sub a,(1)-(0)
 281  0111  3D0A        	sz z
 281  0112  2800     R  	jmp _L57
 281  0113  0700     R  	mov a,_SEG[0]
 281  0114  0A03        	sub a,3
 281  0115  3D0A        	sz z
 281  0116  2800     R  	jmp _L58
 281  0117  0A02        	sub a,(5)-(3)
 281  0118  3D0A        	sz z
 281  0119  2800     R  	jmp _L59
 281  011A  0700     R  	mov a,_SEG[0]
 281  011B  0A07        	sub a,7
 281  011C  390A        	snz z
 281  011D  2800     R  	jmp _L55
 281  011E  2800     R  	jmp _L116
 281  011F              _L56:
 286  011F              #line 286 "c:\users\tech\desktop\gasdetector\Main.c"
 286  011F  3C00     R  	sz _PB
 286  0120  2800     R  	jmp _L61
 288  0121              #line 288 "c:\users\tech\desktop\gasdetector\Main.c"
 288  0121  0700     R  	mov a,_adc_GAS[0]
 288  0122  0080     R  	mov _disply[0],a
 288  0123  0700     R  	mov a,_adc_GAS[1]
 288  0124  0080     R  	mov _disply[1],a
 289  0125              #line 289 "c:\users\tech\desktop\gasdetector\Main.c"
 289  0125  3400     R  	clr _disply_bat
 289  0126  2800     R  	jmp _L55
 289  0127              _L61:
"File: Main.c        Assembler  Version HGASM0202      Page 14

 293  0127              #line 293 "c:\users\tech\desktop\gasdetector\Main.c"
 293  0127  0700     R  	mov a,_BAT_ADC_D[0]
 293  0128  0080     R  	mov _disply[0],a
 293  0129  0700     R  	mov a,_BAT_ADC_D[1]
 293  012A  0080     R  	mov _disply[1],a
 294  012B              #line 294 "c:\users\tech\desktop\gasdetector\Main.c"
 294  012B  3000     R  	set _disply_bat
 294  012C  2800     R  	jmp _L55
 294  012D              _L57:
 302  012D              #line 302 "c:\users\tech\desktop\gasdetector\Main.c"
 302  012D  3C00     R  	sz _disply_bat
 302  012E  2800     R  	jmp _L62
 304  012F              #line 304 "c:\users\tech\desktop\gasdetector\Main.c"
 304  012F  1F00     E  	clr _builtin_holtek_udivmodhi4_2[6]
 304  0130  0700     R  	mov a,_disply[0]  
 304  0131  0080     E  	mov _builtin_holtek_udivmodhi4_2[0],a  
 304  0132  0700     R  	mov a,_disply[1]  
 304  0133  0080     E  	mov _builtin_holtek_udivmodhi4_2[1],a
 304  0134  0FE8        	mov a,232  
 304  0135  0080     E  	mov _builtin_holtek_udivmodhi4_2[2],a  
 304  0136  0F03        	mov a,3  
 304  0137  0080     E  	mov _builtin_holtek_udivmodhi4_2[3],a
 304  0138  2000     E  	call _builtin_holtek_udivmodhi4
 304  0139  0700     E  	mov a,_builtin_holtek_udivmodhi4_2[0]  
 304  013A  0080     E  	mov rb,a  
 304  013B  0700     E  	mov a,_builtin_holtek_udivmodhi4_2[1]  
 304  013C  0080     E  	mov rc,a
 304  013D  0700     E  	mov a,rb
 304  013E  0080     R  	mov _Digit[6],a
 304  013F  0700     E  	mov a,rc
 304  0140  0080     R  	mov _Digit[7],a
 305  0141              #line 305 "c:\users\tech\desktop\gasdetector\Main.c"
 305  0141  0700     E  	mov a,rb
 305  0142  2800     R  	jmp _L107
 305  0143              _L62:
 309  0143              #line 309 "c:\users\tech\desktop\gasdetector\Main.c"
 309  0143  0F62        	mov a,98
 309  0144  0080     R  	mov _Digit[6],a
 309  0145  1F00     R  	clr _Digit[7]
 310  0146              #line 310 "c:\users\tech\desktop\gasdetector\Main.c"
 310  0146  0F62        	mov a,98
 310  0147              _L107:
 310  0147  2000     R  	call _SEGMENT_number
 312  0148              #line 312 "c:\users\tech\desktop\gasdetector\Main.c"
 312  0148  329B        	set [27].5
 313  0149              #line 313 "c:\users\tech\desktop\gasdetector\Main.c"
 313  0149  371B        	clr [27].6
 313  014A  2800     R  	jmp _L111
 313  014B              _L58:
 320  014B              #line 320 "c:\users\tech\desktop\gasdetector\Main.c"
 320  014B  0700     R  	mov a,_BAT[0]
 320  014C  0080     R  	mov _main_2[0],a
 320  014D  0700     R  	mov a,_main_2[0]
 320  014E  0A65        	sub a,101
 320  014F  3D0A        	sz z
 320  0150  2800     R  	jmp _L64
 320  0151  0700     R  	mov a,_main_2[0]
 320  0152  0A03        	sub a,3
 320  0153  390A        	snz z
 320  0154  2800     R  	jmp _L65
"File: Main.c        Assembler  Version HGASM0202      Page 15

 320  0155              _L64:
 320  0155  3800     R  	snz _disply_bat
 320  0156  2800     R  	jmp _L65
 322  0157              #line 322 "c:\users\tech\desktop\gasdetector\Main.c"
 322  0157  0F2D        	mov a,45
 322  0158  0080     R  	mov _Digit[4],a
 322  0159  1F00     R  	clr _Digit[5]
 323  015A              #line 323 "c:\users\tech\desktop\gasdetector\Main.c"
 323  015A  0F2D        	mov a,45
 323  015B  2800     R  	jmp _L108
 323  015C              _L65:
 323  015C  0700     R  	mov a,_disply[0]
 323  015D  0080     E  	mov rb,a
 323  015E  0700     R  	mov a,_disply[1]
 323  015F  0080     E  	mov rc,a
 327  0160              #line 327 "c:\users\tech\desktop\gasdetector\Main.c"
 327  0160  1F00     E  	clr _builtin_holtek_udivmodhi4_2[6]
 327  0161  0700     E  	mov a,rb  
 327  0162  0080     E  	mov _builtin_holtek_udivmodhi4_2[0],a  
 327  0163  0700     E  	mov a,rc  
 327  0164  0080     E  	mov _builtin_holtek_udivmodhi4_2[1],a
 327  0165  0F64        	mov a,100  
 327  0166  0080     E  	mov _builtin_holtek_udivmodhi4_2[2],a  
 327  0167  1F00     E  	clr _builtin_holtek_udivmodhi4_2[3]
 327  0168  2000     E  	call _builtin_holtek_udivmodhi4
 327  0169  0700     E  	mov a,_builtin_holtek_udivmodhi4_2[0]  
 327  016A  0080     E  	mov rb,a  
 327  016B  0700     E  	mov a,_builtin_holtek_udivmodhi4_2[1]  
 327  016C  0080     E  	mov rc,a
 325  016D              #line 325 "c:\users\tech\desktop\gasdetector\Main.c"
 325  016D  3C00     R  	sz _disply_bat
 325  016E  2800     R  	jmp _L67
 327  016F              #line 327 "c:\users\tech\desktop\gasdetector\Main.c"
 327  016F  340A        	clr c
 327  0170  1A00     R  	rlca _Digit[6]
 327  0171  0080     E  	mov rd,a
 327  0172  1A00     R  	rlca _Digit[7]
 327  0173  0080     E  	mov re,a
 327  0174  340A        	clr c
 327  0175  1A80     E  	rlc rd
 327  0176  1A80     E  	rlc re
 327  0177  0700     R  	mov a,_Digit[6]
 327  0178  0380     E  	addm a,rd
 327  0179  0700     R  	mov a,_Digit[7]
 327  017A  1380     E  	adcm a,re
 327  017B  340A        	clr c
 327  017C  1A80     E  	rlc rd
 327  017D  1A80     E  	rlc re
 327  017E  0700     E  	mov a,rb
 327  017F  0200     E  	sub a,rd
 327  0180  0080     E  	mov rb,a
 327  0181  0700     E  	mov a,rc
 327  0182  1200     E  	sbc a,re
 327  0183  0080     E  	mov rc,a
 327  0184              _L67:
 332  0184              #line 332 "c:\users\tech\desktop\gasdetector\Main.c"
 332  0184  0700     E  	mov a,rb
 332  0185  0080     R  	mov _Digit[4],a
 332  0186  0700     E  	mov a,rc
 332  0187  0080     R  	mov _Digit[5],a
"File: Main.c        Assembler  Version HGASM0202      Page 16

 333  0188              #line 333 "c:\users\tech\desktop\gasdetector\Main.c"
 333  0188  0700     E  	mov a,rb
 333  0189              _L108:
 333  0189  2000     R  	call _SEGMENT_number
 336  018A              #line 336 "c:\users\tech\desktop\gasdetector\Main.c"
 336  018A  369B        	clr [27].5
 337  018B              #line 337 "c:\users\tech\desktop\gasdetector\Main.c"
 337  018B  331B        	set [27].6
 337  018C              _L111:
 338  018C              #line 338 "c:\users\tech\desktop\gasdetector\Main.c"
 338  018C  379B        	clr [27].7
 338  018D              _L112:
 339  018D              #line 339 "c:\users\tech\desktop\gasdetector\Main.c"
 339  018D  361B        	clr [27].4
 340  018E              #line 340 "c:\users\tech\desktop\gasdetector\Main.c"
 340  018E  2800     R  	jmp _L55
 340  018F              _L59:
 343  018F              #line 343 "c:\users\tech\desktop\gasdetector\Main.c"
 343  018F  0700     R  	mov a,_BAT[0]
 343  0190  0080     R  	mov _main_2[0],a
 343  0191  0700     R  	mov a,_main_2[0]
 343  0192  0A03        	sub a,3
 343  0193  390A        	snz z
 343  0194  2800     R  	jmp _L68
 343  0195  3800     R  	snz _disply_bat
 343  0196  2800     R  	jmp _L69
 345  0197              #line 345 "c:\users\tech\desktop\gasdetector\Main.c"
 345  0197  0F6C        	mov a,108
 345  0198  0080     R  	mov _Digit[2],a
 345  0199  1F00     R  	clr _Digit[3]
 346  019A              #line 346 "c:\users\tech\desktop\gasdetector\Main.c"
 346  019A  0F6C        	mov a,108
 346  019B  2800     R  	jmp _L109
 346  019C              _L68:
 348  019C              #line 348 "c:\users\tech\desktop\gasdetector\Main.c"
 348  019C  0700     R  	mov a,_main_2[0]
 348  019D  0A65        	sub a,101
 348  019E  390A        	snz z
 348  019F  2800     R  	jmp _L69
 348  01A0  3800     R  	snz _disply_bat
 348  01A1  2800     R  	jmp _L69
 350  01A2              #line 350 "c:\users\tech\desktop\gasdetector\Main.c"
 350  01A2  0F6E        	mov a,110
 350  01A3  0080     R  	mov _Digit[2],a
 350  01A4  1F00     R  	clr _Digit[3]
 351  01A5              #line 351 "c:\users\tech\desktop\gasdetector\Main.c"
 351  01A5  0F6E        	mov a,110
 351  01A6  2800     R  	jmp _L109
 351  01A7              _L69:
 351  01A7  0700     R  	mov a,_disply[0]
 351  01A8  0080     E  	mov rb,a
 351  01A9  0700     R  	mov a,_disply[1]
 351  01AA  0080     E  	mov rc,a
 351  01AB  0700     R  	mov a,_Digit[4]
 351  01AC  0080     E  	mov rd,a
 351  01AD  0700     R  	mov a,_Digit[5]
 351  01AE  0080     E  	mov re,a
 355  01AF              #line 355 "c:\users\tech\desktop\gasdetector\Main.c"
 355  01AF  1F00     E  	clr _builtin_holtek_udivmodhi4_2[6]
 355  01B0  0700     E  	mov a,rb  
"File: Main.c        Assembler  Version HGASM0202      Page 17

 355  01B1  0080     E  	mov _builtin_holtek_udivmodhi4_2[0],a  
 355  01B2  0700     E  	mov a,rc  
 355  01B3  0080     E  	mov _builtin_holtek_udivmodhi4_2[1],a
 355  01B4  0F0A        	mov a,10  
 355  01B5  0080     E  	mov _builtin_holtek_udivmodhi4_2[2],a  
 355  01B6  1F00     E  	clr _builtin_holtek_udivmodhi4_2[3]
 355  01B7  2000     E  	call _builtin_holtek_udivmodhi4
 355  01B8  0700     E  	mov a,_builtin_holtek_udivmodhi4_2[0]  
 355  01B9  0080     E  	mov rb,a  
 355  01BA  0700     E  	mov a,_builtin_holtek_udivmodhi4_2[1]  
 355  01BB  0080     E  	mov rc,a
 353  01BC              #line 353 "c:\users\tech\desktop\gasdetector\Main.c"
 353  01BC  3C00     R  	sz _disply_bat
 353  01BD  2800     R  	jmp _L71
 355  01BE              #line 355 "c:\users\tech\desktop\gasdetector\Main.c"
 355  01BE  0700     R  	mov a,_Digit[6]  
 355  01BF  0080     E  	mov _builtin_holtek_mulhi3_2[0],a  
 355  01C0  0700     R  	mov a,_Digit[7]  
 355  01C1  0080     E  	mov _builtin_holtek_mulhi3_2[1],a
 355  01C2  0F64        	mov a,100  
 355  01C3  0080     E  	mov _builtin_holtek_mulhi3_2[2],a  
 355  01C4  1F00     E  	clr _builtin_holtek_mulhi3_2[3]
 355  01C5  2000     E  	call _builtin_holtek_mulhi3
 355  01C6  0700     E  	mov a,_builtin_holtek_mulhi3_2[4]  
 355  01C7  0080     E  	mov rf,a  
 355  01C8  0700     E  	mov a,_builtin_holtek_mulhi3_2[5]  
 355  01C9  0080     E  	mov rg,a
 355  01CA  0700     E  	mov a,rb
 355  01CB  0200     E  	sub a,rf
 355  01CC  0080     E  	mov rb,a
 355  01CD  0700     E  	mov a,rc
 355  01CE  1200     E  	sbc a,rg
 355  01CF  0080     E  	mov rc,a
 355  01D0              _L71:
 360  01D0              #line 360 "c:\users\tech\desktop\gasdetector\Main.c"
 360  01D0  340A        	clr c
 360  01D1  1A00     E  	rlca rd
 360  01D2  0080     E  	mov rf,a
 360  01D3  1A00     E  	rlca re
 360  01D4  0080     E  	mov rg,a
 360  01D5  340A        	clr c
 360  01D6  1A80     E  	rlc rf
 360  01D7  1A80     E  	rlc rg
 360  01D8  0700     E  	mov a,rf
 360  01D9  0380     E  	addm a,rd
 360  01DA  0700     E  	mov a,rg
 360  01DB  1380     E  	adcm a,re
 360  01DC  340A        	clr c
 360  01DD  1A80     E  	rlc rd
 360  01DE  1A80     E  	rlc re
 360  01DF  0700     E  	mov a,rb
 360  01E0  0200     E  	sub a,rd
 360  01E1  0080     E  	mov rb,a
 360  01E2  0700     E  	mov a,rc
 360  01E3  1200     E  	sbc a,re
 360  01E4  0080     E  	mov rc,a
 360  01E5  0700     E  	mov a,rb
 360  01E6  0080     R  	mov _Digit[2],a
 360  01E7  0700     E  	mov a,rc
 360  01E8  0080     R  	mov _Digit[3],a
"File: Main.c        Assembler  Version HGASM0202      Page 18

 361  01E9              #line 361 "c:\users\tech\desktop\gasdetector\Main.c"
 361  01E9  0700     E  	mov a,rb
 361  01EA              _L109:
 361  01EA  2000     R  	call _SEGMENT_number
 364  01EB              #line 364 "c:\users\tech\desktop\gasdetector\Main.c"
 364  01EB  369B        	clr [27].5
 365  01EC              #line 365 "c:\users\tech\desktop\gasdetector\Main.c"
 365  01EC  371B        	clr [27].6
 366  01ED              #line 366 "c:\users\tech\desktop\gasdetector\Main.c"
 366  01ED  339B        	set [27].7
 366  01EE  2800     R  	jmp _L112
 366  01EF              _L116:
 371  01EF              #line 371 "c:\users\tech\desktop\gasdetector\Main.c"
 371  01EF  0700     R  	mov a,_BAT[0]
 371  01F0  0080     R  	mov _main_2[0],a
 371  01F1  0700     R  	mov a,_main_2[0]
 371  01F2  0A65        	sub a,101
 371  01F3  3D0A        	sz z
 371  01F4  2800     R  	jmp _L72
 371  01F5  0700     R  	mov a,_main_2[0]
 371  01F6  0A03        	sub a,3
 371  01F7  390A        	snz z
 371  01F8  2800     R  	jmp _L73
 371  01F9              _L72:
 371  01F9  3800     R  	snz _disply_bat
 371  01FA  2800     R  	jmp _L73
 373  01FB              #line 373 "c:\users\tech\desktop\gasdetector\Main.c"
 373  01FB  0F6F        	mov a,111
 373  01FC  0080     R  	mov _Digit[0],a
 373  01FD  1F00     R  	clr _Digit[1]
 374  01FE              #line 374 "c:\users\tech\desktop\gasdetector\Main.c"
 374  01FE  0F6F        	mov a,111
 374  01FF  2800     R  	jmp _L110
 374  0200              _L73:
 378  0200              #line 378 "c:\users\tech\desktop\gasdetector\Main.c"
 378  0200  1F00     E  	clr _builtin_holtek_udivmodhi4_2[6]
 378  0201  0700     R  	mov a,_disply[0]  
 378  0202  0080     E  	mov _builtin_holtek_udivmodhi4_2[0],a  
 378  0203  0700     R  	mov a,_disply[1]  
 378  0204  0080     E  	mov _builtin_holtek_udivmodhi4_2[1],a
 378  0205  0F0A        	mov a,10  
 378  0206  0080     E  	mov _builtin_holtek_udivmodhi4_2[2],a  
 378  0207  1F00     E  	clr _builtin_holtek_udivmodhi4_2[3]
 378  0208  2000     E  	call _builtin_holtek_udivmodhi4
 378  0209  0700     E  	mov a,_builtin_holtek_udivmodhi4_2[4]  
 378  020A  0080     E  	mov rb,a  
 378  020B  0700     E  	mov a,_builtin_holtek_udivmodhi4_2[5]  
 378  020C  0080     E  	mov rc,a
 378  020D  0700     E  	mov a,rb
 378  020E  0080     R  	mov _Digit[0],a
 378  020F  0700     E  	mov a,rc
 378  0210  0080     R  	mov _Digit[1],a
 379  0211              #line 379 "c:\users\tech\desktop\gasdetector\Main.c"
 379  0211  0700     E  	mov a,rb
 379  0212              _L110:
 379  0212  2000     R  	call _SEGMENT_number
 382  0213              #line 382 "c:\users\tech\desktop\gasdetector\Main.c"
 382  0213  369B        	clr [27].5
 383  0214              #line 383 "c:\users\tech\desktop\gasdetector\Main.c"
 383  0214  371B        	clr [27].6
"File: Main.c        Assembler  Version HGASM0202      Page 19

 384  0215              #line 384 "c:\users\tech\desktop\gasdetector\Main.c"
 384  0215  379B        	clr [27].7
 385  0216              #line 385 "c:\users\tech\desktop\gasdetector\Main.c"
 385  0216  321B        	set [27].4
 385  0217              _L55:
 388  0217              #line 388 "c:\users\tech\desktop\gasdetector\Main.c"
 388  0217  1400     R  	inca _SEG[0]
 388  0218  0080     E  	mov ra,a
 390  0219              #line 390 "c:\users\tech\desktop\gasdetector\Main.c"
 390  0219  0F07        	mov a,7
 390  021A  0200     E  	sub a,ra
 390  021B  380A        	snz c
 390  021C  2800     R  	jmp _L75
 388  021D              #line 388 "c:\users\tech\desktop\gasdetector\Main.c"
 388  021D  0700     E  	mov a,ra
 388  021E  0080     R  	mov _SEG[0],a
 388  021F  2800     R  	jmp _L76
 388  0220              _L75:
 391  0220              #line 391 "c:\users\tech\desktop\gasdetector\Main.c"
 391  0220  1F00     R  	clr _SEG[0]
 391  0221              _L76:
 393  0221              #line 393 "c:\users\tech\desktop\gasdetector\Main.c"
 393  0221  1480     R  	inc _t1[0]
 393  0222  3D0A        	sz z
 393  0223  1480     R  	inc _t1[1]
 393  0224              _L54:
 400  0224              #line 400 "c:\users\tech\desktop\gasdetector\Main.c"
 400  0224  0F32        	mov a,50
 400  0225  0200     R  	sub a,_t1[0]
 400  0226  0F00        	mov a,0
 400  0227  1200     R  	sbc a,_t1[1]
 400  0228  3C0A        	sz c
 400  0229  2800     R  	jmp _L78
 403  022A              #line 403 "c:\users\tech\desktop\gasdetector\Main.c"
 403  022A  0700     R  	mov a,_adc[0]
 403  022B  0080     R  	mov _main_2[0],a
 403  022C  0700     R  	mov a,_main_2[0]
 403  022D  0A00        	sub a,0
 403  022E  3D0A        	sz z
 403  022F  2800     R  	jmp _L80
 403  0230  0A01        	sub a,(1)-(0)
 403  0231  3D0A        	sz z
 403  0232  2800     R  	jmp _L81
 403  0233  0700     R  	mov a,_main_2[0]
 403  0234  0A02        	sub a,2
 403  0235  3D0A        	sz z
 403  0236  2800     R  	jmp _L82
 403  0237  0A01        	sub a,(3)-(2)
 403  0238  3D0A        	sz z
 403  0239  2800     R  	jmp _L83
 403  023A  0700     R  	mov a,_main_2[0]
 403  023B  0A04        	sub a,4
 403  023C  3D0A        	sz z
 403  023D  2800     R  	jmp _L84
 403  023E  0700     R  	mov a,_main_2[0]
 403  023F  0A05        	sub a,5
 403  0240  390A        	snz z
 403  0241  2800     R  	jmp _L79
 464  0242              #line 464 "c:\users\tech\desktop\gasdetector\Main.c"
 464  0242  1F28        	clr [40]
"File: Main.c        Assembler  Version HGASM0202      Page 20

 465  0243              #line 465 "c:\users\tech\desktop\gasdetector\Main.c"
 465  0243  1F27        	clr [39]
 467  0244              #line 467 "c:\users\tech\desktop\gasdetector\Main.c"
 467  0244  37A9        	clr [41].7
 468  0245              #line 468 "c:\users\tech\desktop\gasdetector\Main.c"
 468  0245  33A9        	set [41].7
 469  0246              #line 469 "c:\users\tech\desktop\gasdetector\Main.c"
 469  0246  37A9        	clr [41].7
 471  0247              #line 471 "c:\users\tech\desktop\gasdetector\Main.c"
 471  0247  2800     R  	jmp _L91
 471  0248              _L80:
 408  0248              #line 408 "c:\users\tech\desktop\gasdetector\Main.c"
 408  0248  3029        	set [41].0
 408  0249  2800     R  	jmp _L114
 408  024A              _L81:
 416  024A              #line 416 "c:\users\tech\desktop\gasdetector\Main.c"
 416  024A  1F28        	clr [40]
 417  024B              #line 417 "c:\users\tech\desktop\gasdetector\Main.c"
 417  024B  1F27        	clr [39]
 419  024C              #line 419 "c:\users\tech\desktop\gasdetector\Main.c"
 419  024C  37A9        	clr [41].7
 420  024D              #line 420 "c:\users\tech\desktop\gasdetector\Main.c"
 420  024D  33A9        	set [41].7
 421  024E              #line 421 "c:\users\tech\desktop\gasdetector\Main.c"
 421  024E  37A9        	clr [41].7
 421  024F              _L87:
 423  024F              #line 423 "c:\users\tech\desktop\gasdetector\Main.c"
 423  024F  3B29        	snz [41].6
 423  0250  2800     R  	jmp _L87
 426  0251              #line 426 "c:\users\tech\desktop\gasdetector\Main.c"
 426  0251  3729        	clr [41].6
 428  0252              #line 428 "c:\users\tech\desktop\gasdetector\Main.c"
 428  0252  0728        	mov a,[40]
 428  0253  0080     R  	mov _main_2[2],a
 428  0254  1F00     R  	clr _main_2[1]
 428  0255  0700     R  	mov a,_main_2[2]
 428  0256  0080     E  	mov rc,a
 428  0257  0727        	mov a,[39]
 428  0258  0500     R  	or a,_main_2[1]
 428  0259  0080     E  	mov rb,a
 428  025A  0700     R  	mov a,_adc_GAS[0]
 428  025B  0380     E  	addm a,rb
 428  025C  0700     R  	mov a,_adc_GAS[1]
 428  025D  1380     E  	adcm a,rc
 428  025E  0700     E  	mov a,rb
 428  025F  0080     E  	mov rd,a
 428  0260  0700     E  	mov a,rc
 428  0261  0080     E  	mov re,a
 428  0262  340A        	clr c
 428  0263  1B80     E  	rrc re
 428  0264  1B80     E  	rrc rd
 428  0265  0700     E  	mov a,rd
 428  0266  0080     R  	mov _adc_GAS[0],a
 428  0267  0700     E  	mov a,re
 428  0268  0080     R  	mov _adc_GAS[1],a
 430  0269              #line 430 "c:\users\tech\desktop\gasdetector\Main.c"
 430  0269  2800     R  	jmp _L79
 430  026A              _L82:
 434  026A              #line 434 "c:\users\tech\desktop\gasdetector\Main.c"
 434  026A  3429        	clr [41].0
"File: Main.c        Assembler  Version HGASM0202      Page 21

 435  026B              #line 435 "c:\users\tech\desktop\gasdetector\Main.c"
 435  026B  30A9        	set [41].1
 435  026C              _L113:
 436  026C              #line 436 "c:\users\tech\desktop\gasdetector\Main.c"
 436  026C  3529        	clr [41].2
 437  026D              #line 437 "c:\users\tech\desktop\gasdetector\Main.c"
 437  026D  35A9        	clr [41].3
 438  026E              #line 438 "c:\users\tech\desktop\gasdetector\Main.c"
 438  026E  2800     R  	jmp _L79
 438  026F              _L83:
 441  026F              #line 441 "c:\users\tech\desktop\gasdetector\Main.c"
 441  026F  1F28        	clr [40]
 442  0270              #line 442 "c:\users\tech\desktop\gasdetector\Main.c"
 442  0270  1F27        	clr [39]
 444  0271              #line 444 "c:\users\tech\desktop\gasdetector\Main.c"
 444  0271  37A9        	clr [41].7
 445  0272              #line 445 "c:\users\tech\desktop\gasdetector\Main.c"
 445  0272  33A9        	set [41].7
 446  0273              #line 446 "c:\users\tech\desktop\gasdetector\Main.c"
 446  0273  37A9        	clr [41].7
 446  0274              _L89:
 448  0274              #line 448 "c:\users\tech\desktop\gasdetector\Main.c"
 448  0274  3B29        	snz [41].6
 448  0275  2800     R  	jmp _L89
 451  0276              #line 451 "c:\users\tech\desktop\gasdetector\Main.c"
 451  0276  3729        	clr [41].6
 453  0277              #line 453 "c:\users\tech\desktop\gasdetector\Main.c"
 453  0277  0728        	mov a,[40]
 453  0278  0080     R  	mov _main_2[4],a
 453  0279  1F00     R  	clr _main_2[3]
 453  027A  0700     R  	mov a,_main_2[4]
 453  027B  0080     E  	mov rc,a
 453  027C  0727        	mov a,[39]
 453  027D  0500     R  	or a,_main_2[3]
 453  027E  0080     E  	mov rb,a
 453  027F  0700     R  	mov a,_GAS_ERR[0]
 453  0280  0380     E  	addm a,rb
 453  0281  0700     R  	mov a,_GAS_ERR[1]
 453  0282  1380     E  	adcm a,rc
 453  0283  0700     E  	mov a,rb
 453  0284  0080     E  	mov rd,a
 453  0285  0700     E  	mov a,rc
 453  0286  0080     E  	mov re,a
 453  0287  340A        	clr c
 453  0288  1B80     E  	rrc re
 453  0289  1B80     E  	rrc rd
 453  028A  0700     E  	mov a,rd
 453  028B  0080     R  	mov _GAS_ERR[0],a
 453  028C  0700     E  	mov a,re
 453  028D  0080     R  	mov _GAS_ERR[1],a
 454  028E              #line 454 "c:\users\tech\desktop\gasdetector\Main.c"
 454  028E  2800     R  	jmp _L79
 454  028F              _L84:
 457  028F              #line 457 "c:\users\tech\desktop\gasdetector\Main.c"
 457  028F  3429        	clr [41].0
 457  0290              _L114:
 458  0290              #line 458 "c:\users\tech\desktop\gasdetector\Main.c"
 458  0290  34A9        	clr [41].1
 458  0291  2800     R  	jmp _L113
 458  0292              _L91:
"File: Main.c        Assembler  Version HGASM0202      Page 22

 471  0292              #line 471 "c:\users\tech\desktop\gasdetector\Main.c"
 471  0292  3B29        	snz [41].6
 471  0293  2800     R  	jmp _L91
 473  0294              #line 473 "c:\users\tech\desktop\gasdetector\Main.c"
 473  0294  3729        	clr [41].6
 475  0295              #line 475 "c:\users\tech\desktop\gasdetector\Main.c"
 475  0295  0728        	mov a,[40]
 475  0296  0080     R  	mov _main_2[6],a
 475  0297  1F00     R  	clr _main_2[5]
 475  0298  0700     R  	mov a,_main_2[6]
 475  0299  0080     E  	mov rc,a
 475  029A  0727        	mov a,[39]
 475  029B  0500     R  	or a,_main_2[5]
 475  029C  0080     E  	mov rb,a
 475  029D  0700     R  	mov a,_BAT_ADC[0]
 475  029E  0380     E  	addm a,rb
 475  029F  0700     R  	mov a,_BAT_ADC[1]
 475  02A0  1380     E  	adcm a,rc
 475  02A1  0700     E  	mov a,rb
 475  02A2  0080     E  	mov rd,a
 475  02A3  0700     E  	mov a,rc
 475  02A4  0080     E  	mov re,a
 475  02A5  340A        	clr c
 475  02A6  1B80     E  	rrc re
 475  02A7  1B80     E  	rrc rd
 475  02A8  0700     E  	mov a,rd
 475  02A9  0080     R  	mov _BAT_ADC[0],a
 475  02AA  0700     E  	mov a,re
 475  02AB  0080     R  	mov _BAT_ADC[1],a
 475  02AC              _L79:
 480  02AC              #line 480 "c:\users\tech\desktop\gasdetector\Main.c"
 480  02AC  1400     R  	inca _main_2[0]
 480  02AD  0080     E  	mov ra,a
 481  02AE              #line 481 "c:\users\tech\desktop\gasdetector\Main.c"
 481  02AE  0F05        	mov a,5
 481  02AF  0200     E  	sub a,ra
 481  02B0  380A        	snz c
 481  02B1  2800     R  	jmp _L92
 480  02B2              #line 480 "c:\users\tech\desktop\gasdetector\Main.c"
 480  02B2  0700     E  	mov a,ra
 480  02B3  0080     R  	mov _adc[0],a
 480  02B4  2800     R  	jmp _L93
 480  02B5              _L92:
 482  02B5              #line 482 "c:\users\tech\desktop\gasdetector\Main.c"
 482  02B5  1F00     R  	clr _adc[0]
 482  02B6              _L93:
 484  02B6              #line 484 "c:\users\tech\desktop\gasdetector\Main.c"
 484  02B6  1F00     R  	clr _t1[0]
 484  02B7  1F00     R  	clr _t1[1]
 484  02B8  2800     R  	jmp _L78
 484  02B9  2800     R  	jmp $
 484  02BA              _main endp
 484  02BA              
 484  02BA              @dummy endp
 484  02BA              
 484  02BA              #line 484 "c:\users\tech\desktop\gasdetector\Main.c"
 484  02BA              #pragma debug scope 1 1
  27  02BA              #line 27 "c:\users\tech\desktop\gasdetector\Main.c"
  27  02BA              public _falt_gas
  27  0000              @BITDATASEC .section 'data'
"File: Main.c        Assembler  Version HGASM0202      Page 23

  27  0000  00          _falt_gas	dbit 0
  27  0001              #pragma debug variable 2 1 _falt_gas "falt_gas"
  27  0001              
  27  0000              @HCCINIT .section 'data'
  27  0000              #line 27 "c:\users\tech\desktop\gasdetector\Main.c"
  27  0000              public _falt_BAT
  27  0001              @BITDATASEC .section 'data'
  27  0000              _falt_BAT	dbit 0
  27  0001              #pragma debug variable 2 1 _falt_BAT "falt_BAT"
  27  0001              
  27  0000              @HCCINIT .section 'data'
  26  0000              #line 26 "c:\users\tech\desktop\gasdetector\Main.c"
  26  0000              public _fire_gas
  26  0001              @BITDATASEC .section 'data'
  26  0000              _fire_gas	dbit 0
  26  0001              #pragma debug variable 2 1 _fire_gas "fire_gas"
  26  0001              
  26  0000              @HCCINIT .section 'data'
  26  0000              public _PB
  26  0000              @HCCINIT	.section 'data'
  25  0000              #line 25 "c:\users\tech\desktop\gasdetector\Main.c"
  25  0001              @BITDATASEC .section 'data'
  25  0000              _PB	dbit 0
  25  0001              #pragma debug variable 2 1 _PB "PB"
  24  0001              #line 24 "c:\users\tech\desktop\gasdetector\Main.c"
  24  0001              public _disply_bat
  24  0001              @BITDATASEC .section 'data'
  24  0000              _disply_bat	dbit 0
  24  0001              #pragma debug variable 2 1 _disply_bat "disply_bat"
  24  0001              
  24  0000              @HCCINIT .section 'data'
  22  0000              #line 22 "c:\users\tech\desktop\gasdetector\Main.c"
  22  0000              public _Digit
  22  0000              @HCCINIT0 .section 'data'
  22  0000  0008[       _Digit	db 8 dup(0)
            00
            ]
  22  0008              #pragma debug array 42 12 4 1
  22  0008              #pragma debug array 42 12 4 1
  22  0008              #pragma debug variable 42 1 _Digit "Digit"
  22  0008              
  22  0000              @HCCINIT .section 'data'
  22  0000              public _AN
  20  0000              #line 20 "c:\users\tech\desktop\gasdetector\Main.c"
  20  0000              @HCCINIT .section 'data'
  20  0000              _AN label byte
  20  0000              #pragma debug variable 8 1 _AN "AN"
  20  0000              	db 0
  20  0000              @ROMDATA_BASE .section inpage 'code'
  20  0000              	db 0
  20  0001              @HCCINIT .section 'data'
  20  0001              public _delay
  18  0001              #line 18 "c:\users\tech\desktop\gasdetector\Main.c"
  18  0001              @HCCINIT .section 'data'
  18  0001              _delay label byte
  18  0001              #pragma debug variable 14 1 _delay "delay"
  18  0001              	db 0
  18  0001              @ROMDATA_BASE .section inpage 'code'
  18  0001              	db 0
  18  0002              @HCCINIT .section 'data'
"File: Main.c        Assembler  Version HGASM0202      Page 24

  18  0002              	db 0
  18  0001              @ROMDATA_BASE .section inpage 'code'
  18  0001              	db 0
  18  0003              @HCCINIT .section 'data'
  18  0003              	db 0
  18  0002              @ROMDATA_BASE .section inpage 'code'
  18  0002              	db 0
  18  0004              @HCCINIT .section 'data'
  18  0004              	db 0
  18  0002              @ROMDATA_BASE .section inpage 'code'
  18  0002              	db 0
  18  0005              @HCCINIT .section 'data'
  18  0005              public _disply
  16  0005              #line 16 "c:\users\tech\desktop\gasdetector\Main.c"
  16  0005              @HCCINIT .section 'data'
  16  0005              _disply label byte
  16  0005              #pragma debug variable 12 1 _disply "disply"
  16  0005              	db 0
  16  0003              @ROMDATA_BASE .section inpage 'code'
  16  0003              	db 0
  16  0006              @HCCINIT .section 'data'
  16  0006              	db 0
  16  0003              @ROMDATA_BASE .section inpage 'code'
  16  0003              	db 0
  16  0007              @HCCINIT .section 'data'
  16  0007              public _BAT
  14  0007              #line 14 "c:\users\tech\desktop\gasdetector\Main.c"
  14  0007              @HCCINIT .section 'data'
  14  0007              _BAT label byte
  14  0007              #pragma debug variable 8 1 _BAT "BAT"
  14  0007              	db 0
  14  0004              @ROMDATA_BASE .section inpage 'code'
  14  0004              	db 0
  14  0008              @HCCINIT .section 'data'
  14  0008              public _t1
  13  0008              #line 13 "c:\users\tech\desktop\gasdetector\Main.c"
  13  0008              @HCCINIT .section 'data'
  13  0008              _t1 label byte
  13  0008              #pragma debug variable 12 1 _t1 "t1"
  13  0008              	db 0
  13  0004              @ROMDATA_BASE .section inpage 'code'
  13  0004              	db 0
  13  0009              @HCCINIT .section 'data'
  13  0009              	db 0
  13  0005              @ROMDATA_BASE .section inpage 'code'
  13  0005              	db 0
  13  000A              @HCCINIT .section 'data'
  13  000A              public _adc
  12  000A              #line 12 "c:\users\tech\desktop\gasdetector\Main.c"
  12  000A              @HCCINIT .section 'data'
  12  000A              _adc label byte
  12  000A              #pragma debug variable 8 1 _adc "adc"
  12  000A              	db 0
  12  0005              @ROMDATA_BASE .section inpage 'code'
  12  0005              	db 0
  12  000B              @HCCINIT .section 'data'
  12  000B              public _adc_GAS
  10  000B              #line 10 "c:\users\tech\desktop\gasdetector\Main.c"
  10  000B              @HCCINIT .section 'data'
  10  000B              _adc_GAS label byte
"File: Main.c        Assembler  Version HGASM0202      Page 25

  10  000B              #pragma debug variable 12 1 _adc_GAS "adc_GAS"
  10  000B              	db 0
  10  0006              @ROMDATA_BASE .section inpage 'code'
  10  0006              	db 0
  10  000C              @HCCINIT .section 'data'
  10  000C              	db 0
  10  0006              @ROMDATA_BASE .section inpage 'code'
  10  0006              	db 0
  10  000D              @HCCINIT .section 'data'
  10  000D              public _BAT_ADC_D
   9  000D              #line 9 "c:\users\tech\desktop\gasdetector\Main.c"
   9  000D              @HCCINIT .section 'data'
   9  000D              _BAT_ADC_D label byte
   9  000D              #pragma debug variable 12 1 _BAT_ADC_D "BAT_ADC_D"
   9  000D              	db 0
   9  0007              @ROMDATA_BASE .section inpage 'code'
   9  0007              	db 0
   9  000E              @HCCINIT .section 'data'
   9  000E              	db 0
   9  0007              @ROMDATA_BASE .section inpage 'code'
   9  0007              	db 0
   9  000F              @HCCINIT .section 'data'
   9  000F              public _BAT_ADC
   8  000F              #line 8 "c:\users\tech\desktop\gasdetector\Main.c"
   8  000F              @HCCINIT .section 'data'
   8  000F              _BAT_ADC label byte
   8  000F              #pragma debug variable 12 1 _BAT_ADC "BAT_ADC"
   8  000F              	db 0
   8  0008              @ROMDATA_BASE .section inpage 'code'
   8  0008              	db 0
   8  0010              @HCCINIT .section 'data'
   8  0010              	db 0
   8  0008              @ROMDATA_BASE .section inpage 'code'
   8  0008              	db 0
   8  0011              @HCCINIT .section 'data'
   8  0011              public _GAS_ERR
   7  0011              #line 7 "c:\users\tech\desktop\gasdetector\Main.c"
   7  0011              @HCCINIT .section 'data'
   7  0011              _GAS_ERR label byte
   7  0011              #pragma debug variable 12 1 _GAS_ERR "GAS_ERR"
   7  0011              	db 0
   7  0009              @ROMDATA_BASE .section inpage 'code'
   7  0009              	db 0
   7  0012              @HCCINIT .section 'data'
   7  0012              	db 0
   7  0009              @ROMDATA_BASE .section inpage 'code'
   7  0009              	db 0
   7  0013              @HCCINIT .section 'data'
   5  0013              #line 5 "c:\users\tech\desktop\gasdetector\Main.c"
   5  0013              public _SEG
   5  0008              @HCCINIT0 .section 'data'
   5  0008              _SEG	db 0
   5  0009              #pragma debug variable 8 1 _SEG "SEG"
   5  0009              
   5  0013              @HCCINIT .section 'data'
   5  0013              #pragma debug struct_end
   5  0013              #pragma debug struct_end
   5  0013              #pragma debug union_end
   5  0013              #pragma debug union_end
   5  0013              #pragma debug variable 44 1 ___lvrc "__lvrc" 1
"File: Main.c        Assembler  Version HGASM0202      Page 26

   5  0013              #pragma debug struct_end
   5  0013              #pragma debug struct_end
   5  0013              #pragma debug union_end
   5  0013              #pragma debug union_end
   5  0013              #pragma debug variable 46 1 ___scc "__scc" 1
   5  0013              #pragma debug struct_end
   5  0013              #pragma debug struct_end
   5  0013              #pragma debug union_end
   5  0013              #pragma debug union_end
   5  0013              #pragma debug variable 48 1 ___pa "__pa" 1
   5  0013              #pragma debug struct_end
   5  0013              #pragma debug struct_end
   5  0013              #pragma debug union_end
   5  0013              #pragma debug union_end
   5  0013              #pragma debug variable 50 1 ___pac "__pac" 1
   5  0013              #pragma debug struct_end
   5  0013              #pragma debug struct_end
   5  0013              #pragma debug union_end
   5  0013              #pragma debug union_end
   5  0013              #pragma debug variable 52 1 ___lvpuc "__lvpuc" 1
   5  0013              #pragma debug struct_end
   5  0013              #pragma debug struct_end
   5  0013              #pragma debug union_end
   5  0013              #pragma debug union_end
   5  0013              #pragma debug variable 54 1 ___wdtc "__wdtc" 1
   5  0013              #pragma debug struct_end
   5  0013              #pragma debug struct_end
   5  0013              #pragma debug union_end
   5  0013              #pragma debug union_end
   5  0013              #pragma debug variable 56 1 ___pb "__pb" 1
   5  0013              #pragma debug struct_end
   5  0013              #pragma debug struct_end
   5  0013              #pragma debug union_end
   5  0013              #pragma debug union_end
   5  0013              #pragma debug variable 58 1 ___pbc "__pbc" 1
   5  0013              #pragma debug struct_end
   5  0013              #pragma debug struct_end
   5  0013              #pragma debug union_end
   5  0013              #pragma debug union_end
   5  0013              #pragma debug variable 60 1 ___pbpu "__pbpu" 1
   5  0013              #pragma debug struct_end
   5  0013              #pragma debug struct_end
   5  0013              #pragma debug union_end
   5  0013              #pragma debug union_end
   5  0013              #pragma debug variable 62 1 ___pc "__pc" 1
   5  0013              #pragma debug struct_end
   5  0013              #pragma debug struct_end
   5  0013              #pragma debug union_end
   5  0013              #pragma debug union_end
   5  0013              #pragma debug variable 64 1 ___pcc "__pcc" 1
   5  0013              #pragma debug struct_end
   5  0013              #pragma debug struct_end
   5  0013              #pragma debug union_end
   5  0013              #pragma debug union_end
   5  0013              #pragma debug variable 66 1 ___pd "__pd" 1
   5  0013              #pragma debug struct_end
   5  0013              #pragma debug struct_end
   5  0013              #pragma debug union_end
   5  0013              #pragma debug union_end
   5  0013              #pragma debug variable 68 1 ___pdc "__pdc" 1
"File: Main.c        Assembler  Version HGASM0202      Page 27

   5  0013              #pragma debug variable 8 1 ___sadol "__sadol" 1
   5  0013              #pragma debug variable 8 1 ___sadoh "__sadoh" 1
   5  0013              #pragma debug struct_end
   5  0013              #pragma debug struct_end
   5  0013              #pragma debug union_end
   5  0013              #pragma debug union_end
   5  0013              #pragma debug variable 70 1 ___sadc0 "__sadc0" 1
   5  0013              #pragma debug struct_end
   5  0013              #pragma debug struct_end
   5  0013              #pragma debug union_end
   5  0013              #pragma debug union_end
   5  0013              #pragma debug variable 72 1 ___sadc1 "__sadc1" 1
   5  0013              #pragma debug struct_end
   5  0013              #pragma debug struct_end
   5  0013              #pragma debug union_end
   5  0013              #pragma debug union_end
   5  0013              #pragma debug variable 74 1 ___pscr "__pscr" 1
   5  0013              #pragma debug struct_end
   5  0013              #pragma debug struct_end
   5  0013              #pragma debug union_end
   5  0013              #pragma debug union_end
   5  0013              #pragma debug variable 76 1 ___tb0c "__tb0c" 1
   5  0013              #pragma debug struct_end
   5  0013              #pragma debug struct_end
   5  0013              #pragma debug union_end
   5  0013              #pragma debug union_end
   5  0013              #pragma debug variable 78 1 ___tb1c "__tb1c" 1
   5  0013              #pragma debug struct_end
   5  0013              #pragma debug struct_end
   5  0013              #pragma debug union_end
   5  0013              #pragma debug union_end
   5  0013              #pragma debug variable 80 1 ___intc1 "__intc1" 1
   5  0013              #pragma debug struct_end
   5  0013              #pragma debug struct_end
   5  0013              #pragma debug union_end
   5  0013              #pragma debug union_end
   5  0013              #pragma debug variable 82 1 ___pas0 "__pas0" 1
   5  0013              #pragma debug struct_end
   5  0013              #pragma debug struct_end
   5  0013              #pragma debug union_end
   5  0013              #pragma debug union_end
   5  0013              #pragma debug variable 84 1 ___pas1 "__pas1" 1
   5  0013              #pragma debug struct_end
   5  0013              #pragma debug struct_end
   5  0013              #pragma debug union_end
   5  0013              #pragma debug union_end
   5  0013              #pragma debug variable 86 1 ___pbs0 "__pbs0" 1
   5  0013              #pragma debug struct_end
   5  0013              #pragma debug struct_end
   5  0013              #pragma debug union_end
   5  0013              #pragma debug union_end
   5  0013              #pragma debug variable 88 1 ___pbs1 "__pbs1" 1
   5  0013              #pragma debug struct_end
   5  0013              #pragma debug struct_end
   5  0013              #pragma debug union_end
   5  0013              #pragma debug union_end
   5  0013              #pragma debug variable 90 1 ___pcs0 "__pcs0" 1
   5  0013              #pragma debug struct_end
   5  0013              #pragma debug struct_end
   5  0013              #pragma debug union_end
"File: Main.c        Assembler  Version HGASM0202      Page 28

   5  0013              #pragma debug union_end
   5  0013              #pragma debug variable 92 1 ___pcs1 "__pcs1" 1
   5  0013              #pragma debug struct_end
   5  0013              #pragma debug struct_end
   5  0013              #pragma debug union_end
   5  0013              #pragma debug union_end
   5  0013              #pragma debug variable 94 1 ___pds0 "__pds0" 1
  49  0013              #line 49 "c:\users\tech\desktop\gasdetector\Main.c"
  49  0000              @code .section at 0 'code'
  49  0000  2800     R  	jmp _main_startup1
  49  0001              
  49  0001              extern _builtin_holtek_udivmodhi4_2:byte
  49  0001              extern _builtin_holtek_udivmodhi4:near
  49  0001              extern _builtin_holtek_mulhi3_2:byte
  49  0001              extern _builtin_holtek_mulhi3:near
  49  0001              
  49  0001              ; 
  49  0001              ; Generated by holtek-gcc v3.19, Tue May 14 11:04:41 2024
  49  0001              ; Rebuild 718
  49  0001              ; end of file


        0 Errors, 0