"File: Main.c        Assembler  Version HGASM0202      Page 1


   1  0000              ; Generated by holtek-gcc v3.19, Sat Jul 20 16:05:18 2024
   2  0000              ; 
   3  0000              ; Configuration:
   4  0000              ;       without long instruction
   5  0000              ;       Single ROM, Multi-RAM
   6  0000              ;       bits_per_rom_unit:16
   7  0000              ;       with mp1
   8  0000              ;       with tbhp, address(0x9)
   9  0000              ;          Use tabrd-const
  10  0000              ;       
  11  0000              ;       
  12  0000              ;       
  13  0000              ; use 'tabrdc' instead of 'tabrd'
  14  0000              ;       
  15  0000              
  16  0000              #pragma translator "holtek-gcc 4.6.4" "3.19" "build 20130711"
  17  0000              ; Rebuild 718
  18  0000              
  19  0000              ir equ [2]
  20  0000              mp equ [3]
  21  0000              sbp equ [1]
  22  0000              acc equ [5]
  23  0000              bp equ [4]
  24  0000              tblp equ [7]
  25  0000              tbhp equ [9]
  26  0000              status equ [10]
  27  0000              c equ [10].0
  28  0000              ac equ [10].1
  29  0000              z equ [10].2
  30  0000              ov equ [10].3
  31  0000              intc equ [11]
  32  0000              
  33  0000              extern ra:byte
  34  0000              extern rb:byte
  35  0000              extern rc:byte
  36  0000              extern rd:byte
  37  0000              extern re:byte
  38  0000              extern rf:byte
  39  0000              extern rg:byte
  40  0000              extern rh:byte
  41  0000              extern _Crom2Prom:near
  42  0000              extern _Crom2PromNext:near
  43  0000              
  44  0000              RAMBANK 0 @HCCINIT, @HCCINIT0
  45  0000              
  46  0000              RAMBANK 0 @BITDATASEC, @BITDATASEC1
  47  0000              @HCCINIT	.section 'data'
  48  0000              @HCCINIT0	.section 'data'
  49  0000              @BITDATASEC	 .section 'data'
  50  0000              @BITDATASEC1	 .section 'data'
  51  0000              
  52  0000              #pragma debug scope 1 1
  53  0000              	extern __DELAY3:near
  54  0000              	extern __DELAYX3:near
  55  0000              	extern __DELAYX6:near
  56  0000              	extern __DELAYY5:near
  57  0000              	extern __DELAYY3:near
  58  0000              	extern _builtin_holtek_delay_2:byte
  59  0000              ___pa equ [20]
"File: Main.ASM      Assembler  Version HGASM0202      Page 2

  60  0000              ___pb equ [27]
  61  0000              ___pc equ [31]
  62  0000              public _handleTestMode
  63  0000              #pragma debug scope 2 1

 139  0000              #line 139 "c:\users\tech\desktop\gasdetector\Main\Main.c"
 139  0000              _handleTestMode .section 'code'
 139  0000              _handleTestMode proc
 141  0000              #line 141 "c:\users\tech\desktop\gasdetector\Main\Main.c"
 141  0000  1480     R  	inc ___counter_1784[0]
 141  0001  3D0A        	sz z
 141  0002  1480     R  	inc ___counter_1784[1]
 142  0003              #line 142 "c:\users\tech\desktop\gasdetector\Main\Main.c"
 142  0003  3214        	set [20].4
 143  0004              #line 143 "c:\users\tech\desktop\gasdetector\Main\Main.c"
 143  0004  311B        	set [27].2
 144  0005              #line 144 "c:\users\tech\desktop\gasdetector\Main\Main.c"
 144  0005  309F        	set [31].1
 145  0006              #line 145 "c:\users\tech\desktop\gasdetector\Main\Main.c"
 145  0006  301F        	set [31].0
 146  0007              #line 146 "c:\users\tech\desktop\gasdetector\Main\Main.c"
 146  0007  311F        	set [31].2
 147  0008              #line 147 "c:\users\tech\desktop\gasdetector\Main\Main.c"
 147  0008  0F00     R  	mov a,low (offset _parameter+8)
 147  0009  0080     E  	mov _Display_2[3],a
 147  000A  0F00     R  	mov a,high (offset _parameter+8)
 147  000B  0080     E  	mov _Display_2[4],a
 147  000C  0F30        	mov a,48
 147  000D  0080     E  	mov _Display_2[2],a
 147  000E  0FB8        	mov a,-72
 147  000F  0080     E  	mov _Display_2[0],a
 147  0010  0F22        	mov a,34
 147  0011  0080     E  	mov _Display_2[1],a
 147  0012  2000     E  	call _Display
 148  0013              #line 148 "c:\users\tech\desktop\gasdetector\Main\Main.c"
 148  0013  3400     R  	clr _pushButtonState
 149  0014              #line 149 "c:\users\tech\desktop\gasdetector\Main\Main.c"
 149  0014  1F00     R  	clr _parameter[6]
 149  0015  1F00     R  	clr _parameter[7]
 151  0016              #line 151 "c:\users\tech\desktop\gasdetector\Main\Main.c"
 151  0016  0FE8        	mov a,232
 151  0017  0200     R  	sub a,___counter_1784[0]
 151  0018  0F03        	mov a,3
 151  0019  1200     R  	sbc a,___counter_1784[1]
 151  001A  1185        	swap acc
 151  001B  040A        	xor a,status
 151  001C  3985        	snz acc.3
 151  001D  2800     R  	jmp _L1
 152  001E              #line 152 "c:\users\tech\desktop\gasdetector\Main\Main.c"
 152  001E  1F00     R  	clr ___counter_1784[0]
 152  001F  1F00     R  	clr ___counter_1784[1]
 153  0020              #line 153 "c:\users\tech\desktop\gasdetector\Main\Main.c"
 153  0020  3614        	clr [20].4
 154  0021              #line 154 "c:\users\tech\desktop\gasdetector\Main\Main.c"
 154  0021  341F        	clr [31].0
 155  0022              #line 155 "c:\users\tech\desktop\gasdetector\Main\Main.c"
 155  0022  349F        	clr [31].1
 156  0023              #line 156 "c:\users\tech\desktop\gasdetector\Main\Main.c"
 156  0023  351F        	clr [31].2
 157  0024              #line 157 "c:\users\tech\desktop\gasdetector\Main\Main.c"
"File: Main.c        Assembler  Version HGASM0202      Page 3

 157  0024  1F00     R  	clr _Mode[0]
 157  0025  1F00     R  	clr _Mode[1]
 157  0026              _L1:
 157  0026  0003        	ret
 157  0027              _handleTestMode endp
 157  0027              #line 157 "c:\users\tech\desktop\gasdetector\Main\Main.c"
 157  0027              #pragma debug scope 1 1
 157  0027              public _handleCheckBatteryMode
 157  0027              #pragma debug scope 3 1
 162  0027              #line 162 "c:\users\tech\desktop\gasdetector\Main\Main.c"
 162  0000              _handleCheckBatteryMode .section 'code'
 162  0000              _handleCheckBatteryMode proc
 162  0000              public _handleCheckBatteryMode_2
 162  0000  0002[           local _handleCheckBatteryMode_2 db 2 dup(?)	; 2,0
            00
            ]
 162  0002              #pragma debug pointer 42 7 3
 162  0002              #pragma debug pointer 42 7 3
 162  0002              #pragma debug variable 42 3 _handleCheckBatteryMode_2+0 "persentageBattery"
 164  0002              #line 164 "c:\users\tech\desktop\gasdetector\Main\Main.c"
 164  0000  1480     R  	inc ___counter_1788[0]
 164  0001  3D0A        	sz z
 164  0002  1480     R  	inc ___counter_1788[1]
 165  0003              #line 165 "c:\users\tech\desktop\gasdetector\Main\Main.c"
 165  0003  0700     R  	mov a,_handleCheckBatteryMode_2[0]
 165  0004  0083        	mov mp,a
 165  0005  0700     R  	mov a,_handleCheckBatteryMode_2[1]
 165  0006  0081        	mov sbp,a
 165  0007  2000     E  	call _Crom2Prom
 165  0008  0080     E  	mov ra,a
 165  0009  0F13        	mov a,19
 165  000A  0200     E  	sub a,ra
 165  000B  1185        	swap acc
 165  000C  040A        	xor a,status
 165  000D  3D85        	sz acc.3
 165  000E  2800     R  	jmp _L5
 167  000F              #line 167 "c:\users\tech\desktop\gasdetector\Main\Main.c"
 167  000F  0700     R  	mov a,_parameter[8]
 167  0010  0080     E  	mov _DisplayError_2[0],a
 167  0011  0F4C        	mov a,76
 167  0012  2000     E  	call _DisplayError
 167  0013  2800     R  	jmp _L6
 167  0014              _L5:
 169  0014              #line 169 "c:\users\tech\desktop\gasdetector\Main\Main.c"
 169  0014  0F00     R  	mov a,low (offset _parameter+8)
 169  0015  0080     E  	mov _Display_2[3],a
 169  0016  0F00     R  	mov a,high (offset _parameter+8)
 169  0017  0080     E  	mov _Display_2[4],a
 169  0018  0F62        	mov a,98
 169  0019  0080     E  	mov _Display_2[2],a
 169  001A  0700     E  	mov a,ra
 169  001B  0080     E  	mov _Display_2[0],a
 169  001C  1F00     E  	clr _Display_2[1]
 169  001D  3F85        	sz acc.7
 169  001E  1F80     E  	set _Display_2[1]
 169  001F  2000     E  	call _Display
 169  0020              _L6:
 172  0020              #line 172 "c:\users\tech\desktop\gasdetector\Main\Main.c"
 172  0020  3400     R  	clr _pushButtonState
 173  0021              #line 173 "c:\users\tech\desktop\gasdetector\Main\Main.c"
"File: Main.c        Assembler  Version HGASM0202      Page 4

 173  0021  1F00     R  	clr _parameter[6]
 173  0022  1F00     R  	clr _parameter[7]
 175  0023              #line 175 "c:\users\tech\desktop\gasdetector\Main\Main.c"
 175  0023  0FF4        	mov a,244
 175  0024  0200     R  	sub a,___counter_1788[0]
 175  0025  0F01        	mov a,1
 175  0026  1200     R  	sbc a,___counter_1788[1]
 175  0027  1185        	swap acc
 175  0028  040A        	xor a,status
 175  0029  3985        	snz acc.3
 175  002A  2800     R  	jmp _L4
 176  002B              #line 176 "c:\users\tech\desktop\gasdetector\Main\Main.c"
 176  002B  1F00     R  	clr _Mode[0]
 176  002C  1F00     R  	clr _Mode[1]
 177  002D              #line 177 "c:\users\tech\desktop\gasdetector\Main\Main.c"
 177  002D  1F00     R  	clr ___counter_1788[0]
 177  002E  1F00     R  	clr ___counter_1788[1]
 177  002F              _L4:
 177  002F  0003        	ret
 177  0030              _handleCheckBatteryMode endp
 177  0030              #line 177 "c:\users\tech\desktop\gasdetector\Main\Main.c"
 177  0030              #pragma debug scope 1 1
 177  0030              public _startLoading
 177  0030              #pragma debug scope 4 1
 183  0030              #line 183 "c:\users\tech\desktop\gasdetector\Main\Main.c"
 183  0000              _startLoading .section 'code'
 183  0000              _startLoading proc
 183  0000  00              local _startLoading_2 db 1 dup(?)	; 0,1
 183  0000              _L15:
 183  0000              #pragma debug scope 5 4
 183  0000              ;begin block, line: 183.-1
 188  0000              #line 188 "c:\users\tech\desktop\gasdetector\Main\Main.c"
 188  0000  0FFF        	mov a,255
 188  0001  0380     R  	addm a,___DelayCounter_1792[0]
 188  0002  0FFF        	mov a,255
 188  0003  1380     R  	adcm a,___DelayCounter_1792[1]
 189  0004              #line 189 "c:\users\tech\desktop\gasdetector\Main\Main.c"
 189  0004  0F01        	mov a,1
 189  0005  0300     R  	add a,___Counter_1793[0]
 189  0006  0080     E  	mov rb,a
 189  0007  0F00        	mov a,0
 189  0008  1300     R  	adc a,___Counter_1793[1]
 189  0009  0080     E  	mov rc,a
 189  000A  0700     E  	mov a,rb
 189  000B  0080     R  	mov ___Counter_1793[0],a
 189  000C  0700     E  	mov a,rc
 189  000D  0080     R  	mov ___Counter_1793[1],a
 192  000E              #line 192 "c:\users\tech\desktop\gasdetector\Main\Main.c"
 192  000E  0FE7        	mov a,231
 192  000F  0200     E  	sub a,rb
 192  0010  0F03        	mov a,3
 192  0011  1200     E  	sbc a,rc
 192  0012  380A        	snz c
 192  0013  2800     R  	jmp _L9
 193  0014              #line 193 "c:\users\tech\desktop\gasdetector\Main\Main.c"
 193  0014  301F        	set [31].0
 194  0015              #line 194 "c:\users\tech\desktop\gasdetector\Main\Main.c"
 194  0015  311F        	set [31].2
 195  0016              #line 195 "c:\users\tech\desktop\gasdetector\Main\Main.c"
 195  0016  309F        	set [31].1
"File: Main.c        Assembler  Version HGASM0202      Page 5

 195  0017  2800     R  	jmp _L10
 195  0018              _L9:
 197  0018              #line 197 "c:\users\tech\desktop\gasdetector\Main\Main.c"
 197  0018  341F        	clr [31].0
 198  0019              #line 198 "c:\users\tech\desktop\gasdetector\Main\Main.c"
 198  0019  351F        	clr [31].2
 199  001A              #line 199 "c:\users\tech\desktop\gasdetector\Main\Main.c"
 199  001A  349F        	clr [31].1
 202  001B              #line 202 "c:\users\tech\desktop\gasdetector\Main\Main.c"
 202  001B  0FD0        	mov a,208
 202  001C  0200     E  	sub a,rb
 202  001D  0F07        	mov a,7
 202  001E  1200     E  	sbc a,rc
 202  001F  3C0A        	sz c
 202  0020  2800     R  	jmp _L10
 203  0021              #line 203 "c:\users\tech\desktop\gasdetector\Main\Main.c"
 203  0021  1F00     R  	clr ___Counter_1793[0]
 203  0022  1F00     R  	clr ___Counter_1793[1]
 204  0023              #line 204 "c:\users\tech\desktop\gasdetector\Main\Main.c"
 204  0023  1480     R  	inc _parameter[8]
 204  0024              _L10:
 204  0024              #pragma debug scope 4 1
 183  0024              #line 183 "c:\users\tech\desktop\gasdetector\Main\Main.c"
 183  0024  1F00     R  	clr _startLoading_2[0]
 183  0025              _L12:
 183  0025  0F08        	mov a,8
 183  0026  0200     R  	sub a,_startLoading_2[0]
 183  0027  0080     E  	mov ra,a
 183  0028              #pragma debug scope 6 4
 183  0028              ;begin block, line: 183.-1
 211  0028              #line 211 "c:\users\tech\desktop\gasdetector\Main\Main.c"
 211  0028  0700     R  	mov a,_parameter[8]
 211  0029  0280     E  	subm a,ra
 211  002A  0700     E  	mov a,ra
 211  002B  2000     E  	call _DisplayLoading
 211  002C  1480     R  	inc _startLoading_2[0]
 209  002D              #line 209 "c:\users\tech\desktop\gasdetector\Main\Main.c"
 209  002D  0700     R  	mov a,_startLoading_2[0]
 209  002E  0A08        	sub a,8
 209  002F  390A        	snz z
 209  0030  2800     R  	jmp _L12
 214  0031              #line 214 "c:\users\tech\desktop\gasdetector\Main\Main.c"
 214  0031  0F07        	mov a,7
 214  0032  0200     R  	sub a,_parameter[8]
 214  0033  3C0A        	sz c
 214  0034  2800     R  	jmp _L13
 215  0035              #line 215 "c:\users\tech\desktop\gasdetector\Main\Main.c"
 215  0035  1F00     R  	clr ___Counter_1793[0]
 215  0036  1F00     R  	clr ___Counter_1793[1]
 216  0037              #line 216 "c:\users\tech\desktop\gasdetector\Main\Main.c"
 216  0037  1F00     R  	clr _parameter[8]
 216  0038              _L13:
 216  0038              #pragma debug scope 4 1
 219  0038              #line 219 "c:\users\tech\desktop\gasdetector\Main\Main.c"
 219  0038  0700     R  	mov a,___DelayCounter_1792[0]
 219  0039  0500     R  	or a,___DelayCounter_1792[1]
 219  003A  390A        	snz z
 219  003B  2800     R  	jmp _L15
 223  003C              #line 223 "c:\users\tech\desktop\gasdetector\Main\Main.c"
 223  003C  1F00     R  	clr ___Counter_1793[0]
"File: Main.c        Assembler  Version HGASM0202      Page 6

 223  003D  1F00     R  	clr ___Counter_1793[1]
 224  003E              #line 224 "c:\users\tech\desktop\gasdetector\Main\Main.c"
 224  003E  1F00     R  	clr _parameter[8]
 224  003F  0003        	ret
 224  0040              _startLoading endp
 224  0040              #line 224 "c:\users\tech\desktop\gasdetector\Main\Main.c"
 224  0040              #pragma debug scope 1 1
 224  0040              public _handleDetectMode
 224  0040              #pragma debug scope 7 1
 230  0040              #line 230 "c:\users\tech\desktop\gasdetector\Main\Main.c"
 230  0000              _handleDetectMode .section 'code'
 230  0000              _handleDetectMode proc
 231  0000              #line 231 "c:\users\tech\desktop\gasdetector\Main\Main.c"
 231  0000  3214        	set [20].4
 232  0001              #line 232 "c:\users\tech\desktop\gasdetector\Main\Main.c"
 232  0001  311B        	set [27].2
 233  0002              #line 233 "c:\users\tech\desktop\gasdetector\Main\Main.c"
 233  0002  309F        	set [31].1
 234  0003              #line 234 "c:\users\tech\desktop\gasdetector\Main\Main.c"
 234  0003  301F        	set [31].0
 235  0004              #line 235 "c:\users\tech\desktop\gasdetector\Main\Main.c"
 235  0004  311F        	set [31].2
 236  0005              #line 236 "c:\users\tech\desktop\gasdetector\Main\Main.c"
 236  0005  0F00     R  	mov a,low (offset _parameter+8)
 236  0006  0080     E  	mov _Display_2[3],a
 236  0007  0F00     R  	mov a,high (offset _parameter+8)
 236  0008  0080     E  	mov _Display_2[4],a
 236  0009  0F30        	mov a,48
 236  000A  0080     E  	mov _Display_2[2],a
 236  000B  0FFA        	mov a,-6
 236  000C  0080     E  	mov _Display_2[0],a
 236  000D  1F00     E  	clr _Display_2[1]
 236  000E  2000     E  	call _Display
 236  000F  0003        	ret
 236  0010              _handleDetectMode endp
 236  0010              #line 236 "c:\users\tech\desktop\gasdetector\Main\Main.c"
 236  0010              #pragma debug scope 1 1
 236  0010              public _handleSensorErrorMode
 236  0010              #pragma debug scope 8 1
 240  0010              #line 240 "c:\users\tech\desktop\gasdetector\Main\Main.c"
 240  0000              _handleSensorErrorMode .section 'code'
 240  0000              _handleSensorErrorMode proc
 241  0000              #line 241 "c:\users\tech\desktop\gasdetector\Main\Main.c"
 241  0000  3214        	set [20].4
 242  0001              #line 242 "c:\users\tech\desktop\gasdetector\Main\Main.c"
 242  0001  311B        	set [27].2
 243  0002              #line 243 "c:\users\tech\desktop\gasdetector\Main\Main.c"
 243  0002  309F        	set [31].1
 244  0003              #line 244 "c:\users\tech\desktop\gasdetector\Main\Main.c"
 244  0003  301F        	set [31].0
 245  0004              #line 245 "c:\users\tech\desktop\gasdetector\Main\Main.c"
 245  0004  311F        	set [31].2
 247  0005              #line 247 "c:\users\tech\desktop\gasdetector\Main\Main.c"
 247  0005  0700     R  	mov a,_parameter[8]
 247  0006  0080     E  	mov _DisplayError_2[0],a
 247  0007  0F53        	mov a,83
 247  0008  2000     E  	call _DisplayError
 247  0009  0003        	ret
 247  000A              _handleSensorErrorMode endp
 247  000A              #line 247 "c:\users\tech\desktop\gasdetector\Main\Main.c"
"File: Main.c        Assembler  Version HGASM0202      Page 7

 247  000A              #pragma debug scope 1 1
 247  000A              public _batteryPercentage
 247  000A              #pragma debug scope 9 1
 251  000A              #line 251 "c:\users\tech\desktop\gasdetector\Main\Main.c"
 251  0000              _batteryPercentage .section 'code'
 251  0000              _batteryPercentage proc
 251  0000  00              local _batteryPercentage_2 db 1 dup(?)	; 0,1
 251  0000  0080     E  	mov ra,a
 251  0001  0080     R  	mov _batteryPercentage_2[0],a
 251  0002              #pragma debug variable 7 9 _batteryPercentage_2+0 "percentOfBattery"
 253  0002              #line 253 "c:\users\tech\desktop\gasdetector\Main\Main.c"
 253  0002  0F5F        	mov a,95
 253  0003  0200     E  	sub a,ra
 253  0004  1185        	swap acc
 253  0005  040A        	xor a,status
 253  0006  3D85        	sz acc.3
 253  0007  2800     R  	jmp _L21
 255  0008              #line 255 "c:\users\tech\desktop\gasdetector\Main\Main.c"
 255  0008  0F13        	mov a,19
 255  0009  0200     E  	sub a,ra
 255  000A  1185        	swap acc
 255  000B  040A        	xor a,status
 255  000C  3D85        	sz acc.3
 255  000D  2800     R  	jmp _L19
 256  000E              #line 256 "c:\users\tech\desktop\gasdetector\Main\Main.c"
 256  000E  1F00     R  	clr _batteryPercentage_2[0]
 256  000F  2800     R  	jmp _L19
 256  0010              _L21:
 254  0010              #line 254 "c:\users\tech\desktop\gasdetector\Main\Main.c"
 254  0010  0F64        	mov a,100
 254  0011  0080     R  	mov _batteryPercentage_2[0],a
 254  0012              _L19:
 258  0012              #line 258 "c:\users\tech\desktop\gasdetector\Main\Main.c"
 258  0012  0700     R  	mov a,_batteryPercentage_2[0]
 258  0013  0080     R  	mov ___buffer_1809[0],a
 259  0014              #line 259 "c:\users\tech\desktop\gasdetector\Main\Main.c"
 259  0014  1F00     E  	clr _abs_2[0]
 259  0015  1F00     E  	clr _abs_2[1]
 259  0016  2000     E  	call _abs
 259  0017  0F09        	mov a,9
 259  0018  0200     E  	sub a,ra
 259  0019  0F00        	mov a,0
 259  001A  1200     E  	sbc a,rb
 259  001B  1185        	swap acc
 259  001C  040A        	xor a,status
 259  001D  3985        	snz acc.3
 259  001E  2800     R  	jmp _L20
 260  001F              #line 260 "c:\users\tech\desktop\gasdetector\Main\Main.c"
 260  001F  0700     R  	mov a,_batteryPercentage_2[0]
 260  0020  0080     R  	mov ___buffer_1809[0],a
 260  0021              _L20:
 263  0021              #line 263 "c:\users\tech\desktop\gasdetector\Main\Main.c"
 263  0021  0700     R  	mov a,___buffer_1809[0]
 263  0022  0003        	ret
 263  0023              _batteryPercentage endp
 263  0023              #line 263 "c:\users\tech\desktop\gasdetector\Main\Main.c"
 263  0023              #pragma debug scope 1 1
 263  0023              public _normalPowerHandler
 263  0023              #pragma debug scope 10 1
 266  0023              #line 266 "c:\users\tech\desktop\gasdetector\Main\Main.c"
"File: Main.c        Assembler  Version HGASM0202      Page 8

 266  0000              _normalPowerHandler .section 'code'
 266  0000              _normalPowerHandler proc
 268  0000              #line 268 "c:\users\tech\desktop\gasdetector\Main\Main.c"
 268  0000  3614        	clr [20].4
 269  0001              #line 269 "c:\users\tech\desktop\gasdetector\Main\Main.c"
 269  0001  301F        	set [31].0
 270  0002              #line 270 "c:\users\tech\desktop\gasdetector\Main\Main.c"
 270  0002  349F        	clr [31].1
 271  0003              #line 271 "c:\users\tech\desktop\gasdetector\Main\Main.c"
 271  0003  351F        	clr [31].2
 272  0004              #line 272 "c:\users\tech\desktop\gasdetector\Main\Main.c"
 272  0004  0F00     R  	mov a,low (offset _parameter+8)
 272  0005  0080     E  	mov _Display_2[3],a
 272  0006  0F00     R  	mov a,high (offset _parameter+8)
 272  0007  0080     E  	mov _Display_2[4],a
 272  0008  0F30        	mov a,48
 272  0009  0080     E  	mov _Display_2[2],a
 272  000A  0700     R  	mov a,_parameter[4]
 272  000B  0080     E  	mov _Display_2[0],a
 272  000C  0700     R  	mov a,_parameter[5]
 272  000D  0080     E  	mov _Display_2[1],a
 272  000E  2000     E  	call _Display
 272  000F  0003        	ret
 272  0010              _normalPowerHandler endp
 272  0010              #line 272 "c:\users\tech\desktop\gasdetector\Main\Main.c"
 272  0010              #pragma debug scope 1 1
 272  0010              public _lowBatteryHandler
 272  0010              #pragma debug scope 11 1
 316  0010              #line 316 "c:\users\tech\desktop\gasdetector\Main\Main.c"
 316  0000              _lowBatteryHandler .section 'code'
 316  0000              _lowBatteryHandler proc
 318  0000              #line 318 "c:\users\tech\desktop\gasdetector\Main\Main.c"
 318  0000  341F        	clr [31].0
 319  0001              #line 319 "c:\users\tech\desktop\gasdetector\Main\Main.c"
 319  0001  311F        	set [31].2
 320  0002              #line 320 "c:\users\tech\desktop\gasdetector\Main\Main.c"
 320  0002  0F01        	mov a,1
 320  0003  0300     R  	add a,___Counter_1826[0]
 320  0004  0080     E  	mov rb,a
 320  0005  0F00        	mov a,0
 320  0006  1300     R  	adc a,___Counter_1826[1]
 320  0007  0080     E  	mov rc,a
 320  0008  0700     E  	mov a,rb
 320  0009  0080     R  	mov ___Counter_1826[0],a
 320  000A  0700     E  	mov a,rc
 320  000B  0080     R  	mov ___Counter_1826[1],a
 321  000C              #line 321 "c:\users\tech\desktop\gasdetector\Main\Main.c"
 321  000C  0F2B        	mov a,43
 321  000D  0200     E  	sub a,rb
 321  000E  0F01        	mov a,1
 321  000F  1200     E  	sbc a,rc
 321  0010  1185        	swap acc
 321  0011  040A        	xor a,status
 321  0012  3985        	snz acc.3
 321  0013  2800     R  	jmp _L25
 322  0014              #line 322 "c:\users\tech\desktop\gasdetector\Main\Main.c"
 322  0014  3214        	set [20].4
 323  0015              #line 323 "c:\users\tech\desktop\gasdetector\Main\Main.c"
 323  0015  309F        	set [31].1
 324  0016              #line 324 "c:\users\tech\desktop\gasdetector\Main\Main.c"
"File: Main.c        Assembler  Version HGASM0202      Page 9

 324  0016  0F00     R  	mov a,low (offset _parameter+8)
 324  0017  0080     E  	mov _Display_2[3],a
 324  0018  0F00     R  	mov a,high (offset _parameter+8)
 324  0019  0080     E  	mov _Display_2[4],a
 324  001A  0F30        	mov a,48
 324  001B  0080     E  	mov _Display_2[2],a
 324  001C  0700     R  	mov a,_parameter[4]
 324  001D  0080     E  	mov _Display_2[0],a
 324  001E  0700     R  	mov a,_parameter[5]
 324  001F  0080     E  	mov _Display_2[1],a
 324  0020  2000     E  	call _Display
 324  0021  2800     R  	jmp _L26
 324  0022              _L25:
 326  0022              #line 326 "c:\users\tech\desktop\gasdetector\Main\Main.c"
 326  0022  349F        	clr [31].1
 327  0023              #line 327 "c:\users\tech\desktop\gasdetector\Main\Main.c"
 327  0023  3614        	clr [20].4
 329  0024              #line 329 "c:\users\tech\desktop\gasdetector\Main\Main.c"
 329  0024  0700     R  	mov a,_parameter[8]
 329  0025  0080     E  	mov _DisplayError_2[0],a
 329  0026  0F4C        	mov a,76
 329  0027  2000     E  	call _DisplayError
 329  0028              _L26:
 331  0028              #line 331 "c:\users\tech\desktop\gasdetector\Main\Main.c"
 331  0028  0F57        	mov a,87
 331  0029  0200     R  	sub a,___Counter_1826[0]
 331  002A  0F02        	mov a,2
 331  002B  1200     R  	sbc a,___Counter_1826[1]
 331  002C  1185        	swap acc
 331  002D  040A        	xor a,status
 331  002E  3985        	snz acc.3
 331  002F  2800     R  	jmp _L24
 332  0030              #line 332 "c:\users\tech\desktop\gasdetector\Main\Main.c"
 332  0030  1F00     R  	clr ___Counter_1826[0]
 332  0031  1F00     R  	clr ___Counter_1826[1]
 332  0032              _L24:
 332  0032  0003        	ret
 332  0033              _lowBatteryHandler endp
 332  0033              #line 332 "c:\users\tech\desktop\gasdetector\Main\Main.c"
 332  0033              #pragma debug scope 1 1
 332  0033              public _buzzerDull
 332  0033              #pragma debug scope 12 1
 337  0033              #line 337 "c:\users\tech\desktop\gasdetector\Main\Main.c"
 337  0000              _buzzerDull .section 'code'
 337  0000              _buzzerDull proc
 337  0000              public _buzzerDull_2
 337  0000  0002[           local _buzzerDull_2 db 2 dup(?)	; 2,0
            00
            ]
 337  0002              #pragma debug pointer 43 9 12
 337  0002              #pragma debug pointer 43 9 12
 337  0002              #pragma debug variable 43 12 _buzzerDull_2+0 "Counter"
 338  0002              #line 338 "c:\users\tech\desktop\gasdetector\Main\Main.c"
 338  0000  0700     R  	mov a,_buzzerDull_2[0]
 338  0001  0083        	mov mp,a
 338  0002  0700     R  	mov a,_buzzerDull_2[1]
 338  0003  0081        	mov sbp,a
 338  0004  2000     E  	call _Crom2Prom
 338  0005  0080     E  	mov rb,a
 338  0006  2000     E  	call _Crom2PromNext
"File: Main.c        Assembler  Version HGASM0202      Page 10

 338  0007  0080     E  	mov rc,a
 338  0008  0F7F        	mov a,127
 338  0009  0300     E  	add a,rb
 338  000A  0080     E  	mov rd,a
 338  000B  0FF8        	mov a,248
 338  000C  1300     E  	adc a,rc
 338  000D  0080     E  	mov re,a
 338  000E  0F1C        	mov a,28
 338  000F  0200     E  	sub a,rd
 338  0010  0F00        	mov a,0
 338  0011  1200     E  	sbc a,re
 338  0012  3C0A        	sz c
 338  0013  2800     R  	jmp _L33
 340  0014              #line 340 "c:\users\tech\desktop\gasdetector\Main\Main.c"
 340  0014  0F61        	mov a,97
 340  0015  0300     E  	add a,rb
 340  0016  0080     E  	mov rd,a
 340  0017  0FF8        	mov a,248
 340  0018  1300     E  	adc a,rc
 340  0019  0080     E  	mov re,a
 340  001A  0F12        	mov a,18
 340  001B  0200     E  	sub a,rd
 340  001C  0F00        	mov a,0
 340  001D  1200     E  	sbc a,re
 340  001E  3C0A        	sz c
 340  001F  2800     R  	jmp _L32
 342  0020              #line 342 "c:\users\tech\desktop\gasdetector\Main\Main.c"
 342  0020  0FB2        	mov a,178
 342  0021  0200     E  	sub a,rb
 342  0022  0F07        	mov a,7
 342  0023  1200     E  	sbc a,rc
 342  0024  1185        	swap acc
 342  0025  040A        	xor a,status
 342  0026  3985        	snz acc.3
 342  0027  2800     R  	jmp _L32
 342  0028              _L33:
 343  0028              #line 343 "c:\users\tech\desktop\gasdetector\Main\Main.c"
 343  0028  3214        	set [20].4
 343  0029  2800     R  	jmp _L28
 343  002A              _L32:
 345  002A              #line 345 "c:\users\tech\desktop\gasdetector\Main\Main.c"
 345  002A  3614        	clr [20].4
 345  002B              _L28:
 345  002B  0003        	ret
 345  002C              _buzzerDull endp
 345  002C              #line 345 "c:\users\tech\desktop\gasdetector\Main\Main.c"
 345  002C              #pragma debug scope 1 1
 345  002C              public _batteryErrorHandler
 345  002C              #pragma debug scope 13 1
 277  002C              #line 277 "c:\users\tech\desktop\gasdetector\Main\Main.c"
 277  0000              _batteryErrorHandler .section 'code'
 277  0000              _batteryErrorHandler proc
 279  0000              #line 279 "c:\users\tech\desktop\gasdetector\Main\Main.c"
 279  0000  341F        	clr [31].0
 280  0001              #line 280 "c:\users\tech\desktop\gasdetector\Main\Main.c"
 280  0001  349F        	clr [31].1
 281  0002              #line 281 "c:\users\tech\desktop\gasdetector\Main\Main.c"
 281  0002  311F        	set [31].2
 282  0003              #line 282 "c:\users\tech\desktop\gasdetector\Main\Main.c"
 282  0003  0F01        	mov a,1
"File: Main.c        Assembler  Version HGASM0202      Page 11

 282  0004  0300     R  	add a,___Counter_1818[0]
 282  0005  0080     E  	mov rb,a
 282  0006  0F00        	mov a,0
 282  0007  1300     R  	adc a,___Counter_1818[1]
 282  0008  0080     E  	mov rc,a
 282  0009  0700     E  	mov a,rb
 282  000A  0080     R  	mov ___Counter_1818[0],a
 282  000B  0700     E  	mov a,rc
 282  000C  0080     R  	mov ___Counter_1818[1],a
 283  000D              #line 283 "c:\users\tech\desktop\gasdetector\Main\Main.c"
 283  000D  0FE7        	mov a,231
 283  000E  0200     E  	sub a,rb
 283  000F  0F03        	mov a,3
 283  0010  1200     E  	sbc a,rc
 283  0011  1185        	swap acc
 283  0012  040A        	xor a,status
 283  0013  3D85        	sz acc.3
 283  0014  2800     R  	jmp _L35
 285  0015              #line 285 "c:\users\tech\desktop\gasdetector\Main\Main.c"
 285  0015  0F00     R  	mov a,low (offset _parameter+8)
 285  0016  0080     E  	mov _Display_2[3],a
 285  0017  0F00     R  	mov a,high (offset _parameter+8)
 285  0018  0080     E  	mov _Display_2[4],a
 285  0019  0F30        	mov a,48
 285  001A  0080     E  	mov _Display_2[2],a
 285  001B  0700     R  	mov a,_parameter[4]
 285  001C  0080     E  	mov _Display_2[0],a
 285  001D  0700     R  	mov a,_parameter[5]
 285  001E  0080     E  	mov _Display_2[1],a
 285  001F  2000     E  	call _Display
 285  0020  2800     R  	jmp _L36
 285  0021              _L35:
 289  0021              #line 289 "c:\users\tech\desktop\gasdetector\Main\Main.c"
 289  0021  0700     R  	mov a,_parameter[8]
 289  0022  0080     E  	mov _DisplayError_2[0],a
 289  0023  0F62        	mov a,98
 289  0024  2000     E  	call _DisplayError
 289  0025              _L36:
 291  0025              #line 291 "c:\users\tech\desktop\gasdetector\Main\Main.c"
 291  0025  0F00     R  	mov a,low offset ___Counter_1818
 291  0026  0080     R  	mov _buzzerDull_2[0],a
 291  0027  0F00     R  	mov a,high offset ___Counter_1818
 291  0028  0080     R  	mov _buzzerDull_2[1],a
 291  0029  2000     R  	call _buzzerDull
 292  002A              #line 292 "c:\users\tech\desktop\gasdetector\Main\Main.c"
 292  002A  0FD0        	mov a,208
 292  002B  0200     R  	sub a,___Counter_1818[0]
 292  002C  0F07        	mov a,7
 292  002D  1200     R  	sbc a,___Counter_1818[1]
 292  002E  1185        	swap acc
 292  002F  040A        	xor a,status
 292  0030  3985        	snz acc.3
 292  0031  2800     R  	jmp _L34
 293  0032              #line 293 "c:\users\tech\desktop\gasdetector\Main\Main.c"
 293  0032  1F00     R  	clr ___Counter_1818[0]
 293  0033  1F00     R  	clr ___Counter_1818[1]
 293  0034              _L34:
 293  0034  0003        	ret
 293  0035              _batteryErrorHandler endp
 293  0035              #line 293 "c:\users\tech\desktop\gasdetector\Main\Main.c"
"File: Main.c        Assembler  Version HGASM0202      Page 12

 293  0035              #pragma debug scope 1 1
 293  0035              public _supplyErrorHandler
 293  0035              #pragma debug scope 14 1
 297  0035              #line 297 "c:\users\tech\desktop\gasdetector\Main\Main.c"
 297  0000              _supplyErrorHandler .section 'code'
 297  0000              _supplyErrorHandler proc
 299  0000              #line 299 "c:\users\tech\desktop\gasdetector\Main\Main.c"
 299  0000  341F        	clr [31].0
 300  0001              #line 300 "c:\users\tech\desktop\gasdetector\Main\Main.c"
 300  0001  349F        	clr [31].1
 301  0002              #line 301 "c:\users\tech\desktop\gasdetector\Main\Main.c"
 301  0002  311F        	set [31].2
 302  0003              #line 302 "c:\users\tech\desktop\gasdetector\Main\Main.c"
 302  0003  0F01        	mov a,1
 302  0004  0300     R  	add a,___Counter_1822[0]
 302  0005  0080     E  	mov rb,a
 302  0006  0F00        	mov a,0
 302  0007  1300     R  	adc a,___Counter_1822[1]
 302  0008  0080     E  	mov rc,a
 302  0009  0700     E  	mov a,rb
 302  000A  0080     R  	mov ___Counter_1822[0],a
 302  000B  0700     E  	mov a,rc
 302  000C  0080     R  	mov ___Counter_1822[1],a
 303  000D              #line 303 "c:\users\tech\desktop\gasdetector\Main\Main.c"
 303  000D  0FE7        	mov a,231
 303  000E  0200     E  	sub a,rb
 303  000F  0F03        	mov a,3
 303  0010  1200     E  	sbc a,rc
 303  0011  1185        	swap acc
 303  0012  040A        	xor a,status
 303  0013  3D85        	sz acc.3
 303  0014  2800     R  	jmp _L39
 304  0015              #line 304 "c:\users\tech\desktop\gasdetector\Main\Main.c"
 304  0015  0F00     R  	mov a,low (offset _parameter+8)
 304  0016  0080     E  	mov _Display_2[3],a
 304  0017  0F00     R  	mov a,high (offset _parameter+8)
 304  0018  0080     E  	mov _Display_2[4],a
 304  0019  0F30        	mov a,48
 304  001A  0080     E  	mov _Display_2[2],a
 304  001B  0700     R  	mov a,_parameter[4]
 304  001C  0080     E  	mov _Display_2[0],a
 304  001D  0700     R  	mov a,_parameter[5]
 304  001E  0080     E  	mov _Display_2[1],a
 304  001F  2000     E  	call _Display
 304  0020  2800     R  	jmp _L40
 304  0021              _L39:
 307  0021              #line 307 "c:\users\tech\desktop\gasdetector\Main\Main.c"
 307  0021  0700     R  	mov a,_parameter[8]
 307  0022  0080     E  	mov _DisplayError_2[0],a
 307  0023  0F50        	mov a,80
 307  0024  2000     E  	call _DisplayError
 307  0025              _L40:
 310  0025              #line 310 "c:\users\tech\desktop\gasdetector\Main\Main.c"
 310  0025  0F00     R  	mov a,low offset ___Counter_1822
 310  0026  0080     R  	mov _buzzerDull_2[0],a
 310  0027  0F00     R  	mov a,high offset ___Counter_1822
 310  0028  0080     R  	mov _buzzerDull_2[1],a
 310  0029  2000     R  	call _buzzerDull
 311  002A              #line 311 "c:\users\tech\desktop\gasdetector\Main\Main.c"
 311  002A  0FD0        	mov a,208
"File: Main.c        Assembler  Version HGASM0202      Page 13

 311  002B  0200     R  	sub a,___Counter_1822[0]
 311  002C  0F07        	mov a,7
 311  002D  1200     R  	sbc a,___Counter_1822[1]
 311  002E  1185        	swap acc
 311  002F  040A        	xor a,status
 311  0030  3985        	snz acc.3
 311  0031  2800     R  	jmp _L38
 312  0032              #line 312 "c:\users\tech\desktop\gasdetector\Main\Main.c"
 312  0032  1F00     R  	clr ___Counter_1822[0]
 312  0033  1F00     R  	clr ___Counter_1822[1]
 312  0034              _L38:
 312  0034  0003        	ret
 312  0035              _supplyErrorHandler endp
 312  0035              #line 312 "c:\users\tech\desktop\gasdetector\Main\Main.c"
 312  0035              #pragma debug scope 1 1
 312  0035              ___scc equ [16]
 312  0035              ___wdtc equ [25]
 312  0035              ___lvrc equ [12]
 312  0035              public _initializeSystem
 312  0035              #pragma debug scope 15 1
 350  0035              #line 350 "c:\users\tech\desktop\gasdetector\Main\Main.c"
 350  0000              _initializeSystem .section 'code'
 350  0000              _initializeSystem proc
 351  0000              #line 351 "c:\users\tech\desktop\gasdetector\Main\Main.c"
 351  0000  3690        	clr [16].5
 352  0001              #line 352 "c:\users\tech\desktop\gasdetector\Main\Main.c"
 352  0001  3710        	clr [16].6
 353  0002              #line 353 "c:\users\tech\desktop\gasdetector\Main\Main.c"
 353  0002  3790        	clr [16].7
 354  0003              #line 354 "c:\users\tech\desktop\gasdetector\Main\Main.c"
 354  0003  3510        	clr [16].2
 355  0004              #line 355 "c:\users\tech\desktop\gasdetector\Main\Main.c"
 355  0004  3010        	set [16].0
 356  0005              #line 356 "c:\users\tech\desktop\gasdetector\Main\Main.c"
 356  0005  0FAF        	mov a,175
 356  0006  0099        	mov [25],a
 357  0007              #line 357 "c:\users\tech\desktop\gasdetector\Main\Main.c"
 357  0007  0FA5        	mov a,165
 357  0008  008C        	mov [12],a
 357  0009  0003        	ret
 357  000A              _initializeSystem endp
 357  000A              #line 357 "c:\users\tech\desktop\gasdetector\Main\Main.c"
 357  000A              #pragma debug scope 1 1
 357  000A              ___lvpuc equ [24]
 357  000A              ___pac equ [21]
 357  000A              ___pbc equ [28]
 357  000A              ___pcc equ [32]
 357  000A              ___pdc equ [36]
 357  000A              ___pas1 equ [86]
 357  000A              ___pas0 equ [85]
 357  000A              ___pbs1 equ [88]
 357  000A              ___pbs0 equ [87]
 357  000A              ___pcs1 equ [90]
 357  000A              ___pcs0 equ [89]
 357  000A              ___pds0 equ [91]
 357  000A              ___pbpu equ [29]
 357  000A              public _initializePorts
 357  000A              #pragma debug scope 16 1
 361  000A              #line 361 "c:\users\tech\desktop\gasdetector\Main\Main.c"
 361  0000              _initializePorts .section 'code'
"File: Main.c        Assembler  Version HGASM0202      Page 14

 361  0000              _initializePorts proc
 362  0000              #line 362 "c:\users\tech\desktop\gasdetector\Main\Main.c"
 362  0000  3418        	clr [24].0
 363  0001              #line 363 "c:\users\tech\desktop\gasdetector\Main\Main.c"
 363  0001  0F41        	mov a,65
 363  0002  0695        	andm a,[21]
 364  0003              #line 364 "c:\users\tech\desktop\gasdetector\Main\Main.c"
 364  0003  0F06        	mov a,6
 364  0004  0595        	orm a,[21]
 365  0005              #line 365 "c:\users\tech\desktop\gasdetector\Main\Main.c"
 365  0005  071C        	mov a,[28]
 365  0006  0080     E  	mov ra,a
 365  0007  1F1C        	clr [28]
 366  0008              #line 366 "c:\users\tech\desktop\gasdetector\Main\Main.c"
 366  0008  0F0B        	mov a,11
 366  0009  059C        	orm a,[28]
 367  000A              #line 367 "c:\users\tech\desktop\gasdetector\Main\Main.c"
 367  000A  0720        	mov a,[32]
 367  000B  0080     E  	mov ra,a
 367  000C  1F20        	clr [32]
 369  000D              #line 369 "c:\users\tech\desktop\gasdetector\Main\Main.c"
 369  000D  0724        	mov a,[36]
 369  000E  0080     E  	mov ra,a
 369  000F  1F24        	clr [36]
 371  0010              #line 371 "c:\users\tech\desktop\gasdetector\Main\Main.c"
 371  0010  1F56        	clr [86]
 372  0011              #line 372 "c:\users\tech\desktop\gasdetector\Main\Main.c"
 372  0011  0F08        	mov a,8
 372  0012  00D5        	mov [85],a
 373  0013              #line 373 "c:\users\tech\desktop\gasdetector\Main\Main.c"
 373  0013  1F58        	clr [88]
 374  0014              #line 374 "c:\users\tech\desktop\gasdetector\Main\Main.c"
 374  0014  0F0A        	mov a,10
 374  0015  00D7        	mov [87],a
 375  0016              #line 375 "c:\users\tech\desktop\gasdetector\Main\Main.c"
 375  0016  1F5A        	clr [90]
 376  0017              #line 376 "c:\users\tech\desktop\gasdetector\Main\Main.c"
 376  0017  1F59        	clr [89]
 377  0018              #line 377 "c:\users\tech\desktop\gasdetector\Main\Main.c"
 377  0018  1F5B        	clr [91]
 378  0019              #line 378 "c:\users\tech\desktop\gasdetector\Main\Main.c"
 378  0019  319D        	set [29].3
 378  001A  0003        	ret
 378  001B              _initializePorts endp
 378  001B              #line 378 "c:\users\tech\desktop\gasdetector\Main\Main.c"
 378  001B              #pragma debug scope 1 1
 378  001B              public _main
 378  001B              #pragma debug scope 17 1
   5  001B              #line 5 "c:\users\tech\desktop\gasdetector\Main\Main.c"
   5  001B              IFDEF WITH_DEFAULT_STARTUP
   5  001B              extern _main_initial0:near
   5  001B              extern _main_startup:near
   5  001B              ENDIF
   5  001B              
   5  001B              ROMBANK 0 @start
   5  0000              @start .section com_l 'code'
   5  0000              _main_startup1:
   5  0000              @start .section com_e 'code'
   5  0000  2800     R  	jmp _main
   5  0001              
"File: Main.c        Assembler  Version HGASM0202      Page 15

   5  0000              _main .section 'code'
   5  0000              _main proc
   9  0000              #line 9 "c:\users\tech\desktop\gasdetector\Main\Main.c"
   9  0000  2000     R  	call _initializeSystem
  10  0001              #line 10 "c:\users\tech\desktop\gasdetector\Main\Main.c"
  10  0001  2000     R  	call _initializePorts
  11  0002              #line 11 "c:\users\tech\desktop\gasdetector\Main\Main.c"
  11  0002  2000     E  	call _S_ADC_Init
  12  0003              #line 12 "c:\users\tech\desktop\gasdetector\Main\Main.c"
  12  0003  3614        	clr [20].4
  13  0004              #line 13 "c:\users\tech\desktop\gasdetector\Main\Main.c"
  13  0004  2000     R  	call _startLoading
  15  0005              #line 15 "c:\users\tech\desktop\gasdetector\Main\Main.c"
  15  0005  3614        	clr [20].4
  16  0006              #line 16 "c:\users\tech\desktop\gasdetector\Main\Main.c"
  16  0006  341F        	clr [31].0
  17  0007              #line 17 "c:\users\tech\desktop\gasdetector\Main\Main.c"
  17  0007  349F        	clr [31].1
  18  0008              #line 18 "c:\users\tech\desktop\gasdetector\Main\Main.c"
  18  0008  351F        	clr [31].2
  19  0009              #line 19 "c:\users\tech\desktop\gasdetector\Main\Main.c"
  19  0009  311B        	set [27].2
  20  000A              #line 20 "c:\users\tech\desktop\gasdetector\Main\Main.c"
  20  000A  1F00     R  	clr _parameter[6]
  20  000B  1F00     R  	clr _parameter[7]
  21  000C              #line 21 "c:\users\tech\desktop\gasdetector\Main\Main.c"
  21  000C  1F00     R  	clr _parameter[8]
  22  000D              #line 22 "c:\users\tech\desktop\gasdetector\Main\Main.c"
  22  000D  1F00     R  	clr _Mode[0]
  22  000E  1F00     R  	clr _Mode[1]
  23  000F              #line 23 "c:\users\tech\desktop\gasdetector\Main\Main.c"
  23  000F  1F00     R  	clr _SupplyStatus[0]
  23  0010  1F00     R  	clr _SupplyStatus[1]
  23  0011              _L79:
  28  0011              #line 28 "c:\users\tech\desktop\gasdetector\Main\Main.c"
  28  0011  0F02        	mov a,2
  28  0012  2000     E  	call _S_READ_ADC
  28  0013  0700     E  	mov a,rb
  28  0014  0080     E  	mov _builtin_holtek_mant1[1],a
  28  0015  0700     E  	mov a,ra
  28  0016  0080     E  	mov _builtin_holtek_mant1[0],a
  28  0017  3400     E  	clr _builtin_holtek_signs.0
  28  0018  2000     E  	call _builtin_holtek_uitod
  28  0019  0700     E  	mov a,_builtin_holtek_mant12p[0]
  28  001A  0080     E  	mov rg,a
  28  001B  0700     E  	mov a,_builtin_holtek_mant1[2]
  28  001C  0080     E  	mov rf,a
  28  001D  0700     E  	mov a,_builtin_holtek_mant1[1]
  28  001E  0080     E  	mov re,a
  28  001F  0700     E  	mov a,_builtin_holtek_mant1[0]
  28  0020  0080     E  	mov rd,a
  28  0021  0700     E  	mov a,rg
  28  0022  0080     E  	mov _builtin_holtek_mant12p[0],a
  28  0023  0700     E  	mov a,rf
  28  0024  0080     E  	mov _builtin_holtek_mant1[2],a
  28  0025  0700     E  	mov a,re
  28  0026  0080     E  	mov _builtin_holtek_mant1[1],a
  28  0027  0700     E  	mov a,rd
  28  0028  0080     E  	mov _builtin_holtek_mant1[0],a
  28  0029  0F40        	mov a,64
"File: Main.c        Assembler  Version HGASM0202      Page 16

  28  002A  0080     E  	mov _builtin_holtek_mant12p[1],a
  28  002B  0F88        	mov a,136
  28  002C  0080     E  	mov _builtin_holtek_mant2[2],a
  28  002D  0F12        	mov a,18
  28  002E  0080     E  	mov _builtin_holtek_mant2[1],a
  28  002F  0F05        	mov a,5
  28  0030  0080     E  	mov _builtin_holtek_mant2[0],a
  28  0031  2000     E  	call _builtin_holtek_dtmul
  28  0032  0700     E  	mov a,_builtin_holtek_mant12p[0]
  28  0033  0080     E  	mov rg,a
  28  0034  0700     E  	mov a,_builtin_holtek_mant1[2]
  28  0035  0080     E  	mov rf,a
  28  0036  0700     E  	mov a,_builtin_holtek_mant1[1]
  28  0037  0080     E  	mov re,a
  28  0038  0700     E  	mov a,_builtin_holtek_mant1[0]
  28  0039  0080     E  	mov rd,a
  28  003A  0700     E  	mov a,rg
  28  003B  0080     R  	mov _parameter[2],a
  28  003C  0700     E  	mov a,rf
  28  003D  0080     R  	mov _parameter[1],a
  28  003E  0700     E  	mov a,re
  28  003F  0080     R  	mov _parameter[0],a
  29  0040              #line 29 "c:\users\tech\desktop\gasdetector\Main\Main.c"
  29  0040  1400     R  	inca _parameter[8]
  29  0041  0080     E  	mov ra,a
  30  0042              #line 30 "c:\users\tech\desktop\gasdetector\Main\Main.c"
  30  0042  0F03        	mov a,3
  30  0043  0200     E  	sub a,ra
  30  0044  380A        	snz c
  30  0045  2800     R  	jmp _L47
  29  0046              #line 29 "c:\users\tech\desktop\gasdetector\Main\Main.c"
  29  0046  0700     E  	mov a,ra
  29  0047  0080     R  	mov _parameter[8],a
  29  0048  2800     R  	jmp _L48
  29  0049              _L47:
  30  0049              #line 30 "c:\users\tech\desktop\gasdetector\Main\Main.c"
  30  0049  1F00     R  	clr _parameter[8]
  30  004A              _L48:
  32  004A              #line 32 "c:\users\tech\desktop\gasdetector\Main\Main.c"
  32  004A  0F01        	mov a,1
  32  004B  2000     E  	call _S_READ_ADC
  32  004C  0F04        	mov a,4
  32  004D  0200     E  	sub a,ra
  32  004E  0F00        	mov a,0
  32  004F  1200     E  	sbc a,rb
  32  0050  380A        	snz c
  32  0051  2800     R  	jmp _L49
  34  0052              #line 34 "c:\users\tech\desktop\gasdetector\Main\Main.c"
  34  0052  0F04        	mov a,4
  34  0053  0080     R  	mov _Mode[0],a
  34  0054  1F00     R  	clr _Mode[1]
  34  0055  2800     R  	jmp _L50
  34  0056              _L49:
  36  0056              #line 36 "c:\users\tech\desktop\gasdetector\Main\Main.c"
  36  0056  0F00        	mov a,0
  36  0057  2000     E  	call _S_READ_ADC
  36  0058  0FFA        	mov a,250
  36  0059  0200     E  	sub a,ra
  36  005A  0F00        	mov a,0
  36  005B  1200     E  	sbc a,rb
"File: Main.c        Assembler  Version HGASM0202      Page 17

  36  005C  3C0A        	sz c
  36  005D  2800     R  	jmp _L51
  38  005E              #line 38 "c:\users\tech\desktop\gasdetector\Main\Main.c"
  38  005E  0F03        	mov a,3
  38  005F  0080     R  	mov _Mode[0],a
  38  0060  1F00     R  	clr _Mode[1]
  38  0061  2800     R  	jmp _L50
  38  0062              _L51:
  43  0062              #line 43 "c:\users\tech\desktop\gasdetector\Main\Main.c"
  43  0062  3D9B        	sz [27].3
  43  0063  2800     R  	jmp _L52
  45  0064              #line 45 "c:\users\tech\desktop\gasdetector\Main\Main.c"
  45  0064  3000     R  	set _pushButtonState
  46  0065              #line 46 "c:\users\tech\desktop\gasdetector\Main\Main.c"
  46  0065  1480     R  	inc _parameter[6]
  46  0066  3D0A        	sz z
  46  0067  1480     R  	inc _parameter[7]
  46  0068  2800     R  	jmp _L50
  46  0069              _L52:
  50  0069              #line 50 "c:\users\tech\desktop\gasdetector\Main\Main.c"
  50  0069  3800     R  	snz _pushButtonState
  50  006A  2800     R  	jmp _L50
  50  006B  0700     R  	mov a,_parameter[6]
  50  006C  0080     E  	mov rb,a
  50  006D  0700     R  	mov a,_parameter[7]
  50  006E  0080     E  	mov rc,a
  50  006F  0FF4        	mov a,244
  50  0070  0200     E  	sub a,rb
  50  0071  0F01        	mov a,1
  50  0072  1200     E  	sbc a,rc
  50  0073  3C0A        	sz c
  50  0074  2800     R  	jmp _L53
  52  0075              #line 52 "c:\users\tech\desktop\gasdetector\Main\Main.c"
  52  0075  0F02        	mov a,2
  52  0076  0080     R  	mov _Mode[0],a
  52  0077  1F00     R  	clr _Mode[1]
  52  0078  2800     R  	jmp _L50
  52  0079              _L53:
  54  0079              #line 54 "c:\users\tech\desktop\gasdetector\Main\Main.c"
  54  0079  0FF5        	mov a,245
  54  007A  0380     E  	addm a,rb
  54  007B  0FFF        	mov a,255
  54  007C  1380     E  	adcm a,rc
  54  007D  0FE8        	mov a,232
  54  007E  0200     E  	sub a,rb
  54  007F  0F01        	mov a,1
  54  0080  1200     E  	sbc a,rc
  54  0081  380A        	snz c
  54  0082  2800     R  	jmp _L50
  56  0083              #line 56 "c:\users\tech\desktop\gasdetector\Main\Main.c"
  56  0083  0F01        	mov a,1
  56  0084  0080     R  	mov _Mode[0],a
  56  0085  1F00     R  	clr _Mode[1]
  57  0086              #line 57 "c:\users\tech\desktop\gasdetector\Main\Main.c"
  57  0086  0700     R  	mov a,_parameter[0]
  57  0087  0080     E  	mov re,a
  57  0088  0700     R  	mov a,_parameter[1]
  57  0089  0080     E  	mov rf,a
  57  008A  0700     R  	mov a,_parameter[2]
  57  008B  0080     E  	mov rg,a
"File: Main.c        Assembler  Version HGASM0202      Page 18

  57  008C  1F00     E  	clr rd
  57  008D  0700     E  	mov a,rg
  57  008E  0080     E  	mov _builtin_holtek_mant12p[0],a
  57  008F  0700     E  	mov a,rf
  57  0090  0080     E  	mov _builtin_holtek_mant1[2],a
  57  0091  0700     E  	mov a,re
  57  0092  0080     E  	mov _builtin_holtek_mant1[1],a
  57  0093  0700     E  	mov a,rd
  57  0094  0080     E  	mov _builtin_holtek_mant1[0],a
  57  0095  0F3D        	mov a,61
  57  0096  0080     E  	mov _builtin_holtek_mant12p[1],a
  57  0097  0FD7        	mov a,215
  57  0098  0080     E  	mov _builtin_holtek_mant2[2],a
  57  0099  0F94        	mov a,148
  57  009A  0080     E  	mov _builtin_holtek_mant2[1],a
  57  009B  0F21        	mov a,33
  57  009C  0080     E  	mov _builtin_holtek_mant2[0],a
  57  009D  2000     E  	call _builtin_holtek_dtmul
  57  009E  0700     E  	mov a,_builtin_holtek_mant12p[0]
  57  009F  0080     E  	mov rg,a
  57  00A0  0700     E  	mov a,_builtin_holtek_mant1[2]
  57  00A1  0080     E  	mov rf,a
  57  00A2  0700     E  	mov a,_builtin_holtek_mant1[1]
  57  00A3  0080     E  	mov re,a
  57  00A4  0700     E  	mov a,_builtin_holtek_mant1[0]
  57  00A5  0080     E  	mov rd,a
  57  00A6  0700     E  	mov a,rg
  57  00A7  0080     E  	mov _builtin_holtek_mant12p[0],a
  57  00A8  0700     E  	mov a,rf
  57  00A9  0080     E  	mov _builtin_holtek_mant1[2],a
  57  00AA  0700     E  	mov a,re
  57  00AB  0080     E  	mov _builtin_holtek_mant1[1],a
  57  00AC  0700     E  	mov a,rd
  57  00AD  0080     E  	mov _builtin_holtek_mant1[0],a
  57  00AE  0F43        	mov a,67
  57  00AF  0080     E  	mov _builtin_holtek_mant12p[1],a
  57  00B0  0FA9        	mov a,169
  57  00B1  0080     E  	mov _builtin_holtek_mant2[2],a
  57  00B2  0F35        	mov a,53
  57  00B3  0080     E  	mov _builtin_holtek_mant2[1],a
  57  00B4  0FE3        	mov a,227
  57  00B5  0080     E  	mov _builtin_holtek_mant2[0],a
  57  00B6  2000     E  	call _builtin_holtek_dtsub
  57  00B7  0700     E  	mov a,_builtin_holtek_mant12p[0]
  57  00B8  0080     E  	mov rg,a
  57  00B9  0700     E  	mov a,_builtin_holtek_mant1[2]
  57  00BA  0080     E  	mov rf,a
  57  00BB  0700     E  	mov a,_builtin_holtek_mant1[1]
  57  00BC  0080     E  	mov re,a
  57  00BD  0700     E  	mov a,_builtin_holtek_mant1[0]
  57  00BE  0080     E  	mov rd,a
  57  00BF  0700     E  	mov a,rg
  57  00C0  0080     E  	mov _builtin_holtek_mant12p[0],a
  57  00C1  0700     E  	mov a,rf
  57  00C2  0080     E  	mov _builtin_holtek_mant1[2],a
  57  00C3  0700     E  	mov a,re
  57  00C4  0080     E  	mov _builtin_holtek_mant1[1],a
  57  00C5  0700     E  	mov a,rd
  57  00C6  0080     E  	mov _builtin_holtek_mant1[0],a
  57  00C7  2000     E  	call _builtin_holtek_dtol
"File: Main.c        Assembler  Version HGASM0202      Page 19

  57  00C8  0700     E  	mov a,_builtin_holtek_mant12p[0]
  57  00C9  0080     E  	mov rg,a
  57  00CA  0700     E  	mov a,_builtin_holtek_mant1[2]
  57  00CB  0080     E  	mov rf,a
  57  00CC  0700     E  	mov a,_builtin_holtek_mant1[1]
  57  00CD  0080     E  	mov re,a
  57  00CE  0700     E  	mov a,_builtin_holtek_mant1[0]
  57  00CF  0080     E  	mov rd,a
  57  00D0  0700     E  	mov a,rd
  57  00D1  2000     R  	call _batteryPercentage
  57  00D2  0080     E  	mov ra,a
  57  00D3  0700     E  	mov a,ra
  57  00D4  0080     R  	mov _parameter[3],a
  57  00D5              _L50:
  63  00D5              #line 63 "c:\users\tech\desktop\gasdetector\Main\Main.c"
  63  00D5  0700     R  	mov a,_parameter[2]
  63  00D6  0080     E  	mov _builtin_holtek_mant1[2],a
  63  00D7  0700     R  	mov a,_parameter[1]
  63  00D8  0080     E  	mov _builtin_holtek_mant1[1],a
  63  00D9  0700     R  	mov a,_parameter[0]
  63  00DA  0080     E  	mov _builtin_holtek_mant1[0],a
  63  00DB  0F45        	mov a,69
  63  00DC  0080     E  	mov _builtin_holtek_mant2[2],a
  63  00DD  0F87        	mov a,135
  63  00DE  0080     E  	mov _builtin_holtek_mant2[1],a
  63  00DF  0FF0        	mov a,240
  63  00E0  0080     E  	mov _builtin_holtek_mant2[0],a
  63  00E1  2000     E  	call _builtin_holtek_ftsub
  63  00E2  3800     E  	snz _builtin_holtek_mant1[2].7
  63  00E3  2800     R  	jmp _L86
  63  00E4  2800     R  	jmp _L54
  63  00E5              _L86:
  63  00E5  1F00     R  	clr _parameter[0]
  63  00E6  1F00     R  	clr _parameter[1]
  63  00E7  1F00     R  	clr _parameter[2]
  63  00E8              _L54:
  64  00E8              #line 64 "c:\users\tech\desktop\gasdetector\Main\Main.c"
  64  00E8  3B14        	snz [20].6
  64  00E9  2800     R  	jmp _L56
  66  00EA              #line 66 "c:\users\tech\desktop\gasdetector\Main\Main.c"
  66  00EA  0F01        	mov a,1
  66  00EB  0080     E  	mov ra,a
  66  00EC  0700     R  	mov a,_parameter[2]
  66  00ED  0080     E  	mov _builtin_holtek_mant1[2],a
  66  00EE  0700     R  	mov a,_parameter[1]
  66  00EF  0080     E  	mov _builtin_holtek_mant1[1],a
  66  00F0  0700     R  	mov a,_parameter[0]
  66  00F1  0080     E  	mov _builtin_holtek_mant1[0],a
  66  00F2  0F45        	mov a,69
  66  00F3  0080     E  	mov _builtin_holtek_mant2[2],a
  66  00F4  0F4E        	mov a,78
  66  00F5  0080     E  	mov _builtin_holtek_mant2[1],a
  66  00F6  0F40        	mov a,64
  66  00F7  0080     E  	mov _builtin_holtek_mant2[0],a
  66  00F8  2000     E  	call _builtin_holtek_ftsub
  66  00F9  3800     E  	snz _builtin_holtek_mant1[2].7
  66  00FA  2800     R  	jmp _L57
  66  00FB  1F00     E  	clr ra
  66  00FC              _L57:
  66  00FC  0F01        	mov a,1
"File: Main.c        Assembler  Version HGASM0202      Page 20

  66  00FD  0480     E  	xorm a,ra
  66  00FE  0700     E  	mov a,ra
  66  00FF  0080     R  	mov _SupplyStatus[0],a
  66  0100  1F00     R  	clr _SupplyStatus[1]
  66  0101  2800     R  	jmp _L58
  66  0102              _L56:
  70  0102              #line 70 "c:\users\tech\desktop\gasdetector\Main\Main.c"
  70  0102  0F01        	mov a,1
  70  0103  0200     R  	sub a,_SupplyStatus[0]
  70  0104  0F00        	mov a,0
  70  0105  1200     R  	sbc a,_SupplyStatus[1]
  70  0106  380A        	snz c
  70  0107  2800     R  	jmp _L59
  71  0108              #line 71 "c:\users\tech\desktop\gasdetector\Main\Main.c"
  71  0108  0700     R  	mov a,_parameter[2]
  71  0109  0080     E  	mov _builtin_holtek_mant1[2],a
  71  010A  0700     R  	mov a,_parameter[1]
  71  010B  0080     E  	mov _builtin_holtek_mant1[1],a
  71  010C  0700     R  	mov a,_parameter[0]
  71  010D  0080     E  	mov _builtin_holtek_mant1[0],a
  71  010E  0F45        	mov a,69
  71  010F  0080     E  	mov _builtin_holtek_mant2[2],a
  71  0110  0F54        	mov a,84
  71  0111  0080     E  	mov _builtin_holtek_mant2[1],a
  71  0112  0F80        	mov a,128
  71  0113  0080     E  	mov _builtin_holtek_mant2[0],a
  71  0114  2000     E  	call _builtin_holtek_ftsub
  71  0115  3C00     E  	sz _builtin_holtek_mant1[2].7
  71  0116  2800     R  	jmp _L87
  71  0117  0700     E  	mov a,_builtin_holtek_mant1[2]
  71  0118  0500     E  	or a,_builtin_holtek_mant1[1]
  71  0119  0500     E  	or a,_builtin_holtek_mant1[0]
  71  011A  3D0A        	sz z
  71  011B  2800     R  	jmp _L87
  71  011C  0F02        	mov a,2
  71  011D  0080     E  	mov rb,a
  71  011E  1F00     E  	clr rc
  71  011F  2800     R  	jmp _L60
  71  0120              _L87:
  71  0120  0F03        	mov a,3
  71  0121  0080     E  	mov rb,a
  71  0122  1F00     E  	clr rc
  71  0123              _L60:
  71  0123  0700     E  	mov a,rb
  71  0124  0080     R  	mov _SupplyStatus[0],a
  71  0125  0700     E  	mov a,rc
  71  0126  0080     R  	mov _SupplyStatus[1],a
  71  0127              _L59:
  73  0127              #line 73 "c:\users\tech\desktop\gasdetector\Main\Main.c"
  73  0127  0700     R  	mov a,_SupplyStatus[0]
  73  0128  0C03        	xor a,3
  73  0129  0500     R  	or a,_SupplyStatus[1]
  73  012A  390A        	snz z
  73  012B  2800     R  	jmp _L63
  76  012C              #line 76 "c:\users\tech\desktop\gasdetector\Main\Main.c"
  76  012C  0700     R  	mov a,_parameter[2]
  76  012D  0080     E  	mov _builtin_holtek_mant1[2],a
  76  012E  0700     R  	mov a,_parameter[1]
  76  012F  0080     E  	mov _builtin_holtek_mant1[1],a
  76  0130  0700     R  	mov a,_parameter[0]
"File: Main.c        Assembler  Version HGASM0202      Page 21

  76  0131  0080     E  	mov _builtin_holtek_mant1[0],a
  76  0132  0F45        	mov a,69
  76  0133  0080     E  	mov _builtin_holtek_mant2[2],a
  76  0134  0F5A        	mov a,90
  76  0135  0080     E  	mov _builtin_holtek_mant2[1],a
  76  0136  0FC0        	mov a,192
  76  0137  0080     E  	mov _builtin_holtek_mant2[0],a
  76  0138  2000     E  	call _builtin_holtek_ftsub
  76  0139  3800     E  	snz _builtin_holtek_mant1[2].7
  76  013A  2800     R  	jmp _L88
  77  013B              #line 77 "c:\users\tech\desktop\gasdetector\Main\Main.c"
  77  013B  0FE8        	mov a,-24
  77  013C  0080     R  	mov _counter[0],a
  77  013D  0F03        	mov a,3
  77  013E  0080     R  	mov _counter[1],a
  77  013F  2800     R  	jmp _L66
  77  0140              _L88:
  76  0140              #line 76 "c:\users\tech\desktop\gasdetector\Main\Main.c"
  76  0140  0FFF        	mov a,255
  76  0141  0380     R  	addm a,_counter[0]
  76  0142  0FFF        	mov a,255
  76  0143  1380     R  	adcm a,_counter[1]
  76  0144              _L66:
  78  0144              #line 78 "c:\users\tech\desktop\gasdetector\Main\Main.c"
  78  0144  0700     R  	mov a,_counter[0]
  78  0145  0500     R  	or a,_counter[1]
  78  0146  390A        	snz z
  78  0147  2800     R  	jmp _L63
  78  0148  0F02        	mov a,2
  78  0149  0080     R  	mov _SupplyStatus[0],a
  78  014A  1F00     R  	clr _SupplyStatus[1]
  78  014B  0FE8        	mov a,-24
  78  014C  0080     R  	mov _counter[0],a
  78  014D  0F03        	mov a,3
  78  014E  0080     R  	mov _counter[1],a
  78  014F              _L63:
  80  014F              #line 80 "c:\users\tech\desktop\gasdetector\Main\Main.c"
  80  014F  0700     R  	mov a,_SupplyStatus[0]
  80  0150  0C02        	xor a,2
  80  0151  0500     R  	or a,_SupplyStatus[1]
  80  0152  390A        	snz z
  80  0153  2800     R  	jmp _L58
  82  0154              #line 82 "c:\users\tech\desktop\gasdetector\Main\Main.c"
  82  0154  0700     R  	mov a,_parameter[2]
  82  0155  0080     E  	mov _builtin_holtek_mant1[2],a
  82  0156  0700     R  	mov a,_parameter[1]
  82  0157  0080     E  	mov _builtin_holtek_mant1[1],a
  82  0158  0700     R  	mov a,_parameter[0]
  82  0159  0080     E  	mov _builtin_holtek_mant1[0],a
  82  015A  0F45        	mov a,69
  82  015B  0080     E  	mov _builtin_holtek_mant2[2],a
  82  015C  0F48        	mov a,72
  82  015D  0080     E  	mov _builtin_holtek_mant2[1],a
  82  015E  0F00        	mov a,0
  82  015F  0080     E  	mov _builtin_holtek_mant2[0],a
  82  0160  2000     E  	call _builtin_holtek_ftsub
  82  0161  3C00     E  	sz _builtin_holtek_mant1[2].7
  82  0162  2800     R  	jmp _L89
  82  0163  0700     E  	mov a,_builtin_holtek_mant1[2]
  82  0164  0500     E  	or a,_builtin_holtek_mant1[1]
"File: Main.c        Assembler  Version HGASM0202      Page 22

  82  0165  0500     E  	or a,_builtin_holtek_mant1[0]
  82  0166  3D0A        	sz z
  82  0167  2800     R  	jmp _L89
  83  0168              #line 83 "c:\users\tech\desktop\gasdetector\Main\Main.c"
  83  0168  0FE8        	mov a,-24
  83  0169  0080     R  	mov _counter[0],a
  83  016A  0F03        	mov a,3
  83  016B  0080     R  	mov _counter[1],a
  83  016C  2800     R  	jmp _L71
  83  016D              _L89:
  82  016D              #line 82 "c:\users\tech\desktop\gasdetector\Main\Main.c"
  82  016D  0FFF        	mov a,255
  82  016E  0380     R  	addm a,_counter[0]
  82  016F  0FFF        	mov a,255
  82  0170  1380     R  	adcm a,_counter[1]
  82  0171              _L71:
  84  0171              #line 84 "c:\users\tech\desktop\gasdetector\Main\Main.c"
  84  0171  0700     R  	mov a,_counter[0]
  84  0172  0500     R  	or a,_counter[1]
  84  0173  390A        	snz z
  84  0174  2800     R  	jmp _L58
  84  0175  0F03        	mov a,3
  84  0176  0080     R  	mov _SupplyStatus[0],a
  84  0177  1F00     R  	clr _SupplyStatus[1]
  84  0178  0FE8        	mov a,-24
  84  0179  0080     R  	mov _counter[0],a
  84  017A  0F03        	mov a,3
  84  017B  0080     R  	mov _counter[1],a
  84  017C              _L58:
  90  017C              #line 90 "c:\users\tech\desktop\gasdetector\Main\Main.c"
  90  017C  0700     R  	mov a,_Mode[0]
  90  017D  0500     R  	or a,_Mode[1]
  90  017E  3D0A        	sz z
  90  017F  2800     R  	jmp _L74
  90  0180  0700     R  	mov a,_Mode[0]
  90  0181  0C01        	xor a,1
  90  0182  0500     R  	or a,_Mode[1]
  90  0183  3D0A        	sz z
  90  0184  2800     R  	jmp _L75
  90  0185  0700     R  	mov a,_Mode[0]
  90  0186  0C02        	xor a,2
  90  0187  0500     R  	or a,_Mode[1]
  90  0188  3D0A        	sz z
  90  0189  2800     R  	jmp _L76
  90  018A  0700     R  	mov a,_Mode[0]
  90  018B  0C03        	xor a,3
  90  018C  0500     R  	or a,_Mode[1]
  90  018D  3D0A        	sz z
  90  018E  2800     R  	jmp _L77
  90  018F  0700     R  	mov a,_Mode[0]
  90  0190  0C04        	xor a,4
  90  0191  0500     R  	or a,_Mode[1]
  90  0192  390A        	snz z
  90  0193  2800     R  	jmp _L79
  90  0194              #pragma debug scope 18 17
  90  0194              ;begin block, line: 90.-1
 132  0194              #line 132 "c:\users\tech\desktop\gasdetector\Main\Main.c"
 132  0194  2000     R  	call _handleSensorErrorMode
 133  0195              #line 133 "c:\users\tech\desktop\gasdetector\Main\Main.c"
 133  0195  2800     R  	jmp _L79
"File: Main.c        Assembler  Version HGASM0202      Page 23

 133  0196              _L74:
  93  0196              #line 93 "c:\users\tech\desktop\gasdetector\Main\Main.c"
  93  0196  0F00        	mov a,0
  93  0197  2000     E  	call _S_READ_ADC
  93  0198  0700     E  	mov a,ra
  93  0199  0200     R  	sub a,_parameter[4]
  93  019A  0080     E  	mov rc,a
  93  019B  0700     E  	mov a,rb
  93  019C  1200     R  	sbc a,_parameter[5]
  93  019D  0080     E  	mov rd,a
  93  019E  0700     E  	mov a,rc
  93  019F  0080     E  	mov _abs_2[0],a
  93  01A0  0700     E  	mov a,rd
  93  01A1  0080     E  	mov _abs_2[1],a
  93  01A2  2000     E  	call _abs
  93  01A3  0F01        	mov a,1
  93  01A4  0200     E  	sub a,ra
  93  01A5  0F00        	mov a,0
  93  01A6  1200     E  	sbc a,rb
  93  01A7  1185        	swap acc
  93  01A8  040A        	xor a,status
  93  01A9  3985        	snz acc.3
  93  01AA  2800     R  	jmp _L80
  95  01AB              #line 95 "c:\users\tech\desktop\gasdetector\Main\Main.c"
  95  01AB  0F00        	mov a,0
  95  01AC  2000     E  	call _S_READ_ADC
  95  01AD  0700     E  	mov a,ra
  95  01AE  0080     R  	mov _parameter[4],a
  95  01AF  0700     E  	mov a,rb
  95  01B0  0080     R  	mov _parameter[5],a
  95  01B1              _L80:
  99  01B1              #line 99 "c:\users\tech\desktop\gasdetector\Main\Main.c"
  99  01B1  0700     R  	mov a,_SupplyStatus[0]
  99  01B2  0500     R  	or a,_SupplyStatus[1]
  99  01B3  3D0A        	sz z
  99  01B4  2800     R  	jmp _L81
  99  01B5  0700     R  	mov a,_SupplyStatus[0]
  99  01B6  0C01        	xor a,1
  99  01B7  0500     R  	or a,_SupplyStatus[1]
  99  01B8  3D0A        	sz z
  99  01B9  2800     R  	jmp _L82
  99  01BA  0700     R  	mov a,_SupplyStatus[0]
  99  01BB  0C02        	xor a,2
  99  01BC  0500     R  	or a,_SupplyStatus[1]
  99  01BD  3D0A        	sz z
  99  01BE  2800     R  	jmp _L83
  99  01BF  0700     R  	mov a,_SupplyStatus[0]
  99  01C0  0C03        	xor a,3
  99  01C1  0500     R  	or a,_SupplyStatus[1]
  99  01C2  390A        	snz z
  99  01C3  2800     R  	jmp _L79
 114  01C4              #line 114 "c:\users\tech\desktop\gasdetector\Main\Main.c"
 114  01C4  2000     R  	call _lowBatteryHandler
 115  01C5              #line 115 "c:\users\tech\desktop\gasdetector\Main\Main.c"
 115  01C5  2800     R  	jmp _L79
 115  01C6              _L81:
 102  01C6              #line 102 "c:\users\tech\desktop\gasdetector\Main\Main.c"
 102  01C6  2000     R  	call _normalPowerHandler
 103  01C7              #line 103 "c:\users\tech\desktop\gasdetector\Main\Main.c"
 103  01C7  2800     R  	jmp _L79
"File: Main.c        Assembler  Version HGASM0202      Page 24

 103  01C8              _L82:
 106  01C8              #line 106 "c:\users\tech\desktop\gasdetector\Main\Main.c"
 106  01C8  2000     R  	call _batteryErrorHandler
 107  01C9              #line 107 "c:\users\tech\desktop\gasdetector\Main\Main.c"
 107  01C9  2800     R  	jmp _L79
 107  01CA              _L83:
 110  01CA              #line 110 "c:\users\tech\desktop\gasdetector\Main\Main.c"
 110  01CA  2000     R  	call _supplyErrorHandler
 111  01CB              #line 111 "c:\users\tech\desktop\gasdetector\Main\Main.c"
 111  01CB  2800     R  	jmp _L79
 111  01CC              _L76:
 120  01CC              #line 120 "c:\users\tech\desktop\gasdetector\Main\Main.c"
 120  01CC  2000     R  	call _handleTestMode
 121  01CD              #line 121 "c:\users\tech\desktop\gasdetector\Main\Main.c"
 121  01CD  2800     R  	jmp _L79
 121  01CE              _L75:
 124  01CE              #line 124 "c:\users\tech\desktop\gasdetector\Main\Main.c"
 124  01CE  0F00     R  	mov a,low (offset _parameter+3)
 124  01CF  0080     R  	mov _handleCheckBatteryMode_2[0],a
 124  01D0  0F00     R  	mov a,high (offset _parameter+3)
 124  01D1  0080     R  	mov _handleCheckBatteryMode_2[1],a
 124  01D2  2000     R  	call _handleCheckBatteryMode
 125  01D3              #line 125 "c:\users\tech\desktop\gasdetector\Main\Main.c"
 125  01D3  2800     R  	jmp _L79
 125  01D4              _L77:
 128  01D4              #line 128 "c:\users\tech\desktop\gasdetector\Main\Main.c"
 128  01D4  2000     R  	call _handleDetectMode
 129  01D5              #line 129 "c:\users\tech\desktop\gasdetector\Main\Main.c"
 129  01D5  2800     R  	jmp _L79
 129  01D6              #pragma debug scope 17 1
 129  01D6  2800     R  	jmp $
 129  01D7              _main endp
 129  01D7              
 129  01D7              @dummy endp
 129  01D7              
 129  01D7              #line 129 "c:\users\tech\desktop\gasdetector\Main\Main.c"
 129  01D7              #pragma debug scope 1 1
 129  0000              @HCCINIT	.section 'data'
 317  0000              #line 317 "c:\users\tech\desktop\gasdetector\Main\Main.c"
 317  0000              @HCCINIT .section 'data'
 317  0000              ___Counter_1826 label byte
 317  0000              #pragma debug variable 11 11 ___Counter_1826 "Counter"
 317  0000              	db 0
 317  0000              @ROMDATA_BASE .section inpage 'code'
 317  0000              	db 0
 317  0001              @HCCINIT .section 'data'
 317  0001              	db 0
 317  0001              @ROMDATA_BASE .section inpage 'code'
 317  0001              	db 0
 317  0002              @HCCINIT .section 'data'
 298  0002              #line 298 "c:\users\tech\desktop\gasdetector\Main\Main.c"
 298  0002              @HCCINIT .section 'data'
 298  0002              ___Counter_1822 label byte
 298  0002              #pragma debug variable 11 14 ___Counter_1822 "Counter"
 298  0002              	db 0
 298  0001              @ROMDATA_BASE .section inpage 'code'
 298  0001              	db 0
 298  0003              @HCCINIT .section 'data'
 298  0003              	db 0
 298  0002              @ROMDATA_BASE .section inpage 'code'
"File: Main.c        Assembler  Version HGASM0202      Page 25

 298  0002              	db 0
 298  0004              @HCCINIT .section 'data'
 278  0004              #line 278 "c:\users\tech\desktop\gasdetector\Main\Main.c"
 278  0004              @HCCINIT .section 'data'
 278  0004              ___Counter_1818 label byte
 278  0004              #pragma debug variable 11 13 ___Counter_1818 "Counter"
 278  0004              	dw 2000
 278  0002              @ROMDATA_BASE .section inpage 'code'
 278  0002  07D0        	dc 2000
 278  0006              @HCCINIT .section 'data'
 252  0006              #line 252 "c:\users\tech\desktop\gasdetector\Main\Main.c"
 252  0006              @HCCINIT .section 'data'
 252  0006              ___buffer_1809 label byte
 252  0006              #pragma debug variable 7 9 ___buffer_1809 "buffer"
 252  0006              	db 0
 252  0003              @ROMDATA_BASE .section inpage 'code'
 252  0003              	db 0
 252  0007              @HCCINIT .section 'data'
 185  0007              #line 185 "c:\users\tech\desktop\gasdetector\Main\Main.c"
 185  0007              @HCCINIT .section 'data'
 185  0007              ___Counter_1793 label byte
 185  0007              #pragma debug variable 12 4 ___Counter_1793 "Counter"
 185  0007              	db 0
 185  0004              @ROMDATA_BASE .section inpage 'code'
 185  0004              	db 0
 185  0008              @HCCINIT .section 'data'
 185  0008              	db 0
 185  0004              @ROMDATA_BASE .section inpage 'code'
 185  0004              	db 0
 185  0009              @HCCINIT .section 'data'
 184  0009              #line 184 "c:\users\tech\desktop\gasdetector\Main\Main.c"
 184  0009              @HCCINIT .section 'data'
 184  0009              ___DelayCounter_1792 label byte
 184  0009              #pragma debug variable 12 4 ___DelayCounter_1792 "DelayCounter"
 184  0009              	dw -32536
 184  0005              @ROMDATA_BASE .section inpage 'code'
 184  0005  80E8        	dc -32536
 184  000B              @HCCINIT .section 'data'
 163  000B              #line 163 "c:\users\tech\desktop\gasdetector\Main\Main.c"
 163  000B              @HCCINIT .section 'data'
 163  000B              ___counter_1788 label byte
 163  000B              #pragma debug variable 11 3 ___counter_1788 "counter"
 163  000B              	db 0
 163  0006              @ROMDATA_BASE .section inpage 'code'
 163  0006              	db 0
 163  000C              @HCCINIT .section 'data'
 163  000C              	db 0
 163  0006              @ROMDATA_BASE .section inpage 'code'
 163  0006              	db 0
 163  000D              @HCCINIT .section 'data'
 140  000D              #line 140 "c:\users\tech\desktop\gasdetector\Main\Main.c"
 140  000D              @HCCINIT .section 'data'
 140  000D              ___counter_1784 label byte
 140  000D              #pragma debug variable 11 2 ___counter_1784 "counter"
 140  000D              	db 0
 140  0007              @ROMDATA_BASE .section inpage 'code'
 140  0007              	db 0
 140  000E              @HCCINIT .section 'data'
 140  000E              	db 0
 140  0007              @ROMDATA_BASE .section inpage 'code'
"File: Main.c        Assembler  Version HGASM0202      Page 26

 140  0007              	db 0
 140  000F              @HCCINIT .section 'data'

 168  000F              #line 168 "C:\Users\Tech\Desktop\GasDetector\Main/Main.h"
 168  000F              public _SupplyStatus
 168  0000              @HCCINIT0 .section 'data'
 168  0000  0002[       _SupplyStatus	db 2 dup(0)
            00
            ]
 168  0002              #pragma debug variable 12 1 _SupplyStatus "SupplyStatus"
 168  0002              
 168  000F              @HCCINIT .section 'data'
 157  000F              #line 157 "C:\Users\Tech\Desktop\GasDetector\Main/Main.h"
 157  000F              public _Mode
 157  0002              @HCCINIT0 .section 'data'
 157  0002  0002[       _Mode	db 2 dup(0)
            00
            ]
 157  0004              #pragma debug variable 12 1 _Mode "Mode"
 157  0004              
 157  000F              @HCCINIT .section 'data'
 145  000F              #line 145 "C:\Users\Tech\Desktop\GasDetector\Main/Main.h"
 145  000F              public _parameter
 145  0004              @HCCINIT0 .section 'data'
 145  0004  0009[       _parameter	db 9 dup(0)
            00
            ]
 145  000D              #pragma debug struct_end
 145  000D              #pragma debug struct_end
 145  000D              #pragma debug variable 44 1 _parameter "parameter"
 145  000D              
 145  000F              @HCCINIT .section 'data'
 145  000F              public _pushButtonState
 134  000F              #line 134 "C:\Users\Tech\Desktop\GasDetector\Main/Main.h"
 134  0000              @BITDATASEC .section 'data'
 134  0000  00          _pushButtonState	dbit 0
 134  0001              #pragma debug variable 2 1 _pushButtonState "pushButtonState"
 129  0001              #line 129 "C:\Users\Tech\Desktop\GasDetector\Main/Main.h"
 129  0001              public _vdd
 129  000D              @HCCINIT0 .section 'data'
 129  000D  0002[       _vdd	db 2 dup(0)
            00
            ]
 129  000F              #pragma debug variable 12 1 _vdd "vdd"
 129  000F              
 129  000F              @HCCINIT .section 'data'
 129  000F              public _counter
  85  000F              #line 85 "C:\Users\Tech\Desktop\GasDetector\Main/Main.h"
  85  000F              @HCCINIT .section 'data'
  85  000F              _counter label byte
  85  000F              #pragma debug variable 10 1 _counter "counter"
  85  000F              	dw 1000
  85  0008              @ROMDATA_BASE .section inpage 'code'
  85  0008  03E8        	dc 1000
  85  0011              @HCCINIT .section 'data'
  85  0011              #pragma debug struct_end
  85  0011              #pragma debug struct_end
  85  0011              #pragma debug union_end
  85  0011              #pragma debug union_end
  85  0011              #pragma debug variable 46 1 ___lvrc "__lvrc" 1
"File: Main/Main.h   Assembler  Version HGASM0202      Page 27

  85  0011              #pragma debug struct_end
  85  0011              #pragma debug struct_end
  85  0011              #pragma debug union_end
  85  0011              #pragma debug union_end
  85  0011              #pragma debug variable 48 1 ___scc "__scc" 1
  85  0011              #pragma debug struct_end
  85  0011              #pragma debug struct_end
  85  0011              #pragma debug union_end
  85  0011              #pragma debug union_end
  85  0011              #pragma debug variable 50 1 ___pa "__pa" 1
  85  0011              #pragma debug struct_end
  85  0011              #pragma debug struct_end
  85  0011              #pragma debug union_end
  85  0011              #pragma debug union_end
  85  0011              #pragma debug variable 52 1 ___pac "__pac" 1
  85  0011              #pragma debug struct_end
  85  0011              #pragma debug struct_end
  85  0011              #pragma debug union_end
  85  0011              #pragma debug union_end
  85  0011              #pragma debug variable 54 1 ___lvpuc "__lvpuc" 1
  85  0011              #pragma debug struct_end
  85  0011              #pragma debug struct_end
  85  0011              #pragma debug union_end
  85  0011              #pragma debug union_end
  85  0011              #pragma debug variable 56 1 ___wdtc "__wdtc" 1
  85  0011              #pragma debug struct_end
  85  0011              #pragma debug struct_end
  85  0011              #pragma debug union_end
  85  0011              #pragma debug union_end
  85  0011              #pragma debug variable 58 1 ___pb "__pb" 1
  85  0011              #pragma debug struct_end
  85  0011              #pragma debug struct_end
  85  0011              #pragma debug union_end
  85  0011              #pragma debug union_end
  85  0011              #pragma debug variable 60 1 ___pbc "__pbc" 1
  85  0011              #pragma debug struct_end
  85  0011              #pragma debug struct_end
  85  0011              #pragma debug union_end
  85  0011              #pragma debug union_end
  85  0011              #pragma debug variable 62 1 ___pbpu "__pbpu" 1
  85  0011              #pragma debug struct_end
  85  0011              #pragma debug struct_end
  85  0011              #pragma debug union_end
  85  0011              #pragma debug union_end
  85  0011              #pragma debug variable 64 1 ___pc "__pc" 1
  85  0011              #pragma debug struct_end
  85  0011              #pragma debug struct_end
  85  0011              #pragma debug union_end
  85  0011              #pragma debug union_end
  85  0011              #pragma debug variable 66 1 ___pcc "__pcc" 1
  85  0011              #pragma debug struct_end
  85  0011              #pragma debug struct_end
  85  0011              #pragma debug union_end
  85  0011              #pragma debug union_end
  85  0011              #pragma debug variable 68 1 ___pdc "__pdc" 1
  85  0011              #pragma debug struct_end
  85  0011              #pragma debug struct_end
  85  0011              #pragma debug union_end
  85  0011              #pragma debug union_end
  85  0011              #pragma debug variable 70 1 ___pas0 "__pas0" 1
"File: Main/Main.h   Assembler  Version HGASM0202      Page 28

  85  0011              #pragma debug struct_end
  85  0011              #pragma debug struct_end
  85  0011              #pragma debug union_end
  85  0011              #pragma debug union_end
  85  0011              #pragma debug variable 72 1 ___pas1 "__pas1" 1
  85  0011              #pragma debug struct_end
  85  0011              #pragma debug struct_end
  85  0011              #pragma debug union_end
  85  0011              #pragma debug union_end
  85  0011              #pragma debug variable 74 1 ___pbs0 "__pbs0" 1
  85  0011              #pragma debug struct_end
  85  0011              #pragma debug struct_end
  85  0011              #pragma debug union_end
  85  0011              #pragma debug union_end
  85  0011              #pragma debug variable 76 1 ___pbs1 "__pbs1" 1
  85  0011              #pragma debug struct_end
  85  0011              #pragma debug struct_end
  85  0011              #pragma debug union_end
  85  0011              #pragma debug union_end
  85  0011              #pragma debug variable 78 1 ___pcs0 "__pcs0" 1
  85  0011              #pragma debug struct_end
  85  0011              #pragma debug struct_end
  85  0011              #pragma debug union_end
  85  0011              #pragma debug union_end
  85  0011              #pragma debug variable 80 1 ___pcs1 "__pcs1" 1
  85  0011              #pragma debug struct_end
  85  0011              #pragma debug struct_end
  85  0011              #pragma debug union_end
  85  0011              #pragma debug union_end
  85  0011              #pragma debug variable 82 1 ___pds0 "__pds0" 1

   5  0011              #line 5 "c:\users\tech\desktop\gasdetector\Main\Main.c"
   5  0000              @code .section at 0 'code'
   5  0000  2800     R  	jmp _main_startup1
   5  0001              
   5  0001              extern _Display_2:byte
   5  0001              extern _Display:near
   5  0001              extern _DisplayError_2:byte
   5  0001              extern _DisplayError:near
   5  0001              extern _DisplayLoading:near
   5  0001              extern _abs_2:byte
   5  0001              extern _abs:near
   5  0001              extern _S_ADC_Init:near
   5  0001              extern _S_READ_ADC:near
   5  0001              extern _builtin_holtek_mant1:byte
   5  0001              extern _builtin_holtek_mant12p:byte
   5  0001              extern _builtin_holtek_signs:byte
   5  0001              extern _builtin_holtek_uitod:near
   5  0001              extern _builtin_holtek_mant2:byte
   5  0001              extern _builtin_holtek_dtmul:near
   5  0001              extern _builtin_holtek_dtsub:near
   5  0001              extern _builtin_holtek_dtol:near
   5  0001              extern _builtin_holtek_ftsub:near
   5  0001              
   5  0001              ; 
   5  0001              ; Generated by holtek-gcc v3.19, Sat Jul 20 16:05:18 2024
   5  0001              ; Rebuild 718
   5  0001              ; end of file


"File: Main.c        Assembler  Version HGASM0202      Page 29

        0 Errors, 0