"File: Main.c        Assembler  Version HGASM0202      Page 1


   1  0000              ; Generated by holtek-gcc v3.19, Tue Jun 11 18:01:19 2024
   2  0000              ; 
   3  0000              ; Configuration:
   4  0000              ;       without long instruction
   5  0000              ;       Single ROM, Multi-RAM
   6  0000              ;       bits_per_rom_unit:16
   7  0000              ;       with mp1
   8  0000              ;       with tbhp, address(0x9)
   9  0000              ;          Use tabrd-const
  10  0000              ;       
  11  0000              ;       
  12  0000              ;       
  13  0000              ; use 'tabrdc' instead of 'tabrd'
  14  0000              ;       
  15  0000              
  16  0000              #pragma translator "holtek-gcc 4.6.4" "3.19" "build 20130711"
  17  0000              ; Rebuild 718
  18  0000              
  19  0000              ir equ [2]
  20  0000              mp equ [3]
  21  0000              sbp equ [1]
  22  0000              acc equ [5]
  23  0000              bp equ [4]
  24  0000              tblp equ [7]
  25  0000              tbhp equ [9]
  26  0000              status equ [10]
  27  0000              c equ [10].0
  28  0000              ac equ [10].1
  29  0000              z equ [10].2
  30  0000              ov equ [10].3
  31  0000              intc equ [11]
  32  0000              
  33  0000              extern ra:byte
  34  0000              extern rb:byte
  35  0000              extern rc:byte
  36  0000              extern rd:byte
  37  0000              extern re:byte
  38  0000              extern rf:byte
  39  0000              extern rg:byte
  40  0000              extern rh:byte
  41  0000              extern _Crom2Prom:near
  42  0000              extern _Crom2PromNext:near
  43  0000              
  44  0000              RAMBANK 0 @HCCINIT, @HCCINIT0
  45  0000              
  46  0000              RAMBANK 0 @BITDATASEC, @BITDATASEC1
  47  0000              @HCCINIT	.section 'data'
  48  0000              @HCCINIT0	.section 'data'
  49  0000              @BITDATASEC	 .section 'data'
  50  0000              @BITDATASEC1	 .section 'data'
  51  0000              
  52  0000              #pragma debug scope 1 1
  53  0000              	extern __DELAY3:near
  54  0000              	extern __DELAYX3:near
  55  0000              	extern __DELAYX6:near
  56  0000              	extern __DELAYY5:near
  57  0000              	extern __DELAYY3:near
  58  0000              	extern _builtin_holtek_delay_2:byte
  59  0000              ___pa equ [20]
"File: Main.ASM      Assembler  Version HGASM0202      Page 2

  60  0000              public _buzzerDoull
  61  0000              #pragma debug scope 2 1

 474  0000              #line 474 "c:\users\tech\desktop\gasdetector\Main\Main.c"
 474  0000              _buzzerDoull .section 'code'
 474  0000              _buzzerDoull proc
 474  0000              public _buzzerDoull_2
 474  0000  0002[           local _buzzerDoull_2 db 2 dup(?)	; 2,0
            00
            ]
 474  0002              #pragma debug pointer 42 11 2
 474  0002              #pragma debug pointer 42 11 2
 474  0002              #pragma debug variable 42 2 _buzzerDoull_2+0 "Cunter"
 475  0002              #line 475 "c:\users\tech\desktop\gasdetector\Main\Main.c"
 475  0000  0700     R  	mov a,_buzzerDoull_2[0]
 475  0001  0080     E  	mov rd,a
 475  0002  0700     R  	mov a,_buzzerDoull_2[1]
 475  0003  0080     E  	mov re,a
 475  0004  0700     E  	mov a,rd
 475  0005  0083        	mov mp,a
 475  0006  0700     E  	mov a,re
 475  0007  0081        	mov sbp,a
 475  0008  2000     E  	call _Crom2Prom
 475  0009  0080     E  	mov rb,a
 475  000A  2000     E  	call _Crom2PromNext
 475  000B  0080     E  	mov rc,a
 475  000C  0F7F        	mov a,127
 475  000D  0300     E  	add a,rb
 475  000E  0080     E  	mov rf,a
 475  000F  0FF8        	mov a,248
 475  0010  1300     E  	adc a,rc
 475  0011  0080     E  	mov rg,a
 475  0012  0F1C        	mov a,28
 475  0013  0200     E  	sub a,rf
 475  0014  0F00        	mov a,0
 475  0015  1200     E  	sbc a,rg
 475  0016  3C0A        	sz c
 475  0017  2800     R  	jmp _L7
 479  0018              #line 479 "c:\users\tech\desktop\gasdetector\Main\Main.c"
 479  0018  0F61        	mov a,97
 479  0019  0300     E  	add a,rb
 479  001A  0080     E  	mov rf,a
 479  001B  0FF8        	mov a,248
 479  001C  1300     E  	adc a,rc
 479  001D  0080     E  	mov rg,a
 479  001E  0F12        	mov a,18
 479  001F  0200     E  	sub a,rf
 479  0020  0F00        	mov a,0
 479  0021  1200     E  	sbc a,rg
 479  0022  380A        	snz c
 479  0023  2800     R  	jmp _L4
 481  0024              #line 481 "c:\users\tech\desktop\gasdetector\Main\Main.c"
 481  0024  3614        	clr [20].4
 481  0025  2800     R  	jmp _L3
 481  0026              _L4:
 483  0026              #line 483 "c:\users\tech\desktop\gasdetector\Main\Main.c"
 483  0026  0FB2        	mov a,178
 483  0027  0200     E  	sub a,rb
 483  0028  0F07        	mov a,7
 483  0029  1200     E  	sbc a,rc
"File: Main.c        Assembler  Version HGASM0202      Page 3

 483  002A  1185        	swap acc
 483  002B  040A        	xor a,status
 483  002C  3985        	snz acc.3
 483  002D  2800     R  	jmp _L5
 483  002E              _L7:
 485  002E              #line 485 "c:\users\tech\desktop\gasdetector\Main\Main.c"
 485  002E  3214        	set [20].4
 485  002F  2800     R  	jmp _L3
 485  0030              _L5:
 489  0030              #line 489 "c:\users\tech\desktop\gasdetector\Main\Main.c"
 489  0030  3614        	clr [20].4
 489  0031  2800     R  	jmp _L1
 489  0032              _L3:
 491  0032              #line 491 "c:\users\tech\desktop\gasdetector\Main\Main.c"
 491  0032  0FD0        	mov a,208
 491  0033  0200     E  	sub a,rb
 491  0034  0F07        	mov a,7
 491  0035  1200     E  	sbc a,rc
 491  0036  1185        	swap acc
 491  0037  040A        	xor a,status
 491  0038  3985        	snz acc.3
 491  0039  2800     R  	jmp _L1
 491  003A  0700     E  	mov a,rd
 491  003B  0083        	mov mp,a
 491  003C  0700     E  	mov a,re
 491  003D  0081        	mov sbp,a
 491  003E  0701        	mov a,sbp
 491  003F  0084        	mov bp,a
 491  0040  1F02        	clr ir
 491  0041  1483        	inc mp
 491  0042  1F02        	clr ir
 491  0043              _L1:
 491  0043  0003        	ret
 491  0044              _buzzerDoull endp
 491  0044              #line 491 "c:\users\tech\desktop\gasdetector\Main\Main.c"
 491  0044              #pragma debug scope 1 1
 491  0044              ___scc equ [16]
 491  0044              ___wdtc equ [25]
 491  0044              ___lvrc equ [12]
 491  0044              ___lvpuc equ [24]
 491  0044              ___pac equ [21]
 491  0044              ___pbc equ [28]
 491  0044              ___pcc equ [32]
 491  0044              ___pdc equ [36]
 491  0044              ___pas1 equ [86]
 491  0044              ___pas0 equ [85]
 491  0044              ___pbs1 equ [88]
 491  0044              ___pbs0 equ [87]
 491  0044              ___pcs1 equ [90]
 491  0044              ___pcs0 equ [89]
 491  0044              ___pds0 equ [91]
 491  0044              ___pbpu equ [29]
 491  0044              ___tb0c equ [76]
 491  0044              ___pscr equ [75]
 491  0044              ___intc1 equ [80]
 491  0044              ___tb1c equ [77]
 491  0044              ___vbgc equ [13]
 491  0044              ___pc equ [31]
 491  0044              ___pb equ [27]
 491  0044              public _main
"File: Main.c        Assembler  Version HGASM0202      Page 4

 491  0044              #pragma debug scope 3 1
   7  0044              #line 7 "c:\users\tech\desktop\gasdetector\Main\Main.c"
   7  0044              IFDEF WITH_DEFAULT_STARTUP
   7  0044              extern _main_initial0:near
   7  0044              extern _main_startup:near
   7  0044              ENDIF
   7  0044              
   7  0044              ROMBANK 0 @start
   7  0000              @start .section com_l 'code'
   7  0000              _main_startup1:
   7  0000              @start .section com_e 'code'
   7  0000  2800     R  	jmp _main
   7  0001              
   7  0000              _main .section 'code'
   7  0000              _main proc
   7  0000  0004[           local _main_2 db 4 dup(?)
            00
            ]
  11  0004              #line 11 "c:\users\tech\desktop\gasdetector\Main\Main.c"
  11  0000  3690        	clr [16].5
  12  0001              #line 12 "c:\users\tech\desktop\gasdetector\Main\Main.c"
  12  0001  3710        	clr [16].6
  13  0002              #line 13 "c:\users\tech\desktop\gasdetector\Main\Main.c"
  13  0002  3790        	clr [16].7
  14  0003              #line 14 "c:\users\tech\desktop\gasdetector\Main\Main.c"
  14  0003  3510        	clr [16].2
  15  0004              #line 15 "c:\users\tech\desktop\gasdetector\Main\Main.c"
  15  0004  3010        	set [16].0
  17  0005              #line 17 "c:\users\tech\desktop\gasdetector\Main\Main.c"
  17  0005  0FAF        	mov a,175
  17  0006  0099        	mov [25],a
  19  0007              #line 19 "c:\users\tech\desktop\gasdetector\Main\Main.c"
  19  0007  0FA5        	mov a,165
  19  0008  008C        	mov [12],a
  23  0009              #line 23 "c:\users\tech\desktop\gasdetector\Main\Main.c"
  23  0009  3418        	clr [24].0
  25  000A              #line 25 "c:\users\tech\desktop\gasdetector\Main\Main.c"
  25  000A  0F69        	mov a,105
  25  000B  0695        	andm a,[21]
  26  000C              #line 26 "c:\users\tech\desktop\gasdetector\Main\Main.c"
  26  000C  0F06        	mov a,6
  26  000D  0595        	orm a,[21]
  28  000E              #line 28 "c:\users\tech\desktop\gasdetector\Main\Main.c"
  28  000E  071C        	mov a,[28]
  28  000F  0080     E  	mov ra,a
  28  0010  1F1C        	clr [28]
  29  0011              #line 29 "c:\users\tech\desktop\gasdetector\Main\Main.c"
  29  0011  0F0B        	mov a,11
  29  0012  059C        	orm a,[28]
  31  0013              #line 31 "c:\users\tech\desktop\gasdetector\Main\Main.c"
  31  0013  0720        	mov a,[32]
  31  0014  0080     E  	mov ra,a
  31  0015  1F20        	clr [32]
  34  0016              #line 34 "c:\users\tech\desktop\gasdetector\Main\Main.c"
  34  0016  0724        	mov a,[36]
  34  0017  0080     E  	mov ra,a
  34  0018  1F24        	clr [36]
  37  0019              #line 37 "c:\users\tech\desktop\gasdetector\Main\Main.c"
  37  0019  1F56        	clr [86]
  38  001A              #line 38 "c:\users\tech\desktop\gasdetector\Main\Main.c"
"File: Main.c        Assembler  Version HGASM0202      Page 5

  38  001A  0F08        	mov a,8
  38  001B  00D5        	mov [85],a
  40  001C              #line 40 "c:\users\tech\desktop\gasdetector\Main\Main.c"
  40  001C  1F58        	clr [88]
  41  001D              #line 41 "c:\users\tech\desktop\gasdetector\Main\Main.c"
  41  001D  0F0A        	mov a,10
  41  001E  00D7        	mov [87],a
  43  001F              #line 43 "c:\users\tech\desktop\gasdetector\Main\Main.c"
  43  001F  1F5A        	clr [90]
  44  0020              #line 44 "c:\users\tech\desktop\gasdetector\Main\Main.c"
  44  0020  1F59        	clr [89]
  46  0021              #line 46 "c:\users\tech\desktop\gasdetector\Main\Main.c"
  46  0021  1F5B        	clr [91]
  48  0022              #line 48 "c:\users\tech\desktop\gasdetector\Main\Main.c"
  48  0022  319D        	set [29].3
  52  0023              #line 52 "c:\users\tech\desktop\gasdetector\Main\Main.c"
  52  0023  33CC        	set [76].7
  54  0024              #line 54 "c:\users\tech\desktop\gasdetector\Main\Main.c"
  54  0024  304B        	set [75].0
  55  0025              #line 55 "c:\users\tech\desktop\gasdetector\Main\Main.c"
  55  0025  30CB        	set [75].1
  57  0026              #line 57 "c:\users\tech\desktop\gasdetector\Main\Main.c"
  57  0026  304C        	set [76].0
  58  0027              #line 58 "c:\users\tech\desktop\gasdetector\Main\Main.c"
  58  0027  34CC        	clr [76].1
  59  0028              #line 59 "c:\users\tech\desktop\gasdetector\Main\Main.c"
  59  0028  354C        	clr [76].2
  61  0029              #line 61 "c:\users\tech\desktop\gasdetector\Main\Main.c"
  61  0029  3150        	set [80].2
  63  002A              #line 63 "c:\users\tech\desktop\gasdetector\Main\Main.c"
  63  002A  33CD        	set [77].7
  65  002B              #line 65 "c:\users\tech\desktop\gasdetector\Main\Main.c"
  65  002B  304D        	set [77].0
  66  002C              #line 66 "c:\users\tech\desktop\gasdetector\Main\Main.c"
  66  002C  30CD        	set [77].1
  67  002D              #line 67 "c:\users\tech\desktop\gasdetector\Main\Main.c"
  67  002D  314D        	set [77].2
  69  002E              #line 69 "c:\users\tech\desktop\gasdetector\Main\Main.c"
  69  002E  31D0        	set [80].3
  71  002F              #line 71 "c:\users\tech\desktop\gasdetector\Main\Main.c"
  71  002F  318D        	set [13].3
  73  0030              #line 73 "c:\users\tech\desktop\gasdetector\Main\Main.c"
  73  0030  3614        	clr [20].4
  74  0031              #line 74 "c:\users\tech\desktop\gasdetector\Main\Main.c"
  74  0031  341F        	clr [31].0
  75  0032              #line 75 "c:\users\tech\desktop\gasdetector\Main\Main.c"
  75  0032  349F        	clr [31].1
  76  0033              #line 76 "c:\users\tech\desktop\gasdetector\Main\Main.c"
  76  0033  351F        	clr [31].2
  77  0034              #line 77 "c:\users\tech\desktop\gasdetector\Main\Main.c"
  77  0034  311B        	set [27].2
  78  0035              #line 78 "c:\users\tech\desktop\gasdetector\Main\Main.c"
  78  0035  2000     E  	call _S_ADC_Init
  78  0036  0700     R  	mov a,_delay[0]
  78  0037  0080     E  	mov rd,a
  78  0038  0700     R  	mov a,_delay[1]
  78  0039  0080     E  	mov re,a
  78  003A  0700     R  	mov a,_delay[2]
  78  003B  0080     E  	mov rf,a
  78  003C  0700     R  	mov a,_delay[3]
"File: Main.c        Assembler  Version HGASM0202      Page 6

  78  003D  0080     E  	mov rg,a
  78  003E  0700     R  	mov a,_Cunter[0]
  78  003F  0080     E  	mov rb,a
  78  0040  0700     R  	mov a,_Cunter[1]
  78  0041  0080     E  	mov rc,a
  78  0042  0700     R  	mov a,_displayClock[0]
  78  0043  0080     E  	mov ra,a
  78  0044              _L14:
  80  0044              #line 80 "c:\users\tech\desktop\gasdetector\Main\Main.c"
  80  0044  0F97        	mov a,151
  80  0045  0200     E  	sub a,rd
  80  0046  0F3A        	mov a,58
  80  0047  1200     E  	sbc a,re
  80  0048  0F00        	mov a,0
  80  0049  1200     E  	sbc a,rf
  80  004A  0F00        	mov a,0
  80  004B  1200     E  	sbc a,rg
  80  004C  380A        	snz c
  80  004D  2800     R  	jmp _L55
  85  004E              #line 85 "c:\users\tech\desktop\gasdetector\Main\Main.c"
  85  004E  0F01        	mov a,1
  85  004F  0380     E  	addm a,rd
  85  0050  0F00        	mov a,0
  85  0051  1380     E  	adcm a,re
  85  0052  1380     E  	adcm a,rf
  85  0053  1380     E  	adcm a,rg
  86  0054              #line 86 "c:\users\tech\desktop\gasdetector\Main\Main.c"
  86  0054  1480     E  	inc rb
  86  0055  3D0A        	sz z
  86  0056  1480     E  	inc rc
  87  0057              #line 87 "c:\users\tech\desktop\gasdetector\Main\Main.c"
  87  0057  0FE7        	mov a,231
  87  0058  0200     E  	sub a,rb
  87  0059  0F03        	mov a,3
  87  005A  1200     E  	sbc a,rc
  87  005B  380A        	snz c
  87  005C  2800     R  	jmp _L11
  89  005D              #line 89 "c:\users\tech\desktop\gasdetector\Main\Main.c"
  89  005D  301F        	set [31].0
  90  005E              #line 90 "c:\users\tech\desktop\gasdetector\Main\Main.c"
  90  005E  311F        	set [31].2
  91  005F              #line 91 "c:\users\tech\desktop\gasdetector\Main\Main.c"
  91  005F  309F        	set [31].1
  91  0060  2800     R  	jmp _L12
  91  0061              _L11:
  95  0061              #line 95 "c:\users\tech\desktop\gasdetector\Main\Main.c"
  95  0061  341F        	clr [31].0
  96  0062              #line 96 "c:\users\tech\desktop\gasdetector\Main\Main.c"
  96  0062  351F        	clr [31].2
  97  0063              #line 97 "c:\users\tech\desktop\gasdetector\Main\Main.c"
  97  0063  349F        	clr [31].1
  99  0064              #line 99 "c:\users\tech\desktop\gasdetector\Main\Main.c"
  99  0064  0FD0        	mov a,208
  99  0065  0200     E  	sub a,rb
  99  0066  0F07        	mov a,7
  99  0067  1200     E  	sbc a,rc
  99  0068  3C0A        	sz c
  99  0069  2800     R  	jmp _L12
 103  006A              #line 103 "c:\users\tech\desktop\gasdetector\Main\Main.c"
 103  006A  1480     E  	inc ra
"File: Main.c        Assembler  Version HGASM0202      Page 7

 102  006B              #line 102 "c:\users\tech\desktop\gasdetector\Main\Main.c"
 102  006B  1F00     E  	clr rb
 102  006C  1F00     E  	clr rc
 102  006D              _L12:
 114  006D              #line 114 "c:\users\tech\desktop\gasdetector\Main\Main.c"
 114  006D  0F07        	mov a,7
 114  006E  0200     E  	sub a,ra
 114  006F  1185        	swap acc
 114  0070  040A        	xor a,status
 114  0071  3985        	snz acc.3
 114  0072  2800     R  	jmp _L14
 114  0073  1F00     E  	clr rb
 114  0074  1F00     E  	clr rc
 114  0075  1F00     E  	clr ra
 114  0076  2800     R  	jmp _L14
 114  0077              _L55:
 118  0077              #line 118 "c:\users\tech\desktop\gasdetector\Main\Main.c"
 118  0077  1F00     R  	clr _delay[0]
 118  0078  1F00     R  	clr _delay[1]
 118  0079  1F00     R  	clr _delay[2]
 118  007A  1F00     R  	clr _delay[3]
 119  007B              #line 119 "c:\users\tech\desktop\gasdetector\Main\Main.c"
 119  007B  1F00     R  	clr _Cunter[0]
 119  007C  1F00     R  	clr _Cunter[1]
 120  007D              #line 120 "c:\users\tech\desktop\gasdetector\Main\Main.c"
 120  007D  1F00     R  	clr _displayClock[0]
 120  007E              _L52:
 121  007E              #line 121 "c:\users\tech\desktop\gasdetector\Main\Main.c"
 121  007E  1F00     R  	clr _Mode[0]
 121  007F  1F00     R  	clr _Mode[1]
 121  0080              _L34:
 148  0080              #line 148 "c:\users\tech\desktop\gasdetector\Main\Main.c"
 148  0080  0F02        	mov a,2
 148  0081  2000     E  	call _S_READ_ADC
 148  0082  0700     E  	mov a,rb
 148  0083  0080     E  	mov _builtin_holtek_mant1[1],a
 148  0084  0700     E  	mov a,ra
 148  0085  0080     E  	mov _builtin_holtek_mant1[0],a
 148  0086  3400     E  	clr _builtin_holtek_signs.0
 148  0087  2000     E  	call _builtin_holtek_uitod
 148  0088  0700     E  	mov a,_builtin_holtek_mant12p[0]
 148  0089  0080     R  	mov _main_2[3],a
 148  008A  0700     E  	mov a,_builtin_holtek_mant1[2]
 148  008B  0080     R  	mov _main_2[2],a
 148  008C  0700     E  	mov a,_builtin_holtek_mant1[1]
 148  008D  0080     R  	mov _main_2[1],a
 148  008E  0700     E  	mov a,_builtin_holtek_mant1[0]
 148  008F  0080     R  	mov _main_2[0],a
 148  0090  1F00     E  	clr rd
 148  0091  0F40        	mov a,64
 148  0092  0080     E  	mov re,a
 148  0093  0F9C        	mov a,-100
 148  0094  0080     E  	mov rf,a
 148  0095  0F45        	mov a,69
 148  0096  0080     E  	mov rg,a
 148  0097  0700     E  	mov a,rg
 148  0098  0080     E  	mov _builtin_holtek_mant12p[0],a
 148  0099  0700     E  	mov a,rf
 148  009A  0080     E  	mov _builtin_holtek_mant1[2],a
 148  009B  0700     E  	mov a,re
"File: Main.c        Assembler  Version HGASM0202      Page 8

 148  009C  0080     E  	mov _builtin_holtek_mant1[1],a
 148  009D  0700     E  	mov a,rd
 148  009E  0080     E  	mov _builtin_holtek_mant1[0],a
 148  009F  0F44        	mov a,68
 148  00A0  0080     E  	mov _builtin_holtek_mant12p[1],a
 148  00A1  0F7F        	mov a,127
 148  00A2  0080     E  	mov _builtin_holtek_mant2[2],a
 148  00A3  0FC0        	mov a,192
 148  00A4  0080     E  	mov _builtin_holtek_mant2[1],a
 148  00A5  0F00        	mov a,0
 148  00A6  0080     E  	mov _builtin_holtek_mant2[0],a
 148  00A7  2000     E  	call _builtin_holtek_dtdiv
 148  00A8  0700     E  	mov a,_builtin_holtek_mant12p[0]
 148  00A9  0080     E  	mov rg,a
 148  00AA  0700     E  	mov a,_builtin_holtek_mant1[2]
 148  00AB  0080     E  	mov rf,a
 148  00AC  0700     E  	mov a,_builtin_holtek_mant1[1]
 148  00AD  0080     E  	mov re,a
 148  00AE  0700     E  	mov a,_builtin_holtek_mant1[0]
 148  00AF  0080     E  	mov rd,a
 148  00B0  0700     R  	mov a,_main_2[3]
 148  00B1  0080     E  	mov _builtin_holtek_mant12p[0],a
 148  00B2  0700     R  	mov a,_main_2[2]
 148  00B3  0080     E  	mov _builtin_holtek_mant1[2],a
 148  00B4  0700     R  	mov a,_main_2[1]
 148  00B5  0080     E  	mov _builtin_holtek_mant1[1],a
 148  00B6  0700     R  	mov a,_main_2[0]
 148  00B7  0080     E  	mov _builtin_holtek_mant1[0],a
 148  00B8  0700     E  	mov a,rg
 148  00B9  0080     E  	mov _builtin_holtek_mant12p[1],a
 148  00BA  0700     E  	mov a,rf
 148  00BB  0080     E  	mov _builtin_holtek_mant2[2],a
 148  00BC  0700     E  	mov a,re
 148  00BD  0080     E  	mov _builtin_holtek_mant2[1],a
 148  00BE  0700     E  	mov a,rd
 148  00BF  0080     E  	mov _builtin_holtek_mant2[0],a
 148  00C0  2000     E  	call _builtin_holtek_dtmul
 148  00C1  0700     E  	mov a,_builtin_holtek_mant12p[0]
 148  00C2  0080     E  	mov rg,a
 148  00C3  0700     E  	mov a,_builtin_holtek_mant1[2]
 148  00C4  0080     E  	mov rf,a
 148  00C5  0700     E  	mov a,_builtin_holtek_mant1[1]
 148  00C6  0080     E  	mov re,a
 148  00C7  0700     E  	mov a,_builtin_holtek_mant1[0]
 148  00C8  0080     E  	mov rd,a
 148  00C9  0700     E  	mov a,rg
 148  00CA  0080     R  	mov _voltage_battery[2],a
 148  00CB  0700     E  	mov a,rf
 148  00CC  0080     R  	mov _voltage_battery[1],a
 148  00CD  0700     E  	mov a,re
 148  00CE  0080     R  	mov _voltage_battery[0],a
 151  00CF              #line 151 "c:\users\tech\desktop\gasdetector\Main\Main.c"
 151  00CF  1400     R  	inca _displayClock[0]
 151  00D0  0080     E  	mov ra,a
 152  00D1              #line 152 "c:\users\tech\desktop\gasdetector\Main\Main.c"
 152  00D1  0F03        	mov a,3
 152  00D2  0200     E  	sub a,ra
 152  00D3  1185        	swap acc
 152  00D4  040A        	xor a,status
 152  00D5  3D85        	sz acc.3
"File: Main.c        Assembler  Version HGASM0202      Page 9

 152  00D6  2800     R  	jmp _L18
 151  00D7              #line 151 "c:\users\tech\desktop\gasdetector\Main\Main.c"
 151  00D7  0700     E  	mov a,ra
 151  00D8  0080     R  	mov _displayClock[0],a
 151  00D9  2800     R  	jmp _L19
 151  00DA              _L18:
 152  00DA              #line 152 "c:\users\tech\desktop\gasdetector\Main\Main.c"
 152  00DA  1F00     R  	clr _displayClock[0]
 152  00DB              _L19:
 154  00DB              #line 154 "c:\users\tech\desktop\gasdetector\Main\Main.c"
 154  00DB  0F00        	mov a,0
 154  00DC  2000     E  	call _S_READ_ADC
 154  00DD  0700     E  	mov a,ra
 154  00DE  0080     R  	mov _Parametr[0],a
 154  00DF  0700     E  	mov a,rb
 154  00E0  0080     R  	mov _Parametr[1],a
 162  00E1              #line 162 "c:\users\tech\desktop\gasdetector\Main\Main.c"
 162  00E1  0FFA        	mov a,250
 162  00E2  0200     E  	sub a,ra
 162  00E3  0F00        	mov a,0
 162  00E4  1200     E  	sbc a,rb
 162  00E5  3C0A        	sz c
 162  00E6  2800     R  	jmp _L20
 164  00E7              #line 164 "c:\users\tech\desktop\gasdetector\Main\Main.c"
 164  00E7  0F03        	mov a,3
 164  00E8  0080     R  	mov _Mode[0],a
 164  00E9  1F00     R  	clr _Mode[1]
 164  00EA  2800     R  	jmp _L21
 164  00EB              _L20:
 169  00EB              #line 169 "c:\users\tech\desktop\gasdetector\Main\Main.c"
 169  00EB  3D9B        	sz [27].3
 169  00EC  2800     R  	jmp _L22
 172  00ED              #line 172 "c:\users\tech\desktop\gasdetector\Main\Main.c"
 172  00ED  3000     R  	set _pushButtonState
 173  00EE              #line 173 "c:\users\tech\desktop\gasdetector\Main\Main.c"
 173  00EE  1480     R  	inc _pushButtonCunter[0]
 173  00EF  3D0A        	sz z
 173  00F0  1480     R  	inc _pushButtonCunter[1]
 173  00F1  2800     R  	jmp _L21
 173  00F2              _L22:
 179  00F2              #line 179 "c:\users\tech\desktop\gasdetector\Main\Main.c"
 179  00F2  3800     R  	snz _pushButtonState
 179  00F3  2800     R  	jmp _L21
 179  00F4  0700     R  	mov a,_pushButtonCunter[0]
 179  00F5  0080     E  	mov rb,a
 179  00F6  0700     R  	mov a,_pushButtonCunter[1]
 179  00F7  0080     E  	mov rc,a
 179  00F8  0FF4        	mov a,244
 179  00F9  0200     E  	sub a,rb
 179  00FA  0F01        	mov a,1
 179  00FB  1200     E  	sbc a,rc
 179  00FC  3C0A        	sz c
 179  00FD  2800     R  	jmp _L23
 181  00FE              #line 181 "c:\users\tech\desktop\gasdetector\Main\Main.c"
 181  00FE  0F02        	mov a,2
 181  00FF  0080     R  	mov _Mode[0],a
 181  0100  1F00     R  	clr _Mode[1]
 181  0101  2800     R  	jmp _L21
 181  0102              _L23:
 183  0102              #line 183 "c:\users\tech\desktop\gasdetector\Main\Main.c"
"File: Main.c        Assembler  Version HGASM0202      Page 10

 183  0102  0FF5        	mov a,245
 183  0103  0380     E  	addm a,rb
 183  0104  0FFF        	mov a,255
 183  0105  1380     E  	adcm a,rc
 183  0106  0FE8        	mov a,232
 183  0107  0200     E  	sub a,rb
 183  0108  0F01        	mov a,1
 183  0109  1200     E  	sbc a,rc
 183  010A  380A        	snz c
 183  010B  2800     R  	jmp _L21
 183  010C              #pragma debug scope 4 3
 183  010C              ;begin block, line: 183.-1
 185  010C              #line 185 "c:\users\tech\desktop\gasdetector\Main\Main.c"
 185  010C  0700     R  	mov a,_voltage_battery[0]
 185  010D  0080     E  	mov re,a
 185  010E  0700     R  	mov a,_voltage_battery[1]
 185  010F  0080     E  	mov rf,a
 185  0110  0700     R  	mov a,_voltage_battery[2]
 185  0111  0080     E  	mov rg,a
 185  0112  1F00     E  	clr rd
 185  0113  0700     E  	mov a,rg
 185  0114  0080     E  	mov _builtin_holtek_mant12p[0],a
 185  0115  0700     E  	mov a,rf
 185  0116  0080     E  	mov _builtin_holtek_mant1[2],a
 185  0117  0700     E  	mov a,re
 185  0118  0080     E  	mov _builtin_holtek_mant1[1],a
 185  0119  0700     E  	mov a,rd
 185  011A  0080     E  	mov _builtin_holtek_mant1[0],a
 185  011B  0F3D        	mov a,61
 185  011C  0080     E  	mov _builtin_holtek_mant12p[1],a
 185  011D  0FD7        	mov a,215
 185  011E  0080     E  	mov _builtin_holtek_mant2[2],a
 185  011F  0F94        	mov a,148
 185  0120  0080     E  	mov _builtin_holtek_mant2[1],a
 185  0121  0F21        	mov a,33
 185  0122  0080     E  	mov _builtin_holtek_mant2[0],a
 185  0123  2000     E  	call _builtin_holtek_dtmul
 185  0124  0700     E  	mov a,_builtin_holtek_mant12p[0]
 185  0125  0080     E  	mov rg,a
 185  0126  0700     E  	mov a,_builtin_holtek_mant1[2]
 185  0127  0080     E  	mov rf,a
 185  0128  0700     E  	mov a,_builtin_holtek_mant1[1]
 185  0129  0080     E  	mov re,a
 185  012A  0700     E  	mov a,_builtin_holtek_mant1[0]
 185  012B  0080     E  	mov rd,a
 185  012C  0700     E  	mov a,rg
 185  012D  0080     E  	mov _builtin_holtek_mant12p[0],a
 185  012E  0700     E  	mov a,rf
 185  012F  0080     E  	mov _builtin_holtek_mant1[2],a
 185  0130  0700     E  	mov a,re
 185  0131  0080     E  	mov _builtin_holtek_mant1[1],a
 185  0132  0700     E  	mov a,rd
 185  0133  0080     E  	mov _builtin_holtek_mant1[0],a
 185  0134  0F43        	mov a,67
 185  0135  0080     E  	mov _builtin_holtek_mant12p[1],a
 185  0136  0FA9        	mov a,169
 185  0137  0080     E  	mov _builtin_holtek_mant2[2],a
 185  0138  0F35        	mov a,53
 185  0139  0080     E  	mov _builtin_holtek_mant2[1],a
 185  013A  0FE3        	mov a,227
"File: Main.c        Assembler  Version HGASM0202      Page 11

 185  013B  0080     E  	mov _builtin_holtek_mant2[0],a
 185  013C  2000     E  	call _builtin_holtek_dtsub
 185  013D  0700     E  	mov a,_builtin_holtek_mant12p[0]
 185  013E  0080     E  	mov rg,a
 185  013F  0700     E  	mov a,_builtin_holtek_mant1[2]
 185  0140  0080     E  	mov rf,a
 185  0141  0700     E  	mov a,_builtin_holtek_mant1[1]
 185  0142  0080     E  	mov re,a
 185  0143  0700     E  	mov a,_builtin_holtek_mant1[0]
 185  0144  0080     E  	mov rd,a
 185  0145  0700     E  	mov a,rg
 185  0146  0080     E  	mov _builtin_holtek_mant12p[0],a
 185  0147  0700     E  	mov a,rf
 185  0148  0080     E  	mov _builtin_holtek_mant1[2],a
 185  0149  0700     E  	mov a,re
 185  014A  0080     E  	mov _builtin_holtek_mant1[1],a
 185  014B  0700     E  	mov a,rd
 185  014C  0080     E  	mov _builtin_holtek_mant1[0],a
 185  014D  2000     E  	call _builtin_holtek_dtol
 185  014E  0700     E  	mov a,_builtin_holtek_mant12p[0]
 185  014F  0080     E  	mov rg,a
 185  0150  0700     E  	mov a,_builtin_holtek_mant1[2]
 185  0151  0080     E  	mov rf,a
 185  0152  0700     E  	mov a,_builtin_holtek_mant1[1]
 185  0153  0080     E  	mov re,a
 185  0154  0700     E  	mov a,_builtin_holtek_mant1[0]
 185  0155  0080     E  	mov rd,a
 187  0156              #line 187 "c:\users\tech\desktop\gasdetector\Main\Main.c"
 187  0156  0F5F        	mov a,95
 187  0157  0200     E  	sub a,rd
 187  0158  0F00        	mov a,0
 187  0159  1200     E  	sbc a,re
 187  015A  1185        	swap acc
 187  015B  040A        	xor a,status
 187  015C  3985        	snz acc.3
 187  015D  2800     R  	jmp _L24
 189  015E              #line 189 "c:\users\tech\desktop\gasdetector\Main\Main.c"
 189  015E  0F64        	mov a,100
 189  015F  0080     R  	mov _percent_of_battery[0],a
 189  0160  1F00     R  	clr _percent_of_battery[1]
 189  0161  2800     R  	jmp _L25
 189  0162              _L24:
 191  0162              #line 191 "c:\users\tech\desktop\gasdetector\Main\Main.c"
 191  0162  0F13        	mov a,19
 191  0163  0200     E  	sub a,rd
 191  0164  0F00        	mov a,0
 191  0165  1200     E  	sbc a,re
 191  0166  1185        	swap acc
 191  0167  040A        	xor a,status
 191  0168  3985        	snz acc.3
 191  0169  2800     R  	jmp _L26
 185  016A              #line 185 "c:\users\tech\desktop\gasdetector\Main\Main.c"
 185  016A  0700     E  	mov a,rd
 185  016B  0080     R  	mov _percent_of_battery[0],a
 185  016C  0700     E  	mov a,re
 185  016D  0080     R  	mov _percent_of_battery[1],a
 185  016E  2800     R  	jmp _L25
 185  016F              _L26:
 193  016F              #line 193 "c:\users\tech\desktop\gasdetector\Main\Main.c"
 193  016F  1F00     R  	clr _percent_of_battery[0]
"File: Main.c        Assembler  Version HGASM0202      Page 12

 193  0170  1F00     R  	clr _percent_of_battery[1]
 193  0171              _L25:
 195  0171              #line 195 "c:\users\tech\desktop\gasdetector\Main\Main.c"
 195  0171  0700     R  	mov a,_percent_of_battery[0]
 195  0172  0080     E  	mov rb,a
 195  0173  0700     R  	mov a,_percent_of_battery[1]
 195  0174  0080     E  	mov rc,a
 195  0175  0700     E  	mov a,rb
 195  0176  0080     R  	mov _bufferVdd[0],a
 196  0177              #line 196 "c:\users\tech\desktop\gasdetector\Main\Main.c"
 196  0177  0700     E  	mov a,rb
 196  0178  0200     E  	sub a,rb
 196  0179  0080     E  	mov rd,a
 196  017A  0700     E  	mov a,rc
 196  017B  1F00     E  	clr re
 196  017C  3C00     E  	sz rb.7
 196  017D  1F80     E  	set re
 196  017E  1280     E  	sbcm a,re
 196  017F  0700     E  	mov a,rd
 196  0180  0080     E  	mov _abs_2[0],a
 196  0181  0700     E  	mov a,re
 196  0182  0080     E  	mov _abs_2[1],a
 196  0183  2000     E  	call _abs
 196  0184  0F02        	mov a,2
 196  0185  0200     E  	sub a,ra
 196  0186  0F00        	mov a,0
 196  0187  1200     E  	sbc a,rb
 196  0188  1185        	swap acc
 196  0189  040A        	xor a,status
 196  018A  3985        	snz acc.3
 196  018B  2800     R  	jmp _L27
 198  018C              #line 198 "c:\users\tech\desktop\gasdetector\Main\Main.c"
 198  018C  0700     R  	mov a,_percent_of_battery[0]
 198  018D  0080     R  	mov _bufferVdd[0],a
 198  018E              _L27:
 203  018E              #line 203 "c:\users\tech\desktop\gasdetector\Main\Main.c"
 203  018E  0F01        	mov a,1
 203  018F  0080     R  	mov _Mode[0],a
 203  0190  1F00     R  	clr _Mode[1]
 203  0191              _L21:
 203  0191              #pragma debug scope 3 1
 252  0191              #line 252 "c:\users\tech\desktop\gasdetector\Main\Main.c"
 252  0191  0F01        	mov a,1
 252  0192  0080     R  	mov _SuplyStatus[0],a
 252  0193  1F00     R  	clr _SuplyStatus[1]
 253  0194              #line 253 "c:\users\tech\desktop\gasdetector\Main\Main.c"
 253  0194  0700     R  	mov a,_Mode[0]
 253  0195  0500     R  	or a,_Mode[1]
 253  0196  3D0A        	sz z
 253  0197  2800     R  	jmp _L29
 253  0198  0700     R  	mov a,_Mode[0]
 253  0199  0C01        	xor a,1
 253  019A  0500     R  	or a,_Mode[1]
 253  019B  3D0A        	sz z
 253  019C  2800     R  	jmp _L30
 253  019D  0700     R  	mov a,_Mode[0]
 253  019E  0C02        	xor a,2
 253  019F  0500     R  	or a,_Mode[1]
 253  01A0  3D0A        	sz z
 253  01A1  2800     R  	jmp _L31
"File: Main.c        Assembler  Version HGASM0202      Page 13

 253  01A2  0700     R  	mov a,_Mode[0]
 253  01A3  0C03        	xor a,3
 253  01A4  0500     R  	or a,_Mode[1]
 253  01A5  3D0A        	sz z
 253  01A6  2800     R  	jmp _L32
 253  01A7  0700     R  	mov a,_Mode[0]
 253  01A8  0C04        	xor a,4
 253  01A9  0500     R  	or a,_Mode[1]
 253  01AA  390A        	snz z
 253  01AB  2800     R  	jmp _L34
 253  01AC              #pragma debug scope 5 3
 253  01AC              ;begin block, line: 253.-1
 444  01AC              #line 444 "c:\users\tech\desktop\gasdetector\Main\Main.c"
 444  01AC  3214        	set [20].4
 445  01AD              #line 445 "c:\users\tech\desktop\gasdetector\Main\Main.c"
 445  01AD  311B        	set [27].2
 446  01AE              #line 446 "c:\users\tech\desktop\gasdetector\Main\Main.c"
 446  01AE  309F        	set [31].1
 447  01AF              #line 447 "c:\users\tech\desktop\gasdetector\Main\Main.c"
 447  01AF  301F        	set [31].0
 448  01B0              #line 448 "c:\users\tech\desktop\gasdetector\Main\Main.c"
 448  01B0  311F        	set [31].2
 450  01B1              #line 450 "c:\users\tech\desktop\gasdetector\Main\Main.c"
 450  01B1  2800     R  	jmp _L34
 450  01B2              _L29:
 256  01B2              #line 256 "c:\users\tech\desktop\gasdetector\Main\Main.c"
 256  01B2  351B        	clr [27].2
 258  01B3              #line 258 "c:\users\tech\desktop\gasdetector\Main\Main.c"
 258  01B3  0F00        	mov a,0
 258  01B4  2000     E  	call _S_READ_ADC
 258  01B5  0700     E  	mov a,ra
 258  01B6  0200     R  	sub a,_buffer[0]
 258  01B7  0080     E  	mov rc,a
 258  01B8  0700     E  	mov a,rb
 258  01B9  1200     R  	sbc a,_buffer[1]
 258  01BA  0080     E  	mov rd,a
 258  01BB  0700     E  	mov a,rc
 258  01BC  0080     E  	mov _abs_2[0],a
 258  01BD  0700     E  	mov a,rd
 258  01BE  0080     E  	mov _abs_2[1],a
 258  01BF  2000     E  	call _abs
 258  01C0  0F01        	mov a,1
 258  01C1  0200     E  	sub a,ra
 258  01C2  0F00        	mov a,0
 258  01C3  1200     E  	sbc a,rb
 258  01C4  1185        	swap acc
 258  01C5  040A        	xor a,status
 258  01C6  3985        	snz acc.3
 258  01C7  2800     R  	jmp _L35
 260  01C8              #line 260 "c:\users\tech\desktop\gasdetector\Main\Main.c"
 260  01C8  0F00        	mov a,0
 260  01C9  2000     E  	call _S_READ_ADC
 260  01CA  0700     E  	mov a,ra
 260  01CB  0080     R  	mov _buffer[0],a
 260  01CC  0700     E  	mov a,rb
 260  01CD  0080     R  	mov _buffer[1],a
 260  01CE              _L35:
 266  01CE              #line 266 "c:\users\tech\desktop\gasdetector\Main\Main.c"
 266  01CE  0700     R  	mov a,_SuplyStatus[0]
 266  01CF  0500     R  	or a,_SuplyStatus[1]
"File: Main.c        Assembler  Version HGASM0202      Page 14

 266  01D0  3D0A        	sz z
 266  01D1  2800     R  	jmp _L36
 266  01D2  0700     R  	mov a,_SuplyStatus[0]
 266  01D3  0C01        	xor a,1
 266  01D4  0500     R  	or a,_SuplyStatus[1]
 266  01D5  3D0A        	sz z
 266  01D6  2800     R  	jmp _L37
 266  01D7  0700     R  	mov a,_SuplyStatus[0]
 266  01D8  0C02        	xor a,2
 266  01D9  0500     R  	or a,_SuplyStatus[1]
 266  01DA  3D0A        	sz z
 266  01DB  2800     R  	jmp _L38
 266  01DC  0700     R  	mov a,_SuplyStatus[0]
 266  01DD  0C03        	xor a,3
 266  01DE  0500     R  	or a,_SuplyStatus[1]
 266  01DF  390A        	snz z
 266  01E0  2800     R  	jmp _L34
 266  01E1  2800     R  	jmp _L56
 266  01E2              _L36:
 271  01E2              #line 271 "c:\users\tech\desktop\gasdetector\Main\Main.c"
 271  01E2  301F        	set [31].0
 272  01E3              #line 272 "c:\users\tech\desktop\gasdetector\Main\Main.c"
 272  01E3  349F        	clr [31].1
 273  01E4              #line 273 "c:\users\tech\desktop\gasdetector\Main\Main.c"
 273  01E4  351F        	clr [31].2
 274  01E5              #line 274 "c:\users\tech\desktop\gasdetector\Main\Main.c"
 274  01E5  0F00     R  	mov a,low offset _displayClock
 274  01E6  0080     E  	mov _Display_2[3],a
 274  01E7  0F00     R  	mov a,high offset _displayClock
 274  01E8  0080     E  	mov _Display_2[4],a
 274  01E9  0F30        	mov a,48
 274  01EA  0080     E  	mov _Display_2[2],a
 274  01EB  0700     R  	mov a,_buffer[0]
 274  01EC  0080     E  	mov _Display_2[0],a
 274  01ED  0700     R  	mov a,_buffer[1]
 274  01EE  0080     E  	mov _Display_2[1],a
 274  01EF  2800     R  	jmp _L51
 274  01F0              _L37:
 281  01F0              #line 281 "c:\users\tech\desktop\gasdetector\Main\Main.c"
 281  01F0  341F        	clr [31].0
 282  01F1              #line 282 "c:\users\tech\desktop\gasdetector\Main\Main.c"
 282  01F1  349F        	clr [31].1
 283  01F2              #line 283 "c:\users\tech\desktop\gasdetector\Main\Main.c"
 283  01F2  311F        	set [31].2
 284  01F3              #line 284 "c:\users\tech\desktop\gasdetector\Main\Main.c"
 284  01F3  0F01        	mov a,1
 284  01F4  0300     R  	add a,_Cunter[0]
 284  01F5  0080     E  	mov rb,a
 284  01F6  0F00        	mov a,0
 284  01F7  1300     R  	adc a,_Cunter[1]
 284  01F8  0080     E  	mov rc,a
 284  01F9  0700     E  	mov a,rb
 284  01FA  0080     R  	mov _Cunter[0],a
 284  01FB  0700     E  	mov a,rc
 284  01FC  0080     R  	mov _Cunter[1],a
 285  01FD              #line 285 "c:\users\tech\desktop\gasdetector\Main\Main.c"
 285  01FD  0FE7        	mov a,231
 285  01FE  0200     E  	sub a,rb
 285  01FF  0F03        	mov a,3
 285  0200  1200     E  	sbc a,rc
"File: Main.c        Assembler  Version HGASM0202      Page 15

 285  0201  3C0A        	sz c
 285  0202  2800     R  	jmp _L54
 291  0203              #line 291 "c:\users\tech\desktop\gasdetector\Main\Main.c"
 291  0203  0700     R  	mov a,_displayClock[0]
 291  0204  2000     E  	call _DisplayBatteryLOW
 291  0205  2800     R  	jmp _L43
 291  0206              _L38:
 317  0206              #line 317 "c:\users\tech\desktop\gasdetector\Main\Main.c"
 317  0206  341F        	clr [31].0
 318  0207              #line 318 "c:\users\tech\desktop\gasdetector\Main\Main.c"
 318  0207  349F        	clr [31].1
 319  0208              #line 319 "c:\users\tech\desktop\gasdetector\Main\Main.c"
 319  0208  311F        	set [31].2
 320  0209              #line 320 "c:\users\tech\desktop\gasdetector\Main\Main.c"
 320  0209  0F01        	mov a,1
 320  020A  0300     R  	add a,_Cunter[0]
 320  020B  0080     E  	mov rb,a
 320  020C  0F00        	mov a,0
 320  020D  1300     R  	adc a,_Cunter[1]
 320  020E  0080     E  	mov rc,a
 320  020F  0700     E  	mov a,rb
 320  0210  0080     R  	mov _Cunter[0],a
 320  0211  0700     E  	mov a,rc
 320  0212  0080     R  	mov _Cunter[1],a
 322  0213              #line 322 "c:\users\tech\desktop\gasdetector\Main\Main.c"
 322  0213  0FE7        	mov a,231
 322  0214  0200     E  	sub a,rb
 322  0215  0F03        	mov a,3
 322  0216  1200     E  	sbc a,rc
 322  0217  380A        	snz c
 322  0218  2800     R  	jmp _L42
 322  0219              _L54:
 324  0219              #line 324 "c:\users\tech\desktop\gasdetector\Main\Main.c"
 324  0219  0F00     R  	mov a,low offset _displayClock
 324  021A  0080     E  	mov _Display_2[3],a
 324  021B  0F00     R  	mov a,high offset _displayClock
 324  021C  0080     E  	mov _Display_2[4],a
 324  021D  0F30        	mov a,48
 324  021E  0080     E  	mov _Display_2[2],a
 324  021F  0700     R  	mov a,_buffer[0]
 324  0220  0080     E  	mov _Display_2[0],a
 324  0221  0700     R  	mov a,_buffer[1]
 324  0222  0080     E  	mov _Display_2[1],a
 324  0223  2000     E  	call _Display
 324  0224  2800     R  	jmp _L43
 324  0225              _L42:
 328  0225              #line 328 "c:\users\tech\desktop\gasdetector\Main\Main.c"
 328  0225  0700     R  	mov a,_displayClock[0]
 328  0226  2000     E  	call _DisplaySuplyError
 328  0227              _L43:
 330  0227              #line 330 "c:\users\tech\desktop\gasdetector\Main\Main.c"
 330  0227  0700     R  	mov a,_Cunter[0]
 330  0228  0080     R  	mov _buzzerDoull_2[0],a
 330  0229  0700     R  	mov a,_Cunter[1]
 330  022A  0080     R  	mov _buzzerDoull_2[1],a
 330  022B  2000     R  	call _buzzerDoull
 354  022C              #line 354 "c:\users\tech\desktop\gasdetector\Main\Main.c"
 354  022C  2800     R  	jmp _L34
 354  022D              _L56:
 358  022D              #line 358 "c:\users\tech\desktop\gasdetector\Main\Main.c"
"File: Main.c        Assembler  Version HGASM0202      Page 16

 358  022D  341F        	clr [31].0
 359  022E              #line 359 "c:\users\tech\desktop\gasdetector\Main\Main.c"
 359  022E  311F        	set [31].2
 361  022F              #line 361 "c:\users\tech\desktop\gasdetector\Main\Main.c"
 361  022F  0F01        	mov a,1
 361  0230  0300     R  	add a,_Cunter[0]
 361  0231  0080     E  	mov rb,a
 361  0232  0F00        	mov a,0
 361  0233  1300     R  	adc a,_Cunter[1]
 361  0234  0080     E  	mov rc,a
 361  0235  0700     E  	mov a,rb
 361  0236  0080     R  	mov _Cunter[0],a
 361  0237  0700     E  	mov a,rc
 361  0238  0080     R  	mov _Cunter[1],a
 362  0239              #line 362 "c:\users\tech\desktop\gasdetector\Main\Main.c"
 362  0239  0F2B        	mov a,43
 362  023A  0200     E  	sub a,rb
 362  023B  0F01        	mov a,1
 362  023C  1200     E  	sbc a,rc
 362  023D  3C0A        	sz c
 362  023E  2800     R  	jmp _L44
 364  023F              #line 364 "c:\users\tech\desktop\gasdetector\Main\Main.c"
 364  023F  3214        	set [20].4
 365  0240              #line 365 "c:\users\tech\desktop\gasdetector\Main\Main.c"
 365  0240  309F        	set [31].1
 366  0241              #line 366 "c:\users\tech\desktop\gasdetector\Main\Main.c"
 366  0241  0F00     R  	mov a,low offset _displayClock
 366  0242  0080     E  	mov _Display_2[3],a
 366  0243  0F00     R  	mov a,high offset _displayClock
 366  0244  0080     E  	mov _Display_2[4],a
 366  0245  0F30        	mov a,48
 366  0246  0080     E  	mov _Display_2[2],a
 366  0247  0700     R  	mov a,_buffer[0]
 366  0248  0080     E  	mov _Display_2[0],a
 366  0249  0700     R  	mov a,_buffer[1]
 366  024A  0080     E  	mov _Display_2[1],a
 366  024B  2000     E  	call _Display
 366  024C  2800     R  	jmp _L45
 366  024D              _L44:
 370  024D              #line 370 "c:\users\tech\desktop\gasdetector\Main\Main.c"
 370  024D  349F        	clr [31].1
 371  024E              #line 371 "c:\users\tech\desktop\gasdetector\Main\Main.c"
 371  024E  3614        	clr [20].4
 372  024F              #line 372 "c:\users\tech\desktop\gasdetector\Main\Main.c"
 372  024F  0700     R  	mov a,_displayClock[0]
 372  0250  2000     E  	call _DisplayBatteryLOW
 372  0251              _L45:
 374  0251              #line 374 "c:\users\tech\desktop\gasdetector\Main\Main.c"
 374  0251  0F57        	mov a,87
 374  0252  0200     R  	sub a,_Cunter[0]
 374  0253  0F02        	mov a,2
 374  0254  1200     R  	sbc a,_Cunter[1]
 374  0255  3C0A        	sz c
 374  0256  2800     R  	jmp _L34
 374  0257  2800     R  	jmp _L53
 374  0258              _L31:
 391  0258              #line 391 "c:\users\tech\desktop\gasdetector\Main\Main.c"
 391  0258  1480     R  	inc _Cunter[0]
 391  0259  3D0A        	sz z
 391  025A  1480     R  	inc _Cunter[1]
"File: Main.c        Assembler  Version HGASM0202      Page 17

 392  025B              #line 392 "c:\users\tech\desktop\gasdetector\Main\Main.c"
 392  025B  3214        	set [20].4
 393  025C              #line 393 "c:\users\tech\desktop\gasdetector\Main\Main.c"
 393  025C  311B        	set [27].2
 394  025D              #line 394 "c:\users\tech\desktop\gasdetector\Main\Main.c"
 394  025D  309F        	set [31].1
 395  025E              #line 395 "c:\users\tech\desktop\gasdetector\Main\Main.c"
 395  025E  301F        	set [31].0
 396  025F              #line 396 "c:\users\tech\desktop\gasdetector\Main\Main.c"
 396  025F  311F        	set [31].2
 397  0260              #line 397 "c:\users\tech\desktop\gasdetector\Main\Main.c"
 397  0260  0F00     R  	mov a,low offset _displayClock
 397  0261  0080     E  	mov _Display_2[3],a
 397  0262  0F00     R  	mov a,high offset _displayClock
 397  0263  0080     E  	mov _Display_2[4],a
 397  0264  0F30        	mov a,48
 397  0265  0080     E  	mov _Display_2[2],a
 397  0266  0FB8        	mov a,-72
 397  0267  0080     E  	mov _Display_2[0],a
 397  0268  0F22        	mov a,34
 397  0269  0080     E  	mov _Display_2[1],a
 397  026A  2000     E  	call _Display
 398  026B              #line 398 "c:\users\tech\desktop\gasdetector\Main\Main.c"
 398  026B  3400     R  	clr _pushButtonState
 399  026C              #line 399 "c:\users\tech\desktop\gasdetector\Main\Main.c"
 399  026C  1F00     R  	clr _pushButtonCunter[0]
 399  026D  1F00     R  	clr _pushButtonCunter[1]
 400  026E              #line 400 "c:\users\tech\desktop\gasdetector\Main\Main.c"
 400  026E  0FE8        	mov a,232
 400  026F  0200     R  	sub a,_Cunter[0]
 400  0270  0F03        	mov a,3
 400  0271  1200     R  	sbc a,_Cunter[1]
 400  0272  3C0A        	sz c
 400  0273  2800     R  	jmp _L34
 402  0274              #line 402 "c:\users\tech\desktop\gasdetector\Main\Main.c"
 402  0274  1F00     R  	clr _Cunter[0]
 402  0275  1F00     R  	clr _Cunter[1]
 402  0276  2800     R  	jmp _L52
 402  0277              _L30:
 409  0277              #line 409 "c:\users\tech\desktop\gasdetector\Main\Main.c"
 409  0277  1480     R  	inc _Cunter[0]
 409  0278  3D0A        	sz z
 409  0279  1480     R  	inc _Cunter[1]
 410  027A              #line 410 "c:\users\tech\desktop\gasdetector\Main\Main.c"
 410  027A  0700     R  	mov a,_bufferVdd[0]
 410  027B  0080     E  	mov ra,a
 410  027C  0F13        	mov a,19
 410  027D  0200     E  	sub a,ra
 410  027E  1185        	swap acc
 410  027F  040A        	xor a,status
 410  0280  3D85        	sz acc.3
 410  0281  2800     R  	jmp _L48
 412  0282              #line 412 "c:\users\tech\desktop\gasdetector\Main\Main.c"
 412  0282  0700     R  	mov a,_displayClock[0]
 412  0283  2000     E  	call _DisplayBatteryLOW
 412  0284  2800     R  	jmp _L49
 412  0285              _L48:
 416  0285              #line 416 "c:\users\tech\desktop\gasdetector\Main\Main.c"
 416  0285  0F00     R  	mov a,low offset _displayClock
 416  0286  0080     E  	mov _Display_2[3],a
"File: Main.c        Assembler  Version HGASM0202      Page 18

 416  0287  0F00     R  	mov a,high offset _displayClock
 416  0288  0080     E  	mov _Display_2[4],a
 416  0289  0F62        	mov a,98
 416  028A  0080     E  	mov _Display_2[2],a
 416  028B  0700     E  	mov a,ra
 416  028C  0080     E  	mov _Display_2[0],a
 416  028D  1F00     E  	clr _Display_2[1]
 416  028E  3F85        	sz acc.7
 416  028F  1F80     E  	set _Display_2[1]
 416  0290  2000     E  	call _Display
 416  0291              _L49:
 419  0291              #line 419 "c:\users\tech\desktop\gasdetector\Main\Main.c"
 419  0291  3400     R  	clr _pushButtonState
 420  0292              #line 420 "c:\users\tech\desktop\gasdetector\Main\Main.c"
 420  0292  1F00     R  	clr _pushButtonCunter[0]
 420  0293  1F00     R  	clr _pushButtonCunter[1]
 421  0294              #line 421 "c:\users\tech\desktop\gasdetector\Main\Main.c"
 421  0294  0FF4        	mov a,244
 421  0295  0200     R  	sub a,_Cunter[0]
 421  0296  0F01        	mov a,1
 421  0297  1200     R  	sbc a,_Cunter[1]
 421  0298  3C0A        	sz c
 421  0299  2800     R  	jmp _L34
 423  029A              #line 423 "c:\users\tech\desktop\gasdetector\Main\Main.c"
 423  029A  1F00     R  	clr _Mode[0]
 423  029B  1F00     R  	clr _Mode[1]
 423  029C              _L53:
 424  029C              #line 424 "c:\users\tech\desktop\gasdetector\Main\Main.c"
 424  029C  1F00     R  	clr _Cunter[0]
 424  029D  1F00     R  	clr _Cunter[1]
 424  029E  2800     R  	jmp _L34
 424  029F              _L32:
 432  029F              #line 432 "c:\users\tech\desktop\gasdetector\Main\Main.c"
 432  029F  3214        	set [20].4
 433  02A0              #line 433 "c:\users\tech\desktop\gasdetector\Main\Main.c"
 433  02A0  311B        	set [27].2
 434  02A1              #line 434 "c:\users\tech\desktop\gasdetector\Main\Main.c"
 434  02A1  309F        	set [31].1
 435  02A2              #line 435 "c:\users\tech\desktop\gasdetector\Main\Main.c"
 435  02A2  301F        	set [31].0
 436  02A3              #line 436 "c:\users\tech\desktop\gasdetector\Main\Main.c"
 436  02A3  311F        	set [31].2
 437  02A4              #line 437 "c:\users\tech\desktop\gasdetector\Main\Main.c"
 437  02A4  0F00     R  	mov a,low offset _displayClock
 437  02A5  0080     E  	mov _Display_2[3],a
 437  02A6  0F00     R  	mov a,high offset _displayClock
 437  02A7  0080     E  	mov _Display_2[4],a
 437  02A8  0F30        	mov a,48
 437  02A9  0080     E  	mov _Display_2[2],a
 437  02AA  0FFA        	mov a,-6
 437  02AB  0080     E  	mov _Display_2[0],a
 437  02AC  1F00     E  	clr _Display_2[1]
 437  02AD              _L51:
 437  02AD  2000     E  	call _Display
 439  02AE              #line 439 "c:\users\tech\desktop\gasdetector\Main\Main.c"
 439  02AE  2800     R  	jmp _L34
 439  02AF              #pragma debug scope 3 1
 439  02AF  2800     R  	jmp $
 439  02B0              _main endp
 439  02B0              
"File: Main.c        Assembler  Version HGASM0202      Page 19

 439  02B0              @dummy endp
 439  02B0              
 439  02B0              #line 439 "c:\users\tech\desktop\gasdetector\Main\Main.c"
 439  02B0              #pragma debug scope 1 1

 111  02B0              #line 111 "C:\Users\Tech\Desktop\GasDetector\Main/Main.h"
 111  02B0              public _SuplyStatus
 111  0000              @HCCINIT0 .section 'data'
 111  0000  0002[       _SuplyStatus	db 2 dup(0)
            00
            ]
 111  0002              #pragma debug variable 12 1 _SuplyStatus "SuplyStatus"
 111  0002              
 111  0000              @HCCINIT .section 'data'
 100  0000              #line 100 "C:\Users\Tech\Desktop\GasDetector\Main/Main.h"
 100  0000              public _Mode
 100  0002              @HCCINIT0 .section 'data'
 100  0002  0002[       _Mode	db 2 dup(0)
            00
            ]
 100  0004              #pragma debug variable 12 1 _Mode "Mode"
 100  0004              
 100  0000              @HCCINIT .section 'data'
 100  0000              public _pushButtonCunter
 100  0000              @HCCINIT	.section 'data'
  89  0000              #line 89 "C:\Users\Tech\Desktop\GasDetector\Main/Main.h"
  89  0000              @HCCINIT .section 'data'
  89  0000              _pushButtonCunter label byte
  89  0000              #pragma debug variable 12 1 _pushButtonCunter "pushButtonCunter"
  89  0000              	db 0
  89  0000              @ROMDATA_BASE .section inpage 'code'
  89  0000              	db 0
  89  0001              @HCCINIT .section 'data'
  89  0001              	db 0
  89  0001              @ROMDATA_BASE .section inpage 'code'
  89  0001              	db 0
  89  0002              @HCCINIT .section 'data'
  89  0002              public _pushButtonState
  88  0002              #line 88 "C:\Users\Tech\Desktop\GasDetector\Main/Main.h"
  88  0000              @BITDATASEC .section 'data'
  88  0000  00          _pushButtonState	dbit 0
  88  0001              #pragma debug variable 2 1 _pushButtonState "pushButtonState"
  88  0001              public _buffer
  85  0001              #line 85 "C:\Users\Tech\Desktop\GasDetector\Main/Main.h"
  85  0002              @HCCINIT .section 'data'
  85  0002              _buffer label byte
  85  0002              #pragma debug variable 10 1 _buffer "buffer"
  85  0002              	db 0
  85  0001              @ROMDATA_BASE .section inpage 'code'
  85  0001              	db 0
  85  0003              @HCCINIT .section 'data'
  85  0003              	db 0
  85  0002              @ROMDATA_BASE .section inpage 'code'
  85  0002              	db 0
  85  0004              @HCCINIT .section 'data'
  85  0004              public _Cunter
  84  0004              #line 84 "C:\Users\Tech\Desktop\GasDetector\Main/Main.h"
  84  0004              @HCCINIT .section 'data'
  84  0004              _Cunter label byte
  84  0004              #pragma debug variable 12 1 _Cunter "Cunter"
"File: Main/Main.h   Assembler  Version HGASM0202      Page 20

  84  0004              	db 0
  84  0002              @ROMDATA_BASE .section inpage 'code'
  84  0002              	db 0
  84  0005              @HCCINIT .section 'data'
  84  0005              	db 0
  84  0003              @ROMDATA_BASE .section inpage 'code'
  84  0003              	db 0
  84  0006              @HCCINIT .section 'data'
  68  0006              #line 68 "C:\Users\Tech\Desktop\GasDetector\Main/Main.h"
  68  0006              public _Parametr
  68  0004              @HCCINIT0 .section 'data'
  68  0004  0002[       _Parametr	db 2 dup(0)
            00
            ]
  68  0006              #pragma debug union_end
  68  0006              #pragma debug union_end
  68  0006              #pragma debug variable 43 1 _Parametr "Parametr"
  68  0006              
  68  0006              @HCCINIT .section 'data'
  68  0006              public _bufferVdd
  58  0006              #line 58 "C:\Users\Tech\Desktop\GasDetector\Main/Main.h"
  58  0006              @HCCINIT .section 'data'
  58  0006              _bufferVdd label byte
  58  0006              #pragma debug variable 7 1 _bufferVdd "bufferVdd"
  58  0006              	db 0
  58  0003              @ROMDATA_BASE .section inpage 'code'
  58  0003              	db 0
  58  0007              @HCCINIT .section 'data'
  58  0007              public _displayClock
  57  0007              #line 57 "C:\Users\Tech\Desktop\GasDetector\Main/Main.h"
  57  0007              @HCCINIT .section 'data'
  57  0007              _displayClock label byte
  57  0007              #pragma debug variable 7 1 _displayClock "displayClock"
  57  0007              	db 0
  57  0004              @ROMDATA_BASE .section inpage 'code'
  57  0004              	db 0
  57  0008              @HCCINIT .section 'data'
  57  0008              public _percent_of_battery
  56  0008              #line 56 "C:\Users\Tech\Desktop\GasDetector\Main/Main.h"
  56  0008              @HCCINIT .section 'data'
  56  0008              _percent_of_battery label byte
  56  0008              #pragma debug variable 11 1 _percent_of_battery "percent_of_battery"
  56  0008              	db 0
  56  0004              @ROMDATA_BASE .section inpage 'code'
  56  0004              	db 0
  56  0009              @HCCINIT .section 'data'
  56  0009              	db 0
  56  0005              @ROMDATA_BASE .section inpage 'code'
  56  0005              	db 0
  56  000A              @HCCINIT .section 'data'
  56  000A              public _voltage_battery
  55  000A              #line 55 "C:\Users\Tech\Desktop\GasDetector\Main/Main.h"
  55  000A              @HCCINIT .section 'data'
  55  000A              _voltage_battery label byte
  55  000A              #pragma debug variable 28 1 _voltage_battery "voltage_battery"
  55  000A              	db 0
  55  0005              @ROMDATA_BASE .section inpage 'code'
  55  0005              	db 0
  55  000B              @HCCINIT .section 'data'
  55  000B              	db 0
"File: Main/Main.h   Assembler  Version HGASM0202      Page 21

  55  0006              @ROMDATA_BASE .section inpage 'code'
  55  0006              	db 0
  55  000C              @HCCINIT .section 'data'
  55  000C              	db 0
  55  0006              @ROMDATA_BASE .section inpage 'code'
  55  0006              	db 0
  55  000D              @HCCINIT .section 'data'
  55  000D              public _i
  50  000D              #line 50 "C:\Users\Tech\Desktop\GasDetector\Main/Main.h"
  50  000D              @HCCINIT .section 'data'
  50  000D              _i label byte
  50  000D              #pragma debug variable 12 1 _i "i"
  50  000D              	db 0
  50  0007              @ROMDATA_BASE .section inpage 'code'
  50  0007              	db 0
  50  000E              @HCCINIT .section 'data'
  50  000E              	db 0
  50  0007              @ROMDATA_BASE .section inpage 'code'
  50  0007              	db 0
  50  000F              @HCCINIT .section 'data'
  50  000F              public _delay
  49  000F              #line 49 "C:\Users\Tech\Desktop\GasDetector\Main/Main.h"
  49  000F              @HCCINIT .section 'data'
  49  000F              _delay label byte
  49  000F              #pragma debug variable 14 1 _delay "delay"
  49  000F              	db 0
  49  0008              @ROMDATA_BASE .section inpage 'code'
  49  0008              	db 0
  49  0010              @HCCINIT .section 'data'
  49  0010              	db 0
  49  0008              @ROMDATA_BASE .section inpage 'code'
  49  0008              	db 0
  49  0011              @HCCINIT .section 'data'
  49  0011              	db 0
  49  0009              @ROMDATA_BASE .section inpage 'code'
  49  0009              	db 0
  49  0012              @HCCINIT .section 'data'
  49  0012              	db 0
  49  0009              @ROMDATA_BASE .section inpage 'code'
  49  0009              	db 0
  49  0013              @HCCINIT .section 'data'
  49  0013              #pragma debug struct_end
  49  0013              #pragma debug struct_end
  49  0013              #pragma debug union_end
  49  0013              #pragma debug union_end
  49  0013              #pragma debug variable 45 1 ___lvrc "__lvrc" 1
  49  0013              #pragma debug struct_end
  49  0013              #pragma debug struct_end
  49  0013              #pragma debug union_end
  49  0013              #pragma debug union_end
  49  0013              #pragma debug variable 47 1 ___vbgc "__vbgc" 1
  49  0013              #pragma debug struct_end
  49  0013              #pragma debug struct_end
  49  0013              #pragma debug union_end
  49  0013              #pragma debug union_end
  49  0013              #pragma debug variable 49 1 ___scc "__scc" 1
  49  0013              #pragma debug struct_end
  49  0013              #pragma debug struct_end
  49  0013              #pragma debug union_end
  49  0013              #pragma debug union_end
"File: Main/Main.h   Assembler  Version HGASM0202      Page 22

  49  0013              #pragma debug variable 51 1 ___pa "__pa" 1
  49  0013              #pragma debug struct_end
  49  0013              #pragma debug struct_end
  49  0013              #pragma debug union_end
  49  0013              #pragma debug union_end
  49  0013              #pragma debug variable 53 1 ___pac "__pac" 1
  49  0013              #pragma debug struct_end
  49  0013              #pragma debug struct_end
  49  0013              #pragma debug union_end
  49  0013              #pragma debug union_end
  49  0013              #pragma debug variable 55 1 ___lvpuc "__lvpuc" 1
  49  0013              #pragma debug struct_end
  49  0013              #pragma debug struct_end
  49  0013              #pragma debug union_end
  49  0013              #pragma debug union_end
  49  0013              #pragma debug variable 57 1 ___wdtc "__wdtc" 1
  49  0013              #pragma debug struct_end
  49  0013              #pragma debug struct_end
  49  0013              #pragma debug union_end
  49  0013              #pragma debug union_end
  49  0013              #pragma debug variable 59 1 ___pb "__pb" 1
  49  0013              #pragma debug struct_end
  49  0013              #pragma debug struct_end
  49  0013              #pragma debug union_end
  49  0013              #pragma debug union_end
  49  0013              #pragma debug variable 61 1 ___pbc "__pbc" 1
  49  0013              #pragma debug struct_end
  49  0013              #pragma debug struct_end
  49  0013              #pragma debug union_end
  49  0013              #pragma debug union_end
  49  0013              #pragma debug variable 63 1 ___pbpu "__pbpu" 1
  49  0013              #pragma debug struct_end
  49  0013              #pragma debug struct_end
  49  0013              #pragma debug union_end
  49  0013              #pragma debug union_end
  49  0013              #pragma debug variable 65 1 ___pc "__pc" 1
  49  0013              #pragma debug struct_end
  49  0013              #pragma debug struct_end
  49  0013              #pragma debug union_end
  49  0013              #pragma debug union_end
  49  0013              #pragma debug variable 67 1 ___pcc "__pcc" 1
  49  0013              #pragma debug struct_end
  49  0013              #pragma debug struct_end
  49  0013              #pragma debug union_end
  49  0013              #pragma debug union_end
  49  0013              #pragma debug variable 69 1 ___pdc "__pdc" 1
  49  0013              #pragma debug struct_end
  49  0013              #pragma debug struct_end
  49  0013              #pragma debug union_end
  49  0013              #pragma debug union_end
  49  0013              #pragma debug variable 71 1 ___pscr "__pscr" 1
  49  0013              #pragma debug struct_end
  49  0013              #pragma debug struct_end
  49  0013              #pragma debug union_end
  49  0013              #pragma debug union_end
  49  0013              #pragma debug variable 73 1 ___tb0c "__tb0c" 1
  49  0013              #pragma debug struct_end
  49  0013              #pragma debug struct_end
  49  0013              #pragma debug union_end
  49  0013              #pragma debug union_end
"File: Main/Main.h   Assembler  Version HGASM0202      Page 23

  49  0013              #pragma debug variable 75 1 ___tb1c "__tb1c" 1
  49  0013              #pragma debug struct_end
  49  0013              #pragma debug struct_end
  49  0013              #pragma debug union_end
  49  0013              #pragma debug union_end
  49  0013              #pragma debug variable 77 1 ___intc1 "__intc1" 1
  49  0013              #pragma debug struct_end
  49  0013              #pragma debug struct_end
  49  0013              #pragma debug union_end
  49  0013              #pragma debug union_end
  49  0013              #pragma debug variable 79 1 ___pas0 "__pas0" 1
  49  0013              #pragma debug struct_end
  49  0013              #pragma debug struct_end
  49  0013              #pragma debug union_end
  49  0013              #pragma debug union_end
  49  0013              #pragma debug variable 81 1 ___pas1 "__pas1" 1
  49  0013              #pragma debug struct_end
  49  0013              #pragma debug struct_end
  49  0013              #pragma debug union_end
  49  0013              #pragma debug union_end
  49  0013              #pragma debug variable 83 1 ___pbs0 "__pbs0" 1
  49  0013              #pragma debug struct_end
  49  0013              #pragma debug struct_end
  49  0013              #pragma debug union_end
  49  0013              #pragma debug union_end
  49  0013              #pragma debug variable 85 1 ___pbs1 "__pbs1" 1
  49  0013              #pragma debug struct_end
  49  0013              #pragma debug struct_end
  49  0013              #pragma debug union_end
  49  0013              #pragma debug union_end
  49  0013              #pragma debug variable 87 1 ___pcs0 "__pcs0" 1
  49  0013              #pragma debug struct_end
  49  0013              #pragma debug struct_end
  49  0013              #pragma debug union_end
  49  0013              #pragma debug union_end
  49  0013              #pragma debug variable 89 1 ___pcs1 "__pcs1" 1
  49  0013              #pragma debug struct_end
  49  0013              #pragma debug struct_end
  49  0013              #pragma debug union_end
  49  0013              #pragma debug union_end
  49  0013              #pragma debug variable 91 1 ___pds0 "__pds0" 1

   7  0013              #line 7 "c:\users\tech\desktop\gasdetector\Main\Main.c"
   7  0000              @code .section at 0 'code'
   7  0000  2800     R  	jmp _main_startup1
   7  0001              
   7  0001              extern _S_ADC_Init:near
   7  0001              extern _S_READ_ADC:near
   7  0001              extern _builtin_holtek_mant1:byte
   7  0001              extern _builtin_holtek_mant12p:byte
   7  0001              extern _builtin_holtek_signs:byte
   7  0001              extern _builtin_holtek_uitod:near
   7  0001              extern _builtin_holtek_mant2:byte
   7  0001              extern _builtin_holtek_dtdiv:near
   7  0001              extern _builtin_holtek_dtmul:near
   7  0001              extern _builtin_holtek_dtsub:near
   7  0001              extern _builtin_holtek_dtol:near
   7  0001              extern _abs_2:byte
   7  0001              extern _abs:near
   7  0001              extern _Display_2:byte
"File: Main.c        Assembler  Version HGASM0202      Page 24

   7  0001              extern _Display:near
   7  0001              extern _DisplayBatteryLOW:near
   7  0001              extern _DisplaySuplyError:near
   7  0001              
   7  0001              ; 
   7  0001              ; Generated by holtek-gcc v3.19, Tue Jun 11 18:01:19 2024
   7  0001              ; Rebuild 718
   7  0001              ; end of file


        0 Errors, 0