"File: Main.c        Assembler  Version HGASM0202      Page 1


   1  0000              ; Generated by holtek-gcc v3.19, Sun Jun 09 17:33:00 2024
   2  0000              ; 
   3  0000              ; Configuration:
   4  0000              ;       without long instruction
   5  0000              ;       Single ROM, Multi-RAM
   6  0000              ;       bits_per_rom_unit:16
   7  0000              ;       with mp1
   8  0000              ;       with tbhp, address(0x9)
   9  0000              ;          Use tabrd-const
  10  0000              ;       
  11  0000              ;       
  12  0000              ;       
  13  0000              ; use 'tabrdc' instead of 'tabrd'
  14  0000              ;       
  15  0000              
  16  0000              #pragma translator "holtek-gcc 4.6.4" "3.19" "build 20130711"
  17  0000              ; Rebuild 718
  18  0000              
  19  0000              ir equ [2]
  20  0000              mp equ [3]
  21  0000              sbp equ [1]
  22  0000              acc equ [5]
  23  0000              bp equ [4]
  24  0000              tblp equ [7]
  25  0000              tbhp equ [9]
  26  0000              status equ [10]
  27  0000              c equ [10].0
  28  0000              ac equ [10].1
  29  0000              z equ [10].2
  30  0000              ov equ [10].3
  31  0000              intc equ [11]
  32  0000              
  33  0000              extern ra:byte
  34  0000              extern rb:byte
  35  0000              extern rc:byte
  36  0000              extern rd:byte
  37  0000              extern re:byte
  38  0000              extern rf:byte
  39  0000              extern rg:byte
  40  0000              extern rh:byte
  41  0000              extern _Crom2Prom:near
  42  0000              extern _Crom2PromNext:near
  43  0000              
  44  0000              RAMBANK 0 @HCCINIT, @HCCINIT0
  45  0000              
  46  0000              RAMBANK 0 @BITDATASEC, @BITDATASEC1
  47  0000              @HCCINIT	.section 'data'
  48  0000              @HCCINIT0	.section 'data'
  49  0000              @BITDATASEC	 .section 'data'
  50  0000              @BITDATASEC1	 .section 'data'
  51  0000              
  52  0000              #pragma debug scope 1 1
  53  0000              	extern __DELAY3:near
  54  0000              	extern __DELAYX3:near
  55  0000              	extern __DELAYX6:near
  56  0000              	extern __DELAYY5:near
  57  0000              	extern __DELAYY3:near
  58  0000              	extern _builtin_holtek_delay_2:byte
  59  0000              public _isr_timer
"File: Main.ASM      Assembler  Version HGASM0202      Page 2

  60  0000              #pragma debug scope 2 1

  11  0000              #line 11 "c:\users\tech\desktop\gasdetector\Main\Main.c"
  11  0000              @isr_timer_code .section at 28 'code'
  11  0000  0080     E  	mov r1,a
  11  0001  070A        	mov a,status
  11  0002  0080     E  	mov r2,a
  11  0003  2800     R  	jmp _isr_timer
  11  0004              #pragma debug scope 1 1
  11  0004              @dummy28 endp
  11  0004              #pragma debug scope 3 1
  11  0000              _isr_timer .section 'code'
  11  0000              _isr_timer proc
  12  0000              #line 12 "c:\users\tech\desktop\gasdetector\Main\Main.c"
  12  0000  0F02        	mov a,2
  12  0001  0080     R  	mov _tick[0],a
  12  0002  0700     E  	mov a,r2
  12  0003  008A        	mov status,a
  12  0004  0700     E  	mov a,r1
  12  0005  0004        	reti
  12  0006              _isr_timer endp
  12  0006              
  12  0006              #line 12 "c:\users\tech\desktop\gasdetector\Main\Main.c"
  12  0006              #pragma debug scope 1 1
  12  0006              ___scc equ [16]
  12  0006              ___wdtc equ [25]
  12  0006              ___lvrc equ [12]
  12  0006              ___lvpuc equ [24]
  12  0006              ___pac equ [21]
  12  0006              ___pbc equ [28]
  12  0006              ___pcc equ [32]
  12  0006              ___pdc equ [36]
  12  0006              ___pas1 equ [86]
  12  0006              ___pas0 equ [85]
  12  0006              ___pbs1 equ [88]
  12  0006              ___pbs0 equ [87]
  12  0006              ___pcs1 equ [90]
  12  0006              ___pcs0 equ [89]
  12  0006              ___pds0 equ [91]
  12  0006              ___pbpu equ [29]
  12  0006              ___tb0c equ [76]
  12  0006              ___pscr equ [75]
  12  0006              ___intc1 equ [80]
  12  0006              ___tb1c equ [77]
  12  0006              ___vbgc equ [13]
  12  0006              ___pa equ [20]
  12  0006              ___pc equ [31]
  12  0006              ___pb equ [27]
  12  0006              public _main
  12  0006              #pragma debug scope 4 1
  27  0006              #line 27 "c:\users\tech\desktop\gasdetector\Main\Main.c"
  27  0006              IFDEF WITH_DEFAULT_STARTUP
  27  0006              extern _main_initial0:near
  27  0006              extern _main_startup:near
  27  0006              ENDIF
  27  0006              
  27  0006              ROMBANK 0 @start
  27  0000              @start .section com_l 'code'
  27  0000              _main_startup1:
  27  0000              @start .section com_e 'code'
"File: Main.c        Assembler  Version HGASM0202      Page 3

  27  0000  2800     R  	jmp _main
  27  0001              
  27  0000              _main .section 'code'
  27  0000              _main proc
  27  0000  0004[           local _main_2 db 4 dup(?)
            00
            ]
  33  0004              #line 33 "c:\users\tech\desktop\gasdetector\Main\Main.c"
  33  0000  3690        	clr [16].5
  34  0001              #line 34 "c:\users\tech\desktop\gasdetector\Main\Main.c"
  34  0001  3710        	clr [16].6
  35  0002              #line 35 "c:\users\tech\desktop\gasdetector\Main\Main.c"
  35  0002  3790        	clr [16].7
  36  0003              #line 36 "c:\users\tech\desktop\gasdetector\Main\Main.c"
  36  0003  3510        	clr [16].2
  37  0004              #line 37 "c:\users\tech\desktop\gasdetector\Main\Main.c"
  37  0004  3010        	set [16].0
  39  0005              #line 39 "c:\users\tech\desktop\gasdetector\Main\Main.c"
  39  0005  0FAF        	mov a,175
  39  0006  0099        	mov [25],a
  41  0007              #line 41 "c:\users\tech\desktop\gasdetector\Main\Main.c"
  41  0007  0FA5        	mov a,165
  41  0008  008C        	mov [12],a
  45  0009              #line 45 "c:\users\tech\desktop\gasdetector\Main\Main.c"
  45  0009  3418        	clr [24].0
  47  000A              #line 47 "c:\users\tech\desktop\gasdetector\Main\Main.c"
  47  000A  0F69        	mov a,105
  47  000B  0695        	andm a,[21]
  48  000C              #line 48 "c:\users\tech\desktop\gasdetector\Main\Main.c"
  48  000C  0F06        	mov a,6
  48  000D  0595        	orm a,[21]
  50  000E              #line 50 "c:\users\tech\desktop\gasdetector\Main\Main.c"
  50  000E  071C        	mov a,[28]
  50  000F  0080     E  	mov ra,a
  50  0010  1F1C        	clr [28]
  51  0011              #line 51 "c:\users\tech\desktop\gasdetector\Main\Main.c"
  51  0011  0F0B        	mov a,11
  51  0012  059C        	orm a,[28]
  53  0013              #line 53 "c:\users\tech\desktop\gasdetector\Main\Main.c"
  53  0013  0720        	mov a,[32]
  53  0014  0080     E  	mov ra,a
  53  0015  1F20        	clr [32]
  56  0016              #line 56 "c:\users\tech\desktop\gasdetector\Main\Main.c"
  56  0016  0724        	mov a,[36]
  56  0017  0080     E  	mov ra,a
  56  0018  1F24        	clr [36]
  59  0019              #line 59 "c:\users\tech\desktop\gasdetector\Main\Main.c"
  59  0019  1F56        	clr [86]
  60  001A              #line 60 "c:\users\tech\desktop\gasdetector\Main\Main.c"
  60  001A  0F08        	mov a,8
  60  001B  00D5        	mov [85],a
  62  001C              #line 62 "c:\users\tech\desktop\gasdetector\Main\Main.c"
  62  001C  1F58        	clr [88]
  63  001D              #line 63 "c:\users\tech\desktop\gasdetector\Main\Main.c"
  63  001D  0F0A        	mov a,10
  63  001E  00D7        	mov [87],a
  65  001F              #line 65 "c:\users\tech\desktop\gasdetector\Main\Main.c"
  65  001F  1F5A        	clr [90]
  66  0020              #line 66 "c:\users\tech\desktop\gasdetector\Main\Main.c"
  66  0020  1F59        	clr [89]
"File: Main.c        Assembler  Version HGASM0202      Page 4

  68  0021              #line 68 "c:\users\tech\desktop\gasdetector\Main\Main.c"
  68  0021  1F5B        	clr [91]
  70  0022              #line 70 "c:\users\tech\desktop\gasdetector\Main\Main.c"
  70  0022  319D        	set [29].3
  74  0023              #line 74 "c:\users\tech\desktop\gasdetector\Main\Main.c"
  74  0023  33CC        	set [76].7
  76  0024              #line 76 "c:\users\tech\desktop\gasdetector\Main\Main.c"
  76  0024  304B        	set [75].0
  77  0025              #line 77 "c:\users\tech\desktop\gasdetector\Main\Main.c"
  77  0025  30CB        	set [75].1
  79  0026              #line 79 "c:\users\tech\desktop\gasdetector\Main\Main.c"
  79  0026  304C        	set [76].0
  80  0027              #line 80 "c:\users\tech\desktop\gasdetector\Main\Main.c"
  80  0027  34CC        	clr [76].1
  81  0028              #line 81 "c:\users\tech\desktop\gasdetector\Main\Main.c"
  81  0028  354C        	clr [76].2
  83  0029              #line 83 "c:\users\tech\desktop\gasdetector\Main\Main.c"
  83  0029  3150        	set [80].2
  85  002A              #line 85 "c:\users\tech\desktop\gasdetector\Main\Main.c"
  85  002A  33CD        	set [77].7
  87  002B              #line 87 "c:\users\tech\desktop\gasdetector\Main\Main.c"
  87  002B  304D        	set [77].0
  88  002C              #line 88 "c:\users\tech\desktop\gasdetector\Main\Main.c"
  88  002C  30CD        	set [77].1
  89  002D              #line 89 "c:\users\tech\desktop\gasdetector\Main\Main.c"
  89  002D  314D        	set [77].2
  91  002E              #line 91 "c:\users\tech\desktop\gasdetector\Main\Main.c"
  91  002E  31D0        	set [80].3
  93  002F              #line 93 "c:\users\tech\desktop\gasdetector\Main\Main.c"
  93  002F  318D        	set [13].3
  95  0030              #line 95 "c:\users\tech\desktop\gasdetector\Main\Main.c"
  95  0030  3614        	clr [20].4
  96  0031              #line 96 "c:\users\tech\desktop\gasdetector\Main\Main.c"
  96  0031  341F        	clr [31].0
  97  0032              #line 97 "c:\users\tech\desktop\gasdetector\Main\Main.c"
  97  0032  349F        	clr [31].1
  98  0033              #line 98 "c:\users\tech\desktop\gasdetector\Main\Main.c"
  98  0033  351F        	clr [31].2
  99  0034              #line 99 "c:\users\tech\desktop\gasdetector\Main\Main.c"
  99  0034  311B        	set [27].2
 100  0035              #line 100 "c:\users\tech\desktop\gasdetector\Main\Main.c"
 100  0035  2000     E  	call _S_ADC_Init
 100  0036              _L7:
 102  0036              #line 102 "c:\users\tech\desktop\gasdetector\Main\Main.c"
 102  0036  0700     R  	mov a,_delay[0]
 102  0037  0080     E  	mov rd,a
 102  0038  0700     R  	mov a,_delay[1]
 102  0039  0080     E  	mov re,a
 102  003A  0700     R  	mov a,_delay[2]
 102  003B  0080     E  	mov rf,a
 102  003C  0700     R  	mov a,_delay[3]
 102  003D  0080     E  	mov rg,a
 102  003E  0F97        	mov a,151
 102  003F  0200     E  	sub a,rd
 102  0040  0F3A        	mov a,58
 102  0041  1200     E  	sbc a,re
 102  0042  0F00        	mov a,0
 102  0043  1200     E  	sbc a,rf
 102  0044  0F00        	mov a,0
 102  0045  1200     E  	sbc a,rg
"File: Main.c        Assembler  Version HGASM0202      Page 5

 102  0046  380A        	snz c
 102  0047  2800     R  	jmp _L35
 104  0048              #line 104 "c:\users\tech\desktop\gasdetector\Main\Main.c"
 104  0048  0F01        	mov a,1
 104  0049  0300     E  	add a,rd
 104  004A  0080     R  	mov _delay[0],a
 104  004B  0F00        	mov a,0
 104  004C  1300     E  	adc a,re
 104  004D  0080     R  	mov _delay[1],a
 104  004E  0F00        	mov a,0
 104  004F  1300     E  	adc a,rf
 104  0050  0080     R  	mov _delay[2],a
 104  0051  0F00        	mov a,0
 104  0052  1300     E  	adc a,rg
 104  0053  0080     R  	mov _delay[3],a
 105  0054              #line 105 "c:\users\tech\desktop\gasdetector\Main\Main.c"
 105  0054  0F01        	mov a,1
 105  0055  0300     R  	add a,_i[0]
 105  0056  0080     E  	mov rb,a
 105  0057  0F00        	mov a,0
 105  0058  1300     R  	adc a,_i[1]
 105  0059  0080     E  	mov rc,a
 105  005A  0700     E  	mov a,rb
 105  005B  0080     R  	mov _i[0],a
 105  005C  0700     E  	mov a,rc
 105  005D  0080     R  	mov _i[1],a
 106  005E              #line 106 "c:\users\tech\desktop\gasdetector\Main\Main.c"
 106  005E  0FE7        	mov a,231
 106  005F  0200     E  	sub a,rb
 106  0060  0F03        	mov a,3
 106  0061  1200     E  	sbc a,rc
 106  0062  380A        	snz c
 106  0063  2800     R  	jmp _L4
 108  0064              #line 108 "c:\users\tech\desktop\gasdetector\Main\Main.c"
 108  0064  301F        	set [31].0
 109  0065              #line 109 "c:\users\tech\desktop\gasdetector\Main\Main.c"
 109  0065  311F        	set [31].2
 110  0066              #line 110 "c:\users\tech\desktop\gasdetector\Main\Main.c"
 110  0066  309F        	set [31].1
 110  0067  2800     R  	jmp _L5
 110  0068              _L4:
 114  0068              #line 114 "c:\users\tech\desktop\gasdetector\Main\Main.c"
 114  0068  341F        	clr [31].0
 115  0069              #line 115 "c:\users\tech\desktop\gasdetector\Main\Main.c"
 115  0069  351F        	clr [31].2
 116  006A              #line 116 "c:\users\tech\desktop\gasdetector\Main\Main.c"
 116  006A  349F        	clr [31].1
 118  006B              #line 118 "c:\users\tech\desktop\gasdetector\Main\Main.c"
 118  006B  0FD0        	mov a,208
 118  006C  0200     E  	sub a,rb
 118  006D  0F07        	mov a,7
 118  006E  1200     E  	sbc a,rc
 118  006F  3C0A        	sz c
 118  0070  2800     R  	jmp _L5
 121  0071              #line 121 "c:\users\tech\desktop\gasdetector\Main\Main.c"
 121  0071  1F00     R  	clr _i[0]
 121  0072  1F00     R  	clr _i[1]
 122  0073              #line 122 "c:\users\tech\desktop\gasdetector\Main\Main.c"
 122  0073  1480     R  	inc _digcunt[0]
 122  0074  3D0A        	sz z
"File: Main.c        Assembler  Version HGASM0202      Page 6

 122  0075  1480     R  	inc _digcunt[1]
 122  0076              _L5:
 124  0076              #line 124 "c:\users\tech\desktop\gasdetector\Main\Main.c"
 124  0076  0700     R  	mov a,_digcunt[0]
 124  0077  0BF8        	add a,248
 124  0078  0080     E  	mov ra,a
 124  0079  0700     E  	mov a,ra
 124  007A  2000     E  	call _DisplayLooding
 125  007B              #line 125 "c:\users\tech\desktop\gasdetector\Main\Main.c"
 125  007B  0700     R  	mov a,_digcunt[0]
 125  007C  0BF9        	add a,249
 125  007D  0080     E  	mov ra,a
 125  007E  0700     E  	mov a,ra
 125  007F  2000     E  	call _DisplayLooding
 126  0080              #line 126 "c:\users\tech\desktop\gasdetector\Main\Main.c"
 126  0080  0700     R  	mov a,_digcunt[0]
 126  0081  0BFA        	add a,250
 126  0082  0080     E  	mov ra,a
 126  0083  0700     E  	mov a,ra
 126  0084  2000     E  	call _DisplayLooding
 127  0085              #line 127 "c:\users\tech\desktop\gasdetector\Main\Main.c"
 127  0085  0700     R  	mov a,_digcunt[0]
 127  0086  0BFB        	add a,251
 127  0087  0080     E  	mov ra,a
 127  0088  0700     E  	mov a,ra
 127  0089  2000     E  	call _DisplayLooding
 128  008A              #line 128 "c:\users\tech\desktop\gasdetector\Main\Main.c"
 128  008A  0700     R  	mov a,_digcunt[0]
 128  008B  0BFC        	add a,252
 128  008C  0080     E  	mov ra,a
 128  008D  0700     E  	mov a,ra
 128  008E  2000     E  	call _DisplayLooding
 129  008F              #line 129 "c:\users\tech\desktop\gasdetector\Main\Main.c"
 129  008F  0700     R  	mov a,_digcunt[0]
 129  0090  0BFD        	add a,253
 129  0091  0080     E  	mov ra,a
 129  0092  0700     E  	mov a,ra
 129  0093  2000     E  	call _DisplayLooding
 130  0094              #line 130 "c:\users\tech\desktop\gasdetector\Main\Main.c"
 130  0094  0700     R  	mov a,_digcunt[0]
 130  0095  0BFE        	add a,254
 130  0096  0080     E  	mov ra,a
 130  0097  0700     E  	mov a,ra
 130  0098  2000     E  	call _DisplayLooding
 131  0099              #line 131 "c:\users\tech\desktop\gasdetector\Main\Main.c"
 131  0099  1500     R  	deca _digcunt[0]
 131  009A  0080     E  	mov ra,a
 131  009B  0700     E  	mov a,ra
 131  009C  2000     E  	call _DisplayLooding
 132  009D              #line 132 "c:\users\tech\desktop\gasdetector\Main\Main.c"
 132  009D  0700     R  	mov a,_digcunt[0]
 132  009E  2000     E  	call _DisplayLooding
 133  009F              #line 133 "c:\users\tech\desktop\gasdetector\Main\Main.c"
 133  009F  0F07        	mov a,7
 133  00A0  0200     R  	sub a,_digcunt[0]
 133  00A1  0F00        	mov a,0
 133  00A2  1200     R  	sbc a,_digcunt[1]
 133  00A3  1185        	swap acc
 133  00A4  040A        	xor a,status
 133  00A5  3985        	snz acc.3
"File: Main.c        Assembler  Version HGASM0202      Page 7

 133  00A6  2800     R  	jmp _L7
 133  00A7  1F00     R  	clr _i[0]
 133  00A8  1F00     R  	clr _i[1]
 133  00A9  1F00     R  	clr _digcunt[0]
 133  00AA  1F00     R  	clr _digcunt[1]
 133  00AB  2800     R  	jmp _L7
 133  00AC              _L35:
 137  00AC              #line 137 "c:\users\tech\desktop\gasdetector\Main\Main.c"
 137  00AC  1F00     R  	clr _delay[0]
 137  00AD  1F00     R  	clr _delay[1]
 137  00AE  1F00     R  	clr _delay[2]
 137  00AF  1F00     R  	clr _delay[3]
 139  00B0              #line 139 "c:\users\tech\desktop\gasdetector\Main\Main.c"
 139  00B0  301F        	set [31].0
 140  00B1              #line 140 "c:\users\tech\desktop\gasdetector\Main\Main.c"
 140  00B1  1F00     R  	clr _Mode[0]
 140  00B2  1F00     R  	clr _Mode[1]
 141  00B3              #line 141 "c:\users\tech\desktop\gasdetector\Main\Main.c"
 141  00B3  0F00        	mov a,0
 141  00B4  2000     E  	call _S_READ_ADC
 141  00B5  0700     E  	mov a,ra
 141  00B6  0080     R  	mov _buffer[0],a
 141  00B7  0700     E  	mov a,rb
 141  00B8  0080     R  	mov _buffer[1],a
 142  00B9              #line 142 "c:\users\tech\desktop\gasdetector\Main\Main.c"
 142  00B9  1F00     E  	clr _Display_2[3]
 142  00BA  1F00     E  	clr _Display_2[4]
 142  00BB  0F43        	mov a,67
 142  00BC  0080     E  	mov _Display_2[2],a
 142  00BD  1F00     E  	clr _Display_2[0]
 142  00BE  1F00     E  	clr _Display_2[1]
 142  00BF  2000     E  	call _Display
 143  00C0              #line 143 "c:\users\tech\desktop\gasdetector\Main\Main.c"
 143  00C0  1F00     R  	clr _i[0]
 143  00C1  1F00     R  	clr _i[1]
 143  00C2              _L24:
 175  00C2              #line 175 "c:\users\tech\desktop\gasdetector\Main\Main.c"
 175  00C2  1400     R  	inca _displayClock[0]
 175  00C3  0080     E  	mov ra,a
 176  00C4              #line 176 "c:\users\tech\desktop\gasdetector\Main\Main.c"
 176  00C4  0F03        	mov a,3
 176  00C5  0200     E  	sub a,ra
 176  00C6  1185        	swap acc
 176  00C7  040A        	xor a,status
 176  00C8  3D85        	sz acc.3
 176  00C9  2800     R  	jmp _L10
 175  00CA              #line 175 "c:\users\tech\desktop\gasdetector\Main\Main.c"
 175  00CA  0700     E  	mov a,ra
 175  00CB  0080     R  	mov _displayClock[0],a
 175  00CC  2800     R  	jmp _L11
 175  00CD              _L10:
 176  00CD              #line 176 "c:\users\tech\desktop\gasdetector\Main\Main.c"
 176  00CD  1F00     R  	clr _displayClock[0]
 176  00CE              _L11:
 177  00CE              #line 177 "c:\users\tech\desktop\gasdetector\Main\Main.c"
 177  00CE  0F00        	mov a,0
 177  00CF  2000     E  	call _S_READ_ADC
 177  00D0  0700     E  	mov a,rb
 177  00D1  0080     E  	mov rc,a
 177  00D2  0700     E  	mov a,ra
"File: Main.c        Assembler  Version HGASM0202      Page 8

 177  00D3  0080     E  	mov rb,a
 177  00D4  0700     E  	mov a,rb
 177  00D5  0080     R  	mov _Parametr[0],a
 177  00D6  0700     E  	mov a,rc
 177  00D7  0080     R  	mov _Parametr[1],a
 178  00D8              #line 178 "c:\users\tech\desktop\gasdetector\Main\Main.c"
 178  00D8  0FFA        	mov a,250
 178  00D9  0200     E  	sub a,rb
 178  00DA  0F00        	mov a,0
 178  00DB  1200     E  	sbc a,rc
 178  00DC  3C0A        	sz c
 178  00DD  2800     R  	jmp _L12
 180  00DE              #line 180 "c:\users\tech\desktop\gasdetector\Main\Main.c"
 180  00DE  0F03        	mov a,3
 180  00DF  0080     R  	mov _Mode[0],a
 180  00E0  1F00     R  	clr _Mode[1]
 180  00E1  2800     R  	jmp _L13
 180  00E2              _L12:
 185  00E2              #line 185 "c:\users\tech\desktop\gasdetector\Main\Main.c"
 185  00E2  3D9B        	sz [27].3
 185  00E3  2800     R  	jmp _L14
 188  00E4              #line 188 "c:\users\tech\desktop\gasdetector\Main\Main.c"
 188  00E4  3000     R  	set _pushButtonState
 189  00E5              #line 189 "c:\users\tech\desktop\gasdetector\Main\Main.c"
 189  00E5  1480     R  	inc _pushButtonCunter[0]
 189  00E6  3D0A        	sz z
 189  00E7  1480     R  	inc _pushButtonCunter[1]
 189  00E8  2800     R  	jmp _L13
 189  00E9              _L14:
 195  00E9              #line 195 "c:\users\tech\desktop\gasdetector\Main\Main.c"
 195  00E9  3800     R  	snz _pushButtonState
 195  00EA  2800     R  	jmp _L13
 195  00EB  0700     R  	mov a,_pushButtonCunter[0]
 195  00EC  0080     E  	mov rd,a
 195  00ED  0700     R  	mov a,_pushButtonCunter[1]
 195  00EE  0080     E  	mov re,a
 195  00EF  0FF4        	mov a,244
 195  00F0  0200     E  	sub a,rd
 195  00F1  0F01        	mov a,1
 195  00F2  1200     E  	sbc a,re
 195  00F3  3C0A        	sz c
 195  00F4  2800     R  	jmp _L15
 197  00F5              #line 197 "c:\users\tech\desktop\gasdetector\Main\Main.c"
 197  00F5  0F02        	mov a,2
 197  00F6  0080     R  	mov _Mode[0],a
 197  00F7  1F00     R  	clr _Mode[1]
 197  00F8  2800     R  	jmp _L13
 197  00F9              _L15:
 199  00F9              #line 199 "c:\users\tech\desktop\gasdetector\Main\Main.c"
 199  00F9  0FF5        	mov a,245
 199  00FA  0380     E  	addm a,rd
 199  00FB  0FFF        	mov a,255
 199  00FC  1380     E  	adcm a,re
 199  00FD  0FE8        	mov a,232
 199  00FE  0200     E  	sub a,rd
 199  00FF  0F01        	mov a,1
 199  0100  1200     E  	sbc a,re
 199  0101  380A        	snz c
 199  0102  2800     R  	jmp _L13
 202  0103              #line 202 "c:\users\tech\desktop\gasdetector\Main\Main.c"
"File: Main.c        Assembler  Version HGASM0202      Page 9

 202  0103  0F01        	mov a,1
 202  0104  0080     R  	mov _Mode[0],a
 202  0105  1F00     R  	clr _Mode[1]
 202  0106              _L13:
 232  0106              #line 232 "c:\users\tech\desktop\gasdetector\Main\Main.c"
 232  0106  3B14        	snz [20].6
 232  0107  2800     R  	jmp _L16
 232  0108  0F05        	mov a,5
 232  0109  0200     E  	sub a,rb
 232  010A  0F00        	mov a,0
 232  010B  1200     E  	sbc a,rc
 232  010C  380A        	snz c
 232  010D  2800     R  	jmp _L16
 234  010E              #line 234 "c:\users\tech\desktop\gasdetector\Main\Main.c"
 234  010E  0F01        	mov a,1
 234  010F  0080     R  	mov _Suply[0],a
 234  0110  1F00     R  	clr _Suply[1]
 234  0111  2800     R  	jmp _L17
 234  0112              _L16:
 236  0112              #line 236 "c:\users\tech\desktop\gasdetector\Main\Main.c"
 236  0112  3F14        	sz [20].6
 236  0113  2800     R  	jmp _L18
 236  0114  0F03        	mov a,3
 236  0115  0200     E  	sub a,rb
 236  0116  0F00        	mov a,0
 236  0117  1200     E  	sbc a,rc
 236  0118  3C0A        	sz c
 236  0119  2800     R  	jmp _L18
 238  011A              #line 238 "c:\users\tech\desktop\gasdetector\Main\Main.c"
 238  011A  0F02        	mov a,2
 238  011B  0080     R  	mov _Suply[0],a
 238  011C  1F00     R  	clr _Suply[1]
 238  011D  2800     R  	jmp _L17
 238  011E              _L18:
 241  011E              #line 241 "c:\users\tech\desktop\gasdetector\Main\Main.c"
 241  011E  3F14        	sz [20].6
 241  011F  2800     R  	jmp _L17
 241  0120  0F02        	mov a,2
 241  0121  0200     E  	sub a,rb
 241  0122  0F00        	mov a,0
 241  0123  1200     E  	sbc a,rc
 241  0124  380A        	snz c
 241  0125  2800     R  	jmp _L17
 243  0126              #line 243 "c:\users\tech\desktop\gasdetector\Main\Main.c"
 243  0126  1F00     R  	clr _Suply[0]
 243  0127  1F00     R  	clr _Suply[1]
 243  0128              _L17:
 246  0128              #line 246 "c:\users\tech\desktop\gasdetector\Main\Main.c"
 246  0128  0F07        	mov a,7
 246  0129  2000     E  	call _S_READ_ADC
 246  012A  0700     E  	mov a,rb
 246  012B  0080     E  	mov _builtin_holtek_mant1[1],a
 246  012C  0700     E  	mov a,ra
 246  012D  0080     E  	mov _builtin_holtek_mant1[0],a
 246  012E  3400     E  	clr _builtin_holtek_signs.0
 246  012F  2000     E  	call _builtin_holtek_uitod
 246  0130  0700     E  	mov a,_builtin_holtek_mant12p[0]
 246  0131  0080     E  	mov rg,a
 246  0132  0700     E  	mov a,_builtin_holtek_mant1[2]
 246  0133  0080     E  	mov rf,a
"File: Main.c        Assembler  Version HGASM0202      Page 10

 246  0134  0700     E  	mov a,_builtin_holtek_mant1[1]
 246  0135  0080     E  	mov re,a
 246  0136  0700     E  	mov a,_builtin_holtek_mant1[0]
 246  0137  0080     E  	mov rd,a
 246  0138  0700     E  	mov a,rg
 246  0139  0080     E  	mov _builtin_holtek_mant12p[0],a
 246  013A  0700     E  	mov a,rf
 246  013B  0080     E  	mov _builtin_holtek_mant1[2],a
 246  013C  0700     E  	mov a,re
 246  013D  0080     E  	mov _builtin_holtek_mant1[1],a
 246  013E  0700     E  	mov a,rd
 246  013F  0080     E  	mov _builtin_holtek_mant1[0],a
 246  0140  0F3F        	mov a,63
 246  0141  0080     E  	mov _builtin_holtek_mant12p[1],a
 246  0142  0FCC        	mov a,204
 246  0143  0080     E  	mov _builtin_holtek_mant2[2],a
 246  0144  0FCC        	mov a,204
 246  0145  0080     E  	mov _builtin_holtek_mant2[1],a
 246  0146  0FCD        	mov a,205
 246  0147  0080     E  	mov _builtin_holtek_mant2[0],a
 246  0148  2000     E  	call _builtin_holtek_dtmul
 246  0149  0700     E  	mov a,_builtin_holtek_mant12p[0]
 246  014A  0080     E  	mov rg,a
 246  014B  0700     E  	mov a,_builtin_holtek_mant1[2]
 246  014C  0080     E  	mov rf,a
 246  014D  0700     E  	mov a,_builtin_holtek_mant1[1]
 246  014E  0080     E  	mov re,a
 246  014F  0700     E  	mov a,_builtin_holtek_mant1[0]
 246  0150  0080     E  	mov rd,a
 246  0151  0700     E  	mov a,rg
 246  0152  0080     E  	mov _builtin_holtek_mant12p[0],a
 246  0153  0700     E  	mov a,rf
 246  0154  0080     E  	mov _builtin_holtek_mant1[2],a
 246  0155  0700     E  	mov a,re
 246  0156  0080     E  	mov _builtin_holtek_mant1[1],a
 246  0157  0700     E  	mov a,rd
 246  0158  0080     E  	mov _builtin_holtek_mant1[0],a
 246  0159  0F44        	mov a,68
 246  015A  0080     E  	mov _builtin_holtek_mant12p[1],a
 246  015B  0F7F        	mov a,127
 246  015C  0080     E  	mov _builtin_holtek_mant2[2],a
 246  015D  0FC0        	mov a,192
 246  015E  0080     E  	mov _builtin_holtek_mant2[1],a
 246  015F  0F00        	mov a,0
 246  0160  0080     E  	mov _builtin_holtek_mant2[0],a
 246  0161  2000     E  	call _builtin_holtek_dtdiv
 246  0162  0700     E  	mov a,_builtin_holtek_mant12p[0]
 246  0163  0080     E  	mov rg,a
 246  0164  0700     E  	mov a,_builtin_holtek_mant1[2]
 246  0165  0080     E  	mov rf,a
 246  0166  0700     E  	mov a,_builtin_holtek_mant1[1]
 246  0167  0080     E  	mov re,a
 246  0168  0700     E  	mov a,_builtin_holtek_mant1[0]
 246  0169  0080     E  	mov rd,a
 246  016A  0700     E  	mov a,rg
 246  016B  0080     E  	mov _builtin_holtek_mant12p[0],a
 246  016C  0700     E  	mov a,rf
 246  016D  0080     E  	mov _builtin_holtek_mant1[2],a
 246  016E  0700     E  	mov a,re
 246  016F  0080     E  	mov _builtin_holtek_mant1[1],a
"File: Main.c        Assembler  Version HGASM0202      Page 11

 246  0170  0700     E  	mov a,rd
 246  0171  0080     E  	mov _builtin_holtek_mant1[0],a
 246  0172  0F40        	mov a,64
 246  0173  0080     E  	mov _builtin_holtek_mant12p[1],a
 246  0174  0F80        	mov a,128
 246  0175  0080     E  	mov _builtin_holtek_mant2[2],a
 246  0176  0F00        	mov a,0
 246  0177  0080     E  	mov _builtin_holtek_mant2[1],a
 246  0178  0F00        	mov a,0
 246  0179  0080     E  	mov _builtin_holtek_mant2[0],a
 246  017A  2000     E  	call _builtin_holtek_dtmul
 246  017B  0700     E  	mov a,_builtin_holtek_mant12p[0]
 246  017C  0080     E  	mov rg,a
 246  017D  0700     E  	mov a,_builtin_holtek_mant1[2]
 246  017E  0080     E  	mov rf,a
 246  017F  0700     E  	mov a,_builtin_holtek_mant1[1]
 246  0180  0080     E  	mov re,a
 246  0181  0700     E  	mov a,_builtin_holtek_mant1[0]
 246  0182  0080     E  	mov rd,a
 246  0183  0700     E  	mov a,rg
 246  0184  0080     R  	mov _AVDD[2],a
 246  0185  0700     E  	mov a,rf
 246  0186  0080     R  	mov _AVDD[1],a
 246  0187  0700     E  	mov a,re
 246  0188  0080     R  	mov _AVDD[0],a
 248  0189              #line 248 "c:\users\tech\desktop\gasdetector\Main\Main.c"
 248  0189  0700     R  	mov a,_Mode[0]
 248  018A  0500     R  	or a,_Mode[1]
 248  018B  3D0A        	sz z
 248  018C  2800     R  	jmp _L20
 248  018D  0700     R  	mov a,_Mode[0]
 248  018E  0C01        	xor a,1
 248  018F  0500     R  	or a,_Mode[1]
 248  0190  3D0A        	sz z
 248  0191  2800     R  	jmp _L21
 248  0192  0700     R  	mov a,_Mode[0]
 248  0193  0C02        	xor a,2
 248  0194  0500     R  	or a,_Mode[1]
 248  0195  3D0A        	sz z
 248  0196  2800     R  	jmp _L22
 248  0197  0700     R  	mov a,_Mode[0]
 248  0198  0C03        	xor a,3
 248  0199  0500     R  	or a,_Mode[1]
 248  019A  390A        	snz z
 248  019B  2800     R  	jmp _L24
 413  019C              #line 413 "c:\users\tech\desktop\gasdetector\Main\Main.c"
 413  019C  3214        	set [20].4
 414  019D              #line 414 "c:\users\tech\desktop\gasdetector\Main\Main.c"
 414  019D  311B        	set [27].2
 415  019E              #line 415 "c:\users\tech\desktop\gasdetector\Main\Main.c"
 415  019E  309F        	set [31].1
 416  019F              #line 416 "c:\users\tech\desktop\gasdetector\Main\Main.c"
 416  019F  301F        	set [31].0
 417  01A0              #line 417 "c:\users\tech\desktop\gasdetector\Main\Main.c"
 417  01A0  311F        	set [31].2
 418  01A1              #line 418 "c:\users\tech\desktop\gasdetector\Main\Main.c"
 418  01A1  0F00     R  	mov a,low offset _displayClock
 418  01A2  0080     E  	mov _Display_2[3],a
 418  01A3  0F00     R  	mov a,high offset _displayClock
 418  01A4  0080     E  	mov _Display_2[4],a
"File: Main.c        Assembler  Version HGASM0202      Page 12

 418  01A5  0F30        	mov a,48
 418  01A6  0080     E  	mov _Display_2[2],a
 418  01A7  0FFA        	mov a,-6
 418  01A8  0080     E  	mov _Display_2[0],a
 418  01A9  1F00     E  	clr _Display_2[1]
 418  01AA  2800     R  	jmp _L33
 418  01AB              _L20:
 251  01AB              #line 251 "c:\users\tech\desktop\gasdetector\Main\Main.c"
 251  01AB  3614        	clr [20].4
 252  01AC              #line 252 "c:\users\tech\desktop\gasdetector\Main\Main.c"
 252  01AC  349F        	clr [31].1
 253  01AD              #line 253 "c:\users\tech\desktop\gasdetector\Main\Main.c"
 253  01AD  351F        	clr [31].2
 254  01AE              #line 254 "c:\users\tech\desktop\gasdetector\Main\Main.c"
 254  01AE  301F        	set [31].0
 255  01AF              #line 255 "c:\users\tech\desktop\gasdetector\Main\Main.c"
 255  01AF  311B        	set [27].2
 345  01B0              #line 345 "c:\users\tech\desktop\gasdetector\Main\Main.c"
 345  01B0  0F07        	mov a,7
 345  01B1  2000     E  	call _S_READ_ADC
 345  01B2  0700     E  	mov a,rb
 345  01B3  0080     E  	mov _builtin_holtek_mant1[1],a
 345  01B4  0700     E  	mov a,ra
 345  01B5  0080     E  	mov _builtin_holtek_mant1[0],a
 345  01B6  3400     E  	clr _builtin_holtek_signs.0
 345  01B7  2000     E  	call _builtin_holtek_uitod
 345  01B8  0700     E  	mov a,_builtin_holtek_mant12p[0]
 345  01B9  0080     E  	mov rg,a
 345  01BA  0700     E  	mov a,_builtin_holtek_mant1[2]
 345  01BB  0080     E  	mov rf,a
 345  01BC  0700     E  	mov a,_builtin_holtek_mant1[1]
 345  01BD  0080     E  	mov re,a
 345  01BE  0700     E  	mov a,_builtin_holtek_mant1[0]
 345  01BF  0080     E  	mov rd,a
 345  01C0  0700     E  	mov a,rg
 345  01C1  0080     E  	mov _builtin_holtek_mant12p[0],a
 345  01C2  0700     E  	mov a,rf
 345  01C3  0080     E  	mov _builtin_holtek_mant1[2],a
 345  01C4  0700     E  	mov a,re
 345  01C5  0080     E  	mov _builtin_holtek_mant1[1],a
 345  01C6  0700     E  	mov a,rd
 345  01C7  0080     E  	mov _builtin_holtek_mant1[0],a
 345  01C8  0F3F        	mov a,63
 345  01C9  0080     E  	mov _builtin_holtek_mant12p[1],a
 345  01CA  0FCC        	mov a,204
 345  01CB  0080     E  	mov _builtin_holtek_mant2[2],a
 345  01CC  0FCC        	mov a,204
 345  01CD  0080     E  	mov _builtin_holtek_mant2[1],a
 345  01CE  0FCD        	mov a,205
 345  01CF  0080     E  	mov _builtin_holtek_mant2[0],a
 345  01D0  2000     E  	call _builtin_holtek_dtmul
 345  01D1  0700     E  	mov a,_builtin_holtek_mant12p[0]
 345  01D2  0080     E  	mov rg,a
 345  01D3  0700     E  	mov a,_builtin_holtek_mant1[2]
 345  01D4  0080     E  	mov rf,a
 345  01D5  0700     E  	mov a,_builtin_holtek_mant1[1]
 345  01D6  0080     E  	mov re,a
 345  01D7  0700     E  	mov a,_builtin_holtek_mant1[0]
 345  01D8  0080     E  	mov rd,a
 345  01D9  0700     E  	mov a,rg
"File: Main.c        Assembler  Version HGASM0202      Page 13

 345  01DA  0080     E  	mov _builtin_holtek_mant12p[0],a
 345  01DB  0700     E  	mov a,rf
 345  01DC  0080     E  	mov _builtin_holtek_mant1[2],a
 345  01DD  0700     E  	mov a,re
 345  01DE  0080     E  	mov _builtin_holtek_mant1[1],a
 345  01DF  0700     E  	mov a,rd
 345  01E0  0080     E  	mov _builtin_holtek_mant1[0],a
 345  01E1  0F44        	mov a,68
 345  01E2  0080     E  	mov _builtin_holtek_mant12p[1],a
 345  01E3  0F7A        	mov a,122
 345  01E4  0080     E  	mov _builtin_holtek_mant2[2],a
 345  01E5  0F00        	mov a,0
 345  01E6  0080     E  	mov _builtin_holtek_mant2[1],a
 345  01E7  0F00        	mov a,0
 345  01E8  0080     E  	mov _builtin_holtek_mant2[0],a
 345  01E9  2000     E  	call _builtin_holtek_dtmul
 345  01EA  0700     E  	mov a,_builtin_holtek_mant12p[0]
 345  01EB  0080     E  	mov rg,a
 345  01EC  0700     E  	mov a,_builtin_holtek_mant1[2]
 345  01ED  0080     E  	mov rf,a
 345  01EE  0700     E  	mov a,_builtin_holtek_mant1[1]
 345  01EF  0080     E  	mov re,a
 345  01F0  0700     E  	mov a,_builtin_holtek_mant1[0]
 345  01F1  0080     E  	mov rd,a
 345  01F2  0700     E  	mov a,rg
 345  01F3  0080     E  	mov _builtin_holtek_mant12p[0],a
 345  01F4  0700     E  	mov a,rf
 345  01F5  0080     E  	mov _builtin_holtek_mant1[2],a
 345  01F6  0700     E  	mov a,re
 345  01F7  0080     E  	mov _builtin_holtek_mant1[1],a
 345  01F8  0700     E  	mov a,rd
 345  01F9  0080     E  	mov _builtin_holtek_mant1[0],a
 345  01FA  0F44        	mov a,68
 345  01FB  0080     E  	mov _builtin_holtek_mant12p[1],a
 345  01FC  0F7F        	mov a,127
 345  01FD  0080     E  	mov _builtin_holtek_mant2[2],a
 345  01FE  0FC0        	mov a,192
 345  01FF  0080     E  	mov _builtin_holtek_mant2[1],a
 345  0200  0F00        	mov a,0
 345  0201  0080     E  	mov _builtin_holtek_mant2[0],a
 345  0202  2000     E  	call _builtin_holtek_dtdiv
 345  0203  0700     E  	mov a,_builtin_holtek_mant12p[0]
 345  0204  0080     E  	mov rg,a
 345  0205  0700     E  	mov a,_builtin_holtek_mant1[2]
 345  0206  0080     E  	mov rf,a
 345  0207  0700     E  	mov a,_builtin_holtek_mant1[1]
 345  0208  0080     E  	mov re,a
 345  0209  0700     E  	mov a,_builtin_holtek_mant1[0]
 345  020A  0080     E  	mov rd,a
 345  020B  0700     E  	mov a,rg
 345  020C  0080     E  	mov _builtin_holtek_mant12p[0],a
 345  020D  0700     E  	mov a,rf
 345  020E  0080     E  	mov _builtin_holtek_mant1[2],a
 345  020F  0700     E  	mov a,re
 345  0210  0080     E  	mov _builtin_holtek_mant1[1],a
 345  0211  0700     E  	mov a,rd
 345  0212  0080     E  	mov _builtin_holtek_mant1[0],a
 345  0213  0F40        	mov a,64
 345  0214  0080     E  	mov _builtin_holtek_mant12p[1],a
 345  0215  0F80        	mov a,128
"File: Main.c        Assembler  Version HGASM0202      Page 14

 345  0216  0080     E  	mov _builtin_holtek_mant2[2],a
 345  0217  0F00        	mov a,0
 345  0218  0080     E  	mov _builtin_holtek_mant2[1],a
 345  0219  0F00        	mov a,0
 345  021A  0080     E  	mov _builtin_holtek_mant2[0],a
 345  021B  2000     E  	call _builtin_holtek_dtmul
 345  021C  0700     E  	mov a,_builtin_holtek_mant12p[0]
 345  021D  0080     E  	mov rg,a
 345  021E  0700     E  	mov a,_builtin_holtek_mant1[2]
 345  021F  0080     E  	mov rf,a
 345  0220  0700     E  	mov a,_builtin_holtek_mant1[1]
 345  0221  0080     E  	mov re,a
 345  0222  0700     E  	mov a,_builtin_holtek_mant1[0]
 345  0223  0080     E  	mov rd,a
 345  0224  0700     E  	mov a,rg
 345  0225  0080     E  	mov _builtin_holtek_mant12p[0],a
 345  0226  0700     E  	mov a,rf
 345  0227  0080     E  	mov _builtin_holtek_mant1[2],a
 345  0228  0700     E  	mov a,re
 345  0229  0080     E  	mov _builtin_holtek_mant1[1],a
 345  022A  0700     E  	mov a,rd
 345  022B  0080     E  	mov _builtin_holtek_mant1[0],a
 345  022C  2000     E  	call _builtin_holtek_dtol
 345  022D  0700     E  	mov a,_builtin_holtek_mant12p[0]
 345  022E  0080     E  	mov rg,a
 345  022F  0700     E  	mov a,_builtin_holtek_mant1[2]
 345  0230  0080     E  	mov rf,a
 345  0231  0700     E  	mov a,_builtin_holtek_mant1[1]
 345  0232  0080     E  	mov re,a
 345  0233  0700     E  	mov a,_builtin_holtek_mant1[0]
 345  0234  0080     E  	mov rd,a
 345  0235  0700     E  	mov a,rd
 345  0236  0080     R  	mov _vdd[0],a
 345  0237  0700     E  	mov a,re
 345  0238  0080     R  	mov _vdd[1],a
 346  0239              #line 346 "c:\users\tech\desktop\gasdetector\Main\Main.c"
 346  0239  0F02        	mov a,2
 346  023A  2000     E  	call _S_READ_ADC
 346  023B  0700     E  	mov a,ra
 346  023C  0080     R  	mov _adc_value_2[0],a
 346  023D  0700     E  	mov a,rb
 346  023E  0080     R  	mov _adc_value_2[1],a
 347  023F              #line 347 "c:\users\tech\desktop\gasdetector\Main\Main.c"
 347  023F  0700     R  	mov a,_vdd[1]
 347  0240  0080     E  	mov _builtin_holtek_mant1[1],a
 347  0241  0700     R  	mov a,_vdd[0]
 347  0242  0080     E  	mov _builtin_holtek_mant1[0],a
 347  0243  2000     E  	call _builtin_holtek_itod
 347  0244  0700     E  	mov a,_builtin_holtek_mant12p[0]
 347  0245  0080     E  	mov rg,a
 347  0246  0700     E  	mov a,_builtin_holtek_mant1[2]
 347  0247  0080     E  	mov rf,a
 347  0248  0700     E  	mov a,_builtin_holtek_mant1[1]
 347  0249  0080     E  	mov re,a
 347  024A  0700     E  	mov a,_builtin_holtek_mant1[0]
 347  024B  0080     E  	mov rd,a
 347  024C  0700     E  	mov a,rg
 347  024D  0080     E  	mov _builtin_holtek_mant12p[0],a
 347  024E  0700     E  	mov a,rf
 347  024F  0080     E  	mov _builtin_holtek_mant1[2],a
"File: Main.c        Assembler  Version HGASM0202      Page 15

 347  0250  0700     E  	mov a,re
 347  0251  0080     E  	mov _builtin_holtek_mant1[1],a
 347  0252  0700     E  	mov a,rd
 347  0253  0080     E  	mov _builtin_holtek_mant1[0],a
 347  0254  0F44        	mov a,68
 347  0255  0080     E  	mov _builtin_holtek_mant12p[1],a
 347  0256  0F7F        	mov a,127
 347  0257  0080     E  	mov _builtin_holtek_mant2[2],a
 347  0258  0FC0        	mov a,192
 347  0259  0080     E  	mov _builtin_holtek_mant2[1],a
 347  025A  0F00        	mov a,0
 347  025B  0080     E  	mov _builtin_holtek_mant2[0],a
 347  025C  2000     E  	call _builtin_holtek_dtdiv
 347  025D  0700     E  	mov a,_builtin_holtek_mant12p[0]
 347  025E  0080     E  	mov rg,a
 347  025F  0700     E  	mov a,_builtin_holtek_mant1[2]
 347  0260  0080     E  	mov rf,a
 347  0261  0700     E  	mov a,_builtin_holtek_mant1[1]
 347  0262  0080     E  	mov re,a
 347  0263  0700     E  	mov a,_builtin_holtek_mant1[0]
 347  0264  0080     E  	mov rd,a
 347  0265  0700     E  	mov a,rb
 347  0266  0080     E  	mov _builtin_holtek_mant1[1],a
 347  0267  0700     E  	mov a,ra
 347  0268  0080     E  	mov _builtin_holtek_mant1[0],a
 347  0269  2000     E  	call _builtin_holtek_itod
 347  026A  0700     E  	mov a,_builtin_holtek_mant12p[0]
 347  026B  0080     R  	mov _main_2[3],a
 347  026C  0700     E  	mov a,_builtin_holtek_mant1[2]
 347  026D  0080     R  	mov _main_2[2],a
 347  026E  0700     E  	mov a,_builtin_holtek_mant1[1]
 347  026F  0080     R  	mov _main_2[1],a
 347  0270  0700     E  	mov a,_builtin_holtek_mant1[0]
 347  0271  0080     R  	mov _main_2[0],a
 347  0272  0700     E  	mov a,rg
 347  0273  0080     E  	mov _builtin_holtek_mant12p[0],a
 347  0274  0700     E  	mov a,rf
 347  0275  0080     E  	mov _builtin_holtek_mant1[2],a
 347  0276  0700     E  	mov a,re
 347  0277  0080     E  	mov _builtin_holtek_mant1[1],a
 347  0278  0700     E  	mov a,rd
 347  0279  0080     E  	mov _builtin_holtek_mant1[0],a
 347  027A  0700     R  	mov a,_main_2[3]
 347  027B  0080     E  	mov _builtin_holtek_mant12p[1],a
 347  027C  0700     R  	mov a,_main_2[2]
 347  027D  0080     E  	mov _builtin_holtek_mant2[2],a
 347  027E  0700     R  	mov a,_main_2[1]
 347  027F  0080     E  	mov _builtin_holtek_mant2[1],a
 347  0280  0700     R  	mov a,_main_2[0]
 347  0281  0080     E  	mov _builtin_holtek_mant2[0],a
 347  0282  2000     E  	call _builtin_holtek_dtmul
 347  0283  0700     E  	mov a,_builtin_holtek_mant12p[0]
 347  0284  0080     E  	mov rg,a
 347  0285  0700     E  	mov a,_builtin_holtek_mant1[2]
 347  0286  0080     E  	mov rf,a
 347  0287  0700     E  	mov a,_builtin_holtek_mant1[1]
 347  0288  0080     E  	mov re,a
 347  0289  0700     E  	mov a,_builtin_holtek_mant1[0]
 347  028A  0080     E  	mov rd,a
 347  028B  0700     E  	mov a,re
"File: Main.c        Assembler  Version HGASM0202      Page 16

 347  028C  0080     E  	mov rc,a
 347  028D  0700     E  	mov a,rf
 347  028E  0080     E  	mov rd,a
 347  028F  0700     E  	mov a,rg
 347  0290  0080     E  	mov re,a
 347  0291  0700     E  	mov a,rc
 347  0292  0080     R  	mov _voltage_battery[0],a
 347  0293  0700     E  	mov a,rd
 347  0294  0080     R  	mov _voltage_battery[1],a
 347  0295  0700     E  	mov a,re
 347  0296  0080     R  	mov _voltage_battery[2],a
 348  0297              #line 348 "c:\users\tech\desktop\gasdetector\Main\Main.c"
 348  0297  0700     E  	mov a,re
 348  0298  0080     E  	mov rg,a
 348  0299  0700     E  	mov a,rd
 348  029A  0080     E  	mov rf,a
 348  029B  0700     E  	mov a,rc
 348  029C  0080     E  	mov re,a
 348  029D  1F00     E  	clr rd
 348  029E  0700     E  	mov a,rg
 348  029F  0080     E  	mov _builtin_holtek_mant12p[0],a
 348  02A0  0700     E  	mov a,rf
 348  02A1  0080     E  	mov _builtin_holtek_mant1[2],a
 348  02A2  0700     E  	mov a,re
 348  02A3  0080     E  	mov _builtin_holtek_mant1[1],a
 348  02A4  0700     E  	mov a,rd
 348  02A5  0080     E  	mov _builtin_holtek_mant1[0],a
 348  02A6  0F3D        	mov a,61
 348  02A7  0080     E  	mov _builtin_holtek_mant12p[1],a
 348  02A8  0FD7        	mov a,215
 348  02A9  0080     E  	mov _builtin_holtek_mant2[2],a
 348  02AA  0F94        	mov a,148
 348  02AB  0080     E  	mov _builtin_holtek_mant2[1],a
 348  02AC  0F21        	mov a,33
 348  02AD  0080     E  	mov _builtin_holtek_mant2[0],a
 348  02AE  2000     E  	call _builtin_holtek_dtmul
 348  02AF  0700     E  	mov a,_builtin_holtek_mant12p[0]
 348  02B0  0080     E  	mov rg,a
 348  02B1  0700     E  	mov a,_builtin_holtek_mant1[2]
 348  02B2  0080     E  	mov rf,a
 348  02B3  0700     E  	mov a,_builtin_holtek_mant1[1]
 348  02B4  0080     E  	mov re,a
 348  02B5  0700     E  	mov a,_builtin_holtek_mant1[0]
 348  02B6  0080     E  	mov rd,a
 348  02B7  0700     E  	mov a,rg
 348  02B8  0080     E  	mov _builtin_holtek_mant12p[0],a
 348  02B9  0700     E  	mov a,rf
 348  02BA  0080     E  	mov _builtin_holtek_mant1[2],a
 348  02BB  0700     E  	mov a,re
 348  02BC  0080     E  	mov _builtin_holtek_mant1[1],a
 348  02BD  0700     E  	mov a,rd
 348  02BE  0080     E  	mov _builtin_holtek_mant1[0],a
 348  02BF  0F43        	mov a,67
 348  02C0  0080     E  	mov _builtin_holtek_mant12p[1],a
 348  02C1  0FA9        	mov a,169
 348  02C2  0080     E  	mov _builtin_holtek_mant2[2],a
 348  02C3  0F35        	mov a,53
 348  02C4  0080     E  	mov _builtin_holtek_mant2[1],a
 348  02C5  0FE3        	mov a,227
 348  02C6  0080     E  	mov _builtin_holtek_mant2[0],a
"File: Main.c        Assembler  Version HGASM0202      Page 17

 348  02C7  2000     E  	call _builtin_holtek_dtsub
 348  02C8  0700     E  	mov a,_builtin_holtek_mant12p[0]
 348  02C9  0080     E  	mov rg,a
 348  02CA  0700     E  	mov a,_builtin_holtek_mant1[2]
 348  02CB  0080     E  	mov rf,a
 348  02CC  0700     E  	mov a,_builtin_holtek_mant1[1]
 348  02CD  0080     E  	mov re,a
 348  02CE  0700     E  	mov a,_builtin_holtek_mant1[0]
 348  02CF  0080     E  	mov rd,a
 348  02D0  0700     E  	mov a,rg
 348  02D1  0080     E  	mov _builtin_holtek_mant12p[0],a
 348  02D2  0700     E  	mov a,rf
 348  02D3  0080     E  	mov _builtin_holtek_mant1[2],a
 348  02D4  0700     E  	mov a,re
 348  02D5  0080     E  	mov _builtin_holtek_mant1[1],a
 348  02D6  0700     E  	mov a,rd
 348  02D7  0080     E  	mov _builtin_holtek_mant1[0],a
 348  02D8  2000     E  	call _builtin_holtek_dtol
 348  02D9  0700     E  	mov a,_builtin_holtek_mant12p[0]
 348  02DA  0080     E  	mov rg,a
 348  02DB  0700     E  	mov a,_builtin_holtek_mant1[2]
 348  02DC  0080     E  	mov rf,a
 348  02DD  0700     E  	mov a,_builtin_holtek_mant1[1]
 348  02DE  0080     E  	mov re,a
 348  02DF  0700     E  	mov a,_builtin_holtek_mant1[0]
 348  02E0  0080     E  	mov rd,a
 349  02E1              #line 349 "c:\users\tech\desktop\gasdetector\Main\Main.c"
 349  02E1  0700     E  	mov a,rd
 349  02E2  0080     E  	mov _builtin_holtek_udivmodhi4_2[0],a
 349  02E3  0700     E  	mov a,re
 349  02E4  0080     E  	mov _builtin_holtek_udivmodhi4_2[1],a
 349  02E5  0F05        	mov a,5
 349  02E6  0080     E  	mov _builtin_holtek_udivmodhi4_2[2],a
 349  02E7  0F00        	mov a,0
 349  02E8  0080     E  	mov _builtin_holtek_udivmodhi4_2[3],a
 349  02E9  2000     E  	call _builtin_holtek_divmodhi4
 349  02EA  0700     E  	mov a,_builtin_holtek_udivmodhi4_2[0]
 349  02EB  0080     E  	mov rd,a
 349  02EC  0700     E  	mov a,_builtin_holtek_udivmodhi4_2[1]
 349  02ED  0080     E  	mov re,a
 350  02EE              #line 350 "c:\users\tech\desktop\gasdetector\Main\Main.c"
 350  02EE  340A        	clr c
 350  02EF  1A00     E  	rlca rd
 350  02F0  0080     E  	mov rb,a
 350  02F1  1A00     E  	rlca re
 350  02F2  0080     E  	mov rc,a
 350  02F3  340A        	clr c
 350  02F4  1A80     E  	rlc rb
 350  02F5  1A80     E  	rlc rc
 350  02F6  0700     E  	mov a,rb
 350  02F7  0380     E  	addm a,rd
 350  02F8  0700     E  	mov a,rc
 350  02F9  1380     E  	adcm a,re
 353  02FA              #line 353 "c:\users\tech\desktop\gasdetector\Main\Main.c"
 353  02FA  0F5F        	mov a,95
 353  02FB  0200     E  	sub a,rd
 353  02FC  0F00        	mov a,0
 353  02FD  1200     E  	sbc a,re
 353  02FE  1185        	swap acc
 353  02FF  040A        	xor a,status
"File: Main.c        Assembler  Version HGASM0202      Page 18

 353  0300  3985        	snz acc.3
 353  0301  2800     R  	jmp _L25
 355  0302              #line 355 "c:\users\tech\desktop\gasdetector\Main\Main.c"
 355  0302  0F64        	mov a,100
 355  0303  0080     R  	mov _percent_of_battery[0],a
 355  0304  1F00     R  	clr _percent_of_battery[1]
 355  0305  2800     R  	jmp _L26
 355  0306              _L25:
 357  0306              #line 357 "c:\users\tech\desktop\gasdetector\Main\Main.c"
 357  0306  0F14        	mov a,20
 357  0307  0200     E  	sub a,rd
 357  0308  0F00        	mov a,0
 357  0309  1200     E  	sbc a,re
 357  030A  1185        	swap acc
 357  030B  040A        	xor a,status
 357  030C  3985        	snz acc.3
 357  030D  2800     R  	jmp _L27
 350  030E              #line 350 "c:\users\tech\desktop\gasdetector\Main\Main.c"
 350  030E  0700     E  	mov a,rd
 350  030F  0080     R  	mov _percent_of_battery[0],a
 350  0310  0700     E  	mov a,re
 350  0311  0080     R  	mov _percent_of_battery[1],a
 350  0312  2800     R  	jmp _L26
 350  0313              _L27:
 359  0313              #line 359 "c:\users\tech\desktop\gasdetector\Main\Main.c"
 359  0313  1F00     R  	clr _percent_of_battery[0]
 359  0314  1F00     R  	clr _percent_of_battery[1]
 359  0315              _L26:
 362  0315              #line 362 "c:\users\tech\desktop\gasdetector\Main\Main.c"
 362  0315  0F00     R  	mov a,low offset _displayClock
 362  0316  0080     E  	mov _Display_2[3],a
 362  0317  0F00     R  	mov a,high offset _displayClock
 362  0318  0080     E  	mov _Display_2[4],a
 362  0319  0F62        	mov a,98
 362  031A  0080     E  	mov _Display_2[2],a
 362  031B  0700     R  	mov a,_percent_of_battery[0]
 362  031C  0080     E  	mov _Display_2[0],a
 362  031D  0700     R  	mov a,_percent_of_battery[1]
 362  031E  0080     E  	mov _Display_2[1],a
 362  031F  2800     R  	jmp _L33
 362  0320              _L22:
 375  0320              #line 375 "c:\users\tech\desktop\gasdetector\Main\Main.c"
 375  0320  1480     R  	inc _Cunter[0]
 375  0321  3D0A        	sz z
 375  0322  1480     R  	inc _Cunter[1]
 376  0323              #line 376 "c:\users\tech\desktop\gasdetector\Main\Main.c"
 376  0323  3214        	set [20].4
 377  0324              #line 377 "c:\users\tech\desktop\gasdetector\Main\Main.c"
 377  0324  311B        	set [27].2
 378  0325              #line 378 "c:\users\tech\desktop\gasdetector\Main\Main.c"
 378  0325  309F        	set [31].1
 379  0326              #line 379 "c:\users\tech\desktop\gasdetector\Main\Main.c"
 379  0326  301F        	set [31].0
 380  0327              #line 380 "c:\users\tech\desktop\gasdetector\Main\Main.c"
 380  0327  311F        	set [31].2
 381  0328              #line 381 "c:\users\tech\desktop\gasdetector\Main\Main.c"
 381  0328  0F00     R  	mov a,low offset _displayClock
 381  0329  0080     E  	mov _Display_2[3],a
 381  032A  0F00     R  	mov a,high offset _displayClock
 381  032B  0080     E  	mov _Display_2[4],a
"File: Main.c        Assembler  Version HGASM0202      Page 19

 381  032C  0F30        	mov a,48
 381  032D  0080     E  	mov _Display_2[2],a
 381  032E  0FB8        	mov a,-72
 381  032F  0080     E  	mov _Display_2[0],a
 381  0330  0F22        	mov a,34
 381  0331  0080     E  	mov _Display_2[1],a
 381  0332  2000     E  	call _Display
 382  0333              #line 382 "c:\users\tech\desktop\gasdetector\Main\Main.c"
 382  0333  3400     R  	clr _pushButtonState
 383  0334              #line 383 "c:\users\tech\desktop\gasdetector\Main\Main.c"
 383  0334  1F00     R  	clr _pushButtonCunter[0]
 383  0335  1F00     R  	clr _pushButtonCunter[1]
 384  0336              #line 384 "c:\users\tech\desktop\gasdetector\Main\Main.c"
 384  0336  0FE8        	mov a,232
 384  0337  0200     R  	sub a,_Cunter[0]
 384  0338  0F03        	mov a,3
 384  0339  1200     R  	sbc a,_Cunter[1]
 384  033A  3C0A        	sz c
 384  033B  2800     R  	jmp _L24
 386  033C              #line 386 "c:\users\tech\desktop\gasdetector\Main\Main.c"
 386  033C  1F00     R  	clr _Cunter[0]
 386  033D  1F00     R  	clr _Cunter[1]
 387  033E              #line 387 "c:\users\tech\desktop\gasdetector\Main\Main.c"
 387  033E  1F00     R  	clr _Mode[0]
 387  033F  1F00     R  	clr _Mode[1]
 387  0340  2800     R  	jmp _L24
 387  0341              _L21:
 393  0341              #line 393 "c:\users\tech\desktop\gasdetector\Main\Main.c"
 393  0341  0F01        	mov a,1
 393  0342  0300     R  	add a,_Cunter[4]
 393  0343  0080     E  	mov rb,a
 393  0344  0F00        	mov a,0
 393  0345  1300     R  	adc a,_Cunter[5]
 393  0346  0080     E  	mov rc,a
 393  0347  0700     E  	mov a,rb
 393  0348  0080     R  	mov _Cunter[4],a
 393  0349  0700     E  	mov a,rc
 393  034A  0080     R  	mov _Cunter[5],a
 394  034B              #line 394 "c:\users\tech\desktop\gasdetector\Main\Main.c"
 394  034B  3614        	clr [20].4
 395  034C              #line 395 "c:\users\tech\desktop\gasdetector\Main\Main.c"
 395  034C  349F        	clr [31].1
 396  034D              #line 396 "c:\users\tech\desktop\gasdetector\Main\Main.c"
 396  034D  351F        	clr [31].2
 397  034E              #line 397 "c:\users\tech\desktop\gasdetector\Main\Main.c"
 397  034E  301F        	set [31].0
 400  034F              #line 400 "c:\users\tech\desktop\gasdetector\Main\Main.c"
 400  034F  3400     R  	clr _pushButtonState
 401  0350              #line 401 "c:\users\tech\desktop\gasdetector\Main\Main.c"
 401  0350  1F00     R  	clr _pushButtonCunter[0]
 401  0351  1F00     R  	clr _pushButtonCunter[1]
 402  0352              #line 402 "c:\users\tech\desktop\gasdetector\Main\Main.c"
 402  0352  0FF4        	mov a,244
 402  0353  0200     E  	sub a,rb
 402  0354  0F01        	mov a,1
 402  0355  1200     E  	sbc a,rc
 402  0356  3C0A        	sz c
 402  0357  2800     R  	jmp _L24
 404  0358              #line 404 "c:\users\tech\desktop\gasdetector\Main\Main.c"
 404  0358  1F00     R  	clr _Mode[0]
"File: Main.c        Assembler  Version HGASM0202      Page 20

 404  0359  1F00     R  	clr _Mode[1]
 405  035A              #line 405 "c:\users\tech\desktop\gasdetector\Main\Main.c"
 405  035A  1F00     R  	clr _Cunter[4]
 405  035B  1F00     R  	clr _Cunter[5]
 405  035C  2800     R  	jmp _L24
 405  035D              _L33:
 418  035D              #line 418 "c:\users\tech\desktop\gasdetector\Main\Main.c"
 418  035D  2000     E  	call _Display
 421  035E              #line 421 "c:\users\tech\desktop\gasdetector\Main\Main.c"
 421  035E  2800     R  	jmp _L24
 421  035F  2800     R  	jmp $
 421  0360              _main endp
 421  0360              
 421  0360              @dummy endp
 421  0360              
 421  0360              #line 421 "c:\users\tech\desktop\gasdetector\Main\Main.c"
 421  0360              #pragma debug scope 1 1

 163  0360              #line 163 "C:\Users\Tech\Desktop\GasDetector\Main/Main.h"
 163  0360              public _tick
 163  0000              @HCCINIT0 .section 'data'
 163  0000              _tick	db 0
 163  0001              #pragma debug variable 7 1 _tick "tick"
 163  0001              
 163  0000              @HCCINIT .section 'data'
 162  0000              #line 162 "C:\Users\Tech\Desktop\GasDetector\Main/Main.h"
 162  0000              public _Suply
 162  0001              @HCCINIT0 .section 'data'
 162  0001  0002[       _Suply	db 2 dup(0)
            00
            ]
 162  0003              #pragma debug variable 12 1 _Suply "Suply"
 162  0003              
 162  0000              @HCCINIT .section 'data'
 152  0000              #line 152 "C:\Users\Tech\Desktop\GasDetector\Main/Main.h"
 152  0000              public _Mode
 152  0003              @HCCINIT0 .section 'data'
 152  0003  0002[       _Mode	db 2 dup(0)
            00
            ]
 152  0005              #pragma debug variable 12 1 _Mode "Mode"
 152  0005              
 152  0000              @HCCINIT .section 'data'
 152  0000              public _pushButtonCunter
 152  0000              @HCCINIT	.section 'data'
 141  0000              #line 141 "C:\Users\Tech\Desktop\GasDetector\Main/Main.h"
 141  0000              @HCCINIT .section 'data'
 141  0000              _pushButtonCunter label byte
 141  0000              #pragma debug variable 12 1 _pushButtonCunter "pushButtonCunter"
 141  0000              	db 0
 141  0000              @ROMDATA_BASE .section inpage 'code'
 141  0000              	db 0
 141  0001              @HCCINIT .section 'data'
 141  0001              	db 0
 141  0001              @ROMDATA_BASE .section inpage 'code'
 141  0001              	db 0
 141  0002              @HCCINIT .section 'data'
 141  0002              public _pushButtonState
 140  0002              #line 140 "C:\Users\Tech\Desktop\GasDetector\Main/Main.h"
 140  0000              @BITDATASEC .section 'data'
"File: Main/Main.h   Assembler  Version HGASM0202      Page 21

 140  0000  00          _pushButtonState	dbit 0
 140  0001              #pragma debug variable 2 1 _pushButtonState "pushButtonState"
 140  0001              public _displayClock
 128  0001              #line 128 "C:\Users\Tech\Desktop\GasDetector\Main/Main.h"
 128  0002              @HCCINIT .section 'data'
 128  0002              _displayClock label byte
 128  0002              #pragma debug variable 7 1 _displayClock "displayClock"
 128  0002              	db 0
 128  0001              @ROMDATA_BASE .section inpage 'code'
 128  0001              	db 0
 128  0003              @HCCINIT .section 'data'
 128  0003              public _AVDD
 127  0003              #line 127 "C:\Users\Tech\Desktop\GasDetector\Main/Main.h"
 127  0003              @HCCINIT .section 'data'
 127  0003              _AVDD label byte
 127  0003              #pragma debug variable 28 1 _AVDD "AVDD"
 127  0003              	db 0
 127  0002              @ROMDATA_BASE .section inpage 'code'
 127  0002              	db 0
 127  0004              @HCCINIT .section 'data'
 127  0004              	db 0
 127  0002              @ROMDATA_BASE .section inpage 'code'
 127  0002              	db 0
 127  0005              @HCCINIT .section 'data'
 127  0005              	db 0
 127  0003              @ROMDATA_BASE .section inpage 'code'
 127  0003              	db 0
 127  0006              @HCCINIT .section 'data'
 127  0006              public _buffer
 126  0006              #line 126 "C:\Users\Tech\Desktop\GasDetector\Main/Main.h"
 126  0006              @HCCINIT .section 'data'
 126  0006              _buffer label byte
 126  0006              #pragma debug variable 10 1 _buffer "buffer"
 126  0006              	db 0
 126  0003              @ROMDATA_BASE .section inpage 'code'
 126  0003              	db 0
 126  0007              @HCCINIT .section 'data'
 126  0007              	db 0
 126  0004              @ROMDATA_BASE .section inpage 'code'
 126  0004              	db 0
 126  0008              @HCCINIT .section 'data'
 125  0008              #line 125 "C:\Users\Tech\Desktop\GasDetector\Main/Main.h"
 125  0008              public _Cunter
 125  0005              @HCCINIT0 .section 'data'
 125  0005  0006[       _Cunter	db 6 dup(0)
            00
            ]
 125  000B              #pragma debug struct_end
 125  000B              #pragma debug struct_end
 125  000B              #pragma debug variable 42 1 _Cunter "Cunter"
 125  000B              
 125  0008              @HCCINIT .section 'data'
 125  0008              public _bufferVdd
  95  0008              #line 95 "C:\Users\Tech\Desktop\GasDetector\Main/Main.h"
  95  0008              @HCCINIT .section 'data'
  95  0008              _bufferVdd label byte
  95  0008              #pragma debug variable 7 1 _bufferVdd "bufferVdd"
  95  0008              	db 10
  95  0004              @ROMDATA_BASE .section inpage 'code'
  95  0004              	db 10
"File: Main/Main.h   Assembler  Version HGASM0202      Page 22

  95  0009              @HCCINIT .section 'data'
  93  0009              #line 93 "C:\Users\Tech\Desktop\GasDetector\Main/Main.h"
  93  0009              public _Parametr
  93  000B              @HCCINIT0 .section 'data'
  93  000B  0002[       _Parametr	db 2 dup(0)
            00
            ]
  93  000D              #pragma debug union_end
  93  000D              #pragma debug union_end
  93  000D              #pragma debug variable 43 1 _Parametr "Parametr"
  93  000D              
  93  0009              @HCCINIT .section 'data'
  93  0009              public _adc_value_2
  82  0009              #line 82 "C:\Users\Tech\Desktop\GasDetector\Main/Main.h"
  82  0009              @HCCINIT .section 'data'
  82  0009              _adc_value_2 label byte
  82  0009              #pragma debug variable 11 1 _adc_value_2 "adc_value_2"
  82  0009              	db 0
  82  0005              @ROMDATA_BASE .section inpage 'code'
  82  0005              	db 0
  82  000A              @HCCINIT .section 'data'
  82  000A              	db 0
  82  0005              @ROMDATA_BASE .section inpage 'code'
  82  0005              	db 0
  82  000B              @HCCINIT .section 'data'
  82  000B              public _adc_value_7
  81  000B              #line 81 "C:\Users\Tech\Desktop\GasDetector\Main/Main.h"
  81  000B              @HCCINIT .section 'data'
  81  000B              _adc_value_7 label byte
  81  000B              #pragma debug variable 11 1 _adc_value_7 "adc_value_7"
  81  000B              	db 0
  81  0006              @ROMDATA_BASE .section inpage 'code'
  81  0006              	db 0
  81  000C              @HCCINIT .section 'data'
  81  000C              	db 0
  81  0006              @ROMDATA_BASE .section inpage 'code'
  81  0006              	db 0
  81  000D              @HCCINIT .section 'data'
  81  000D              public _percent_of_battery
  80  000D              #line 80 "C:\Users\Tech\Desktop\GasDetector\Main/Main.h"
  80  000D              @HCCINIT .section 'data'
  80  000D              _percent_of_battery label byte
  80  000D              #pragma debug variable 11 1 _percent_of_battery "percent_of_battery"
  80  000D              	db 0
  80  0007              @ROMDATA_BASE .section inpage 'code'
  80  0007              	db 0
  80  000E              @HCCINIT .section 'data'
  80  000E              	db 0
  80  0007              @ROMDATA_BASE .section inpage 'code'
  80  0007              	db 0
  80  000F              @HCCINIT .section 'data'
  80  000F              public _voltage_battery
  79  000F              #line 79 "C:\Users\Tech\Desktop\GasDetector\Main/Main.h"
  79  000F              @HCCINIT .section 'data'
  79  000F              _voltage_battery label byte
  79  000F              #pragma debug variable 28 1 _voltage_battery "voltage_battery"
  79  000F              	db 0
  79  0008              @ROMDATA_BASE .section inpage 'code'
  79  0008              	db 0
  79  0010              @HCCINIT .section 'data'
"File: Main/Main.h   Assembler  Version HGASM0202      Page 23

  79  0010              	db 0
  79  0008              @ROMDATA_BASE .section inpage 'code'
  79  0008              	db 0
  79  0011              @HCCINIT .section 'data'
  79  0011              	db 0
  79  0009              @ROMDATA_BASE .section inpage 'code'
  79  0009              	db 0
  79  0012              @HCCINIT .section 'data'
  79  0012              public _vdd
  78  0012              #line 78 "C:\Users\Tech\Desktop\GasDetector\Main/Main.h"
  78  0012              @HCCINIT .section 'data'
  78  0012              _vdd label byte
  78  0012              #pragma debug variable 11 1 _vdd "vdd"
  78  0012              	db 0
  78  0009              @ROMDATA_BASE .section inpage 'code'
  78  0009              	db 0
  78  0013              @HCCINIT .section 'data'
  78  0013              	db 0
  78  000A              @ROMDATA_BASE .section inpage 'code'
  78  000A              	db 0
  78  0014              @HCCINIT .section 'data'
  78  0014              public _i
  70  0014              #line 70 "C:\Users\Tech\Desktop\GasDetector\Main/Main.h"
  70  0014              @HCCINIT .section 'data'
  70  0014              _i label byte
  70  0014              #pragma debug variable 12 1 _i "i"
  70  0014              	db 0
  70  000A              @ROMDATA_BASE .section inpage 'code'
  70  000A              	db 0
  70  0015              @HCCINIT .section 'data'
  70  0015              	db 0
  70  000B              @ROMDATA_BASE .section inpage 'code'
  70  000B              	db 0
  70  0016              @HCCINIT .section 'data'
  70  0016              public _digcunt
  69  0016              #line 69 "C:\Users\Tech\Desktop\GasDetector\Main/Main.h"
  69  0016              @HCCINIT .section 'data'
  69  0016              _digcunt label byte
  69  0016              #pragma debug variable 11 1 _digcunt "digcunt"
  69  0016              	db 0
  69  000B              @ROMDATA_BASE .section inpage 'code'
  69  000B              	db 0
  69  0017              @HCCINIT .section 'data'
  69  0017              	db 0
  69  000C              @ROMDATA_BASE .section inpage 'code'
  69  000C              	db 0
  69  0018              @HCCINIT .section 'data'
  69  0018              public _Numbr
  68  0018              #line 68 "C:\Users\Tech\Desktop\GasDetector\Main/Main.h"
  68  0018              @HCCINIT .section 'data'
  68  0018              _Numbr label byte
  68  0018              #pragma debug variable 11 1 _Numbr "Numbr"
  68  0018              	db 0
  68  000C              @ROMDATA_BASE .section inpage 'code'
  68  000C              	db 0
  68  0019              @HCCINIT .section 'data'
  68  0019              	db 0
  68  000D              @ROMDATA_BASE .section inpage 'code'
  68  000D              	db 0
  68  001A              @HCCINIT .section 'data'
"File: Main/Main.h   Assembler  Version HGASM0202      Page 24

  28  001A              #line 28 "C:\Users\Tech\Desktop\GasDetector\Main/Main.h"
  28  001A              public _falt_BAT
  28  0001              @BITDATASEC .section 'data'
  28  0000              _falt_BAT	dbit 0
  28  0001              #pragma debug variable 2 1 _falt_BAT "falt_BAT"
  28  0001              
  28  001A              @HCCINIT .section 'data'
  27  001A              #line 27 "C:\Users\Tech\Desktop\GasDetector\Main/Main.h"
  27  001A              public _fire_gas
  27  0001              @BITDATASEC .section 'data'
  27  0000              _fire_gas	dbit 0
  27  0001              #pragma debug variable 2 1 _fire_gas "fire_gas"
  27  0001              
  27  001A              @HCCINIT .section 'data'
  27  001A              public _PB
  26  001A              #line 26 "C:\Users\Tech\Desktop\GasDetector\Main/Main.h"
  26  0001              @BITDATASEC .section 'data'
  26  0000              _PB	dbit 0
  26  0001              #pragma debug variable 2 1 _PB "PB"
  25  0001              #line 25 "C:\Users\Tech\Desktop\GasDetector\Main/Main.h"
  25  0001              public _disply_bat
  25  0001              @BITDATASEC .section 'data'
  25  0000              _disply_bat	dbit 0
  25  0001              #pragma debug variable 2 1 _disply_bat "disply_bat"
  25  0001              
  25  001A              @HCCINIT .section 'data'
  23  001A              #line 23 "C:\Users\Tech\Desktop\GasDetector\Main/Main.h"
  23  001A              public _Digit
  23  000D              @HCCINIT0 .section 'data'
  23  000D  0008[       _Digit	db 8 dup(0)
            00
            ]
  23  0015              #pragma debug array 44 12 4 1
  23  0015              #pragma debug array 44 12 4 1
  23  0015              #pragma debug variable 44 1 _Digit "Digit"
  23  0015              
  23  001A              @HCCINIT .section 'data'
  23  001A              public _AN
  21  001A              #line 21 "C:\Users\Tech\Desktop\GasDetector\Main/Main.h"
  21  001A              @HCCINIT .section 'data'
  21  001A              _AN label byte
  21  001A              #pragma debug variable 8 1 _AN "AN"
  21  001A              	db 0
  21  000D              @ROMDATA_BASE .section inpage 'code'
  21  000D              	db 0
  21  001B              @HCCINIT .section 'data'
  21  001B              public _delay
  19  001B              #line 19 "C:\Users\Tech\Desktop\GasDetector\Main/Main.h"
  19  001B              @HCCINIT .section 'data'
  19  001B              _delay label byte
  19  001B              #pragma debug variable 14 1 _delay "delay"
  19  001B              	db 0
  19  000E              @ROMDATA_BASE .section inpage 'code'
  19  000E              	db 0
  19  001C              @HCCINIT .section 'data'
  19  001C              	db 0
  19  000E              @ROMDATA_BASE .section inpage 'code'
  19  000E              	db 0
  19  001D              @HCCINIT .section 'data'
  19  001D              	db 0
"File: Main/Main.h   Assembler  Version HGASM0202      Page 25

  19  000F              @ROMDATA_BASE .section inpage 'code'
  19  000F              	db 0
  19  001E              @HCCINIT .section 'data'
  19  001E              	db 0
  19  000F              @ROMDATA_BASE .section inpage 'code'
  19  000F              	db 0
  19  001F              @HCCINIT .section 'data'
  19  001F              public _disply
  17  001F              #line 17 "C:\Users\Tech\Desktop\GasDetector\Main/Main.h"
  17  001F              @HCCINIT .section 'data'
  17  001F              _disply label byte
  17  001F              #pragma debug variable 12 1 _disply "disply"
  17  001F              	db 0
  17  0010              @ROMDATA_BASE .section inpage 'code'
  17  0010              	db 0
  17  0020              @HCCINIT .section 'data'
  17  0020              	db 0
  17  0010              @ROMDATA_BASE .section inpage 'code'
  17  0010              	db 0
  17  0021              @HCCINIT .section 'data'
  17  0021              public _BAT
  15  0021              #line 15 "C:\Users\Tech\Desktop\GasDetector\Main/Main.h"
  15  0021              @HCCINIT .section 'data'
  15  0021              _BAT label byte
  15  0021              #pragma debug variable 8 1 _BAT "BAT"
  15  0021              	db 0
  15  0011              @ROMDATA_BASE .section inpage 'code'
  15  0011              	db 0
  15  0022              @HCCINIT .section 'data'
  15  0022              public _t1
  14  0022              #line 14 "C:\Users\Tech\Desktop\GasDetector\Main/Main.h"
  14  0022              @HCCINIT .section 'data'
  14  0022              _t1 label byte
  14  0022              #pragma debug variable 12 1 _t1 "t1"
  14  0022              	db 0
  14  0011              @ROMDATA_BASE .section inpage 'code'
  14  0011              	db 0
  14  0023              @HCCINIT .section 'data'
  14  0023              	db 0
  14  0012              @ROMDATA_BASE .section inpage 'code'
  14  0012              	db 0
  14  0024              @HCCINIT .section 'data'
  14  0024              public _adc
  13  0024              #line 13 "C:\Users\Tech\Desktop\GasDetector\Main/Main.h"
  13  0024              @HCCINIT .section 'data'
  13  0024              _adc label byte
  13  0024              #pragma debug variable 8 1 _adc "adc"
  13  0024              	db 0
  13  0012              @ROMDATA_BASE .section inpage 'code'
  13  0012              	db 0
  13  0025              @HCCINIT .section 'data'
  13  0025              public _adc_GAS
  11  0025              #line 11 "C:\Users\Tech\Desktop\GasDetector\Main/Main.h"
  11  0025              @HCCINIT .section 'data'
  11  0025              _adc_GAS label byte
  11  0025              #pragma debug variable 12 1 _adc_GAS "adc_GAS"
  11  0025              	db 0
  11  0013              @ROMDATA_BASE .section inpage 'code'
  11  0013              	db 0
  11  0026              @HCCINIT .section 'data'
"File: Main/Main.h   Assembler  Version HGASM0202      Page 26

  11  0026              	db 0
  11  0013              @ROMDATA_BASE .section inpage 'code'
  11  0013              	db 0
  11  0027              @HCCINIT .section 'data'
  11  0027              public _BAT_ADC_D
  10  0027              #line 10 "C:\Users\Tech\Desktop\GasDetector\Main/Main.h"
  10  0027              @HCCINIT .section 'data'
  10  0027              _BAT_ADC_D label byte
  10  0027              #pragma debug variable 12 1 _BAT_ADC_D "BAT_ADC_D"
  10  0027              	db 0
  10  0014              @ROMDATA_BASE .section inpage 'code'
  10  0014              	db 0
  10  0028              @HCCINIT .section 'data'
  10  0028              	db 0
  10  0014              @ROMDATA_BASE .section inpage 'code'
  10  0014              	db 0
  10  0029              @HCCINIT .section 'data'
  10  0029              public _BAT_ADC
   9  0029              #line 9 "C:\Users\Tech\Desktop\GasDetector\Main/Main.h"
   9  0029              @HCCINIT .section 'data'
   9  0029              _BAT_ADC label byte
   9  0029              #pragma debug variable 12 1 _BAT_ADC "BAT_ADC"
   9  0029              	db 0
   9  0015              @ROMDATA_BASE .section inpage 'code'
   9  0015              	db 0
   9  002A              @HCCINIT .section 'data'
   9  002A              	db 0
   9  0015              @ROMDATA_BASE .section inpage 'code'
   9  0015              	db 0
   9  002B              @HCCINIT .section 'data'
   9  002B              public _GAS_ERR
   8  002B              #line 8 "C:\Users\Tech\Desktop\GasDetector\Main/Main.h"
   8  002B              @HCCINIT .section 'data'
   8  002B              _GAS_ERR label byte
   8  002B              #pragma debug variable 12 1 _GAS_ERR "GAS_ERR"
   8  002B              	db 0
   8  0016              @ROMDATA_BASE .section inpage 'code'
   8  0016              	db 0
   8  002C              @HCCINIT .section 'data'
   8  002C              	db 0
   8  0016              @ROMDATA_BASE .section inpage 'code'
   8  0016              	db 0
   8  002D              @HCCINIT .section 'data'
   7  002D              #line 7 "C:\Users\Tech\Desktop\GasDetector\Main/Main.h"
   7  002D              public _SEG
   7  0015              @HCCINIT0 .section 'data'
   7  0015              _SEG	db 0
   7  0016              #pragma debug variable 8 1 _SEG "SEG"
   7  0016              
   7  002D              @HCCINIT .section 'data'
   7  002D              #pragma debug struct_end
   7  002D              #pragma debug struct_end
   7  002D              #pragma debug union_end
   7  002D              #pragma debug union_end
   7  002D              #pragma debug variable 46 1 ___lvrc "__lvrc" 1
   7  002D              #pragma debug struct_end
   7  002D              #pragma debug struct_end
   7  002D              #pragma debug union_end
   7  002D              #pragma debug union_end
   7  002D              #pragma debug variable 48 1 ___vbgc "__vbgc" 1
"File: Main/Main.h   Assembler  Version HGASM0202      Page 27

   7  002D              #pragma debug struct_end
   7  002D              #pragma debug struct_end
   7  002D              #pragma debug union_end
   7  002D              #pragma debug union_end
   7  002D              #pragma debug variable 50 1 ___scc "__scc" 1
   7  002D              #pragma debug struct_end
   7  002D              #pragma debug struct_end
   7  002D              #pragma debug union_end
   7  002D              #pragma debug union_end
   7  002D              #pragma debug variable 52 1 ___pa "__pa" 1
   7  002D              #pragma debug struct_end
   7  002D              #pragma debug struct_end
   7  002D              #pragma debug union_end
   7  002D              #pragma debug union_end
   7  002D              #pragma debug variable 54 1 ___pac "__pac" 1
   7  002D              #pragma debug struct_end
   7  002D              #pragma debug struct_end
   7  002D              #pragma debug union_end
   7  002D              #pragma debug union_end
   7  002D              #pragma debug variable 56 1 ___lvpuc "__lvpuc" 1
   7  002D              #pragma debug struct_end
   7  002D              #pragma debug struct_end
   7  002D              #pragma debug union_end
   7  002D              #pragma debug union_end
   7  002D              #pragma debug variable 58 1 ___wdtc "__wdtc" 1
   7  002D              #pragma debug struct_end
   7  002D              #pragma debug struct_end
   7  002D              #pragma debug union_end
   7  002D              #pragma debug union_end
   7  002D              #pragma debug variable 60 1 ___pb "__pb" 1
   7  002D              #pragma debug struct_end
   7  002D              #pragma debug struct_end
   7  002D              #pragma debug union_end
   7  002D              #pragma debug union_end
   7  002D              #pragma debug variable 62 1 ___pbc "__pbc" 1
   7  002D              #pragma debug struct_end
   7  002D              #pragma debug struct_end
   7  002D              #pragma debug union_end
   7  002D              #pragma debug union_end
   7  002D              #pragma debug variable 64 1 ___pbpu "__pbpu" 1
   7  002D              #pragma debug struct_end
   7  002D              #pragma debug struct_end
   7  002D              #pragma debug union_end
   7  002D              #pragma debug union_end
   7  002D              #pragma debug variable 66 1 ___pc "__pc" 1
   7  002D              #pragma debug struct_end
   7  002D              #pragma debug struct_end
   7  002D              #pragma debug union_end
   7  002D              #pragma debug union_end
   7  002D              #pragma debug variable 68 1 ___pcc "__pcc" 1
   7  002D              #pragma debug struct_end
   7  002D              #pragma debug struct_end
   7  002D              #pragma debug union_end
   7  002D              #pragma debug union_end
   7  002D              #pragma debug variable 70 1 ___pdc "__pdc" 1
   7  002D              #pragma debug struct_end
   7  002D              #pragma debug struct_end
   7  002D              #pragma debug union_end
   7  002D              #pragma debug union_end
   7  002D              #pragma debug variable 72 1 ___pscr "__pscr" 1
"File: Main/Main.h   Assembler  Version HGASM0202      Page 28

   7  002D              #pragma debug struct_end
   7  002D              #pragma debug struct_end
   7  002D              #pragma debug union_end
   7  002D              #pragma debug union_end
   7  002D              #pragma debug variable 74 1 ___tb0c "__tb0c" 1
   7  002D              #pragma debug struct_end
   7  002D              #pragma debug struct_end
   7  002D              #pragma debug union_end
   7  002D              #pragma debug union_end
   7  002D              #pragma debug variable 76 1 ___tb1c "__tb1c" 1
   7  002D              #pragma debug struct_end
   7  002D              #pragma debug struct_end
   7  002D              #pragma debug union_end
   7  002D              #pragma debug union_end
   7  002D              #pragma debug variable 78 1 ___intc1 "__intc1" 1
   7  002D              #pragma debug struct_end
   7  002D              #pragma debug struct_end
   7  002D              #pragma debug union_end
   7  002D              #pragma debug union_end
   7  002D              #pragma debug variable 80 1 ___pas0 "__pas0" 1
   7  002D              #pragma debug struct_end
   7  002D              #pragma debug struct_end
   7  002D              #pragma debug union_end
   7  002D              #pragma debug union_end
   7  002D              #pragma debug variable 82 1 ___pas1 "__pas1" 1
   7  002D              #pragma debug struct_end
   7  002D              #pragma debug struct_end
   7  002D              #pragma debug union_end
   7  002D              #pragma debug union_end
   7  002D              #pragma debug variable 84 1 ___pbs0 "__pbs0" 1
   7  002D              #pragma debug struct_end
   7  002D              #pragma debug struct_end
   7  002D              #pragma debug union_end
   7  002D              #pragma debug union_end
   7  002D              #pragma debug variable 86 1 ___pbs1 "__pbs1" 1
   7  002D              #pragma debug struct_end
   7  002D              #pragma debug struct_end
   7  002D              #pragma debug union_end
   7  002D              #pragma debug union_end
   7  002D              #pragma debug variable 88 1 ___pcs0 "__pcs0" 1
   7  002D              #pragma debug struct_end
   7  002D              #pragma debug struct_end
   7  002D              #pragma debug union_end
   7  002D              #pragma debug union_end
   7  002D              #pragma debug variable 90 1 ___pcs1 "__pcs1" 1
   7  002D              #pragma debug struct_end
   7  002D              #pragma debug struct_end
   7  002D              #pragma debug union_end
   7  002D              #pragma debug union_end
   7  002D              #pragma debug variable 92 1 ___pds0 "__pds0" 1
   7  002D              extern r1:byte
   7  002D              extern r2:byte

  27  002D              #line 27 "c:\users\tech\desktop\gasdetector\Main\Main.c"
  27  0000              @code .section at 0 'code'
  27  0000  2800     R  	jmp _main_startup1
  27  0001              
  27  0001              extern _S_ADC_Init:near
  27  0001              extern _DisplayLooding:near
  27  0001              extern _S_READ_ADC:near
"File: Main.c        Assembler  Version HGASM0202      Page 29

  27  0001              extern _Display_2:byte
  27  0001              extern _Display:near
  27  0001              extern _builtin_holtek_mant1:byte
  27  0001              extern _builtin_holtek_mant12p:byte
  27  0001              extern _builtin_holtek_signs:byte
  27  0001              extern _builtin_holtek_uitod:near
  27  0001              extern _builtin_holtek_mant2:byte
  27  0001              extern _builtin_holtek_dtmul:near
  27  0001              extern _builtin_holtek_dtdiv:near
  27  0001              extern _builtin_holtek_dtol:near
  27  0001              extern _builtin_holtek_itod:near
  27  0001              extern _builtin_holtek_dtsub:near
  27  0001              extern _builtin_holtek_divmodhi4:near
  27  0001              extern _builtin_holtek_udivmodhi4_2:byte
  27  0001              extern _builtin_holtek_udivmodhi4:near
  27  0001              
  27  0001              ; 
  27  0001              ; Generated by holtek-gcc v3.19, Sun Jun 09 17:33:00 2024
  27  0001              ; Rebuild 718
  27  0001              ; end of file


        0 Errors, 0