"File: Main.c        Assembler  Version HGASM0202      Page 1


   1  0000              ; Generated by holtek-gcc v3.19, Tue May 21 17:55:26 2024
   2  0000              ; 
   3  0000              ; Configuration:
   4  0000              ;       without long instruction
   5  0000              ;       Single ROM, Multi-RAM
   6  0000              ;       bits_per_rom_unit:16
   7  0000              ;       with mp1
   8  0000              ;       with tbhp, address(0x9)
   9  0000              ;          Use tabrd-const
  10  0000              ;       
  11  0000              ;       
  12  0000              ;       
  13  0000              ; use 'tabrdc' instead of 'tabrd'
  14  0000              ;       
  15  0000              
  16  0000              #pragma translator "holtek-gcc 4.6.4" "3.19" "build 20130711"
  17  0000              ; Rebuild 718
  18  0000              
  19  0000              ir equ [2]
  20  0000              mp equ [3]
  21  0000              sbp equ [1]
  22  0000              acc equ [5]
  23  0000              bp equ [4]
  24  0000              tblp equ [7]
  25  0000              tbhp equ [9]
  26  0000              status equ [10]
  27  0000              c equ [10].0
  28  0000              ac equ [10].1
  29  0000              z equ [10].2
  30  0000              ov equ [10].3
  31  0000              intc equ [11]
  32  0000              
  33  0000              extern ra:byte
  34  0000              extern rb:byte
  35  0000              extern rc:byte
  36  0000              extern rd:byte
  37  0000              extern re:byte
  38  0000              extern rf:byte
  39  0000              extern rg:byte
  40  0000              extern rh:byte
  41  0000              extern _Crom2Prom:near
  42  0000              extern _Crom2PromNext:near
  43  0000              
  44  0000              RAMBANK 0 @HCCINIT, @HCCINIT0
  45  0000              
  46  0000              RAMBANK 0 @BITDATASEC, @BITDATASEC1
  47  0000              @HCCINIT	.section 'data'
  48  0000              @HCCINIT0	.section 'data'
  49  0000              @BITDATASEC	 .section 'data'
  50  0000              @BITDATASEC1	 .section 'data'
  51  0000              
  52  0000              #pragma debug scope 1 1
  53  0000              	extern __DELAY3:near
  54  0000              	extern __DELAYX3:near
  55  0000              	extern __DELAYX6:near
  56  0000              	extern __DELAYY5:near
  57  0000              	extern __DELAYY3:near
  58  0000              	extern _builtin_holtek_delay_2:byte
  59  0000              ___scc equ [16]
"File: Main.ASM      Assembler  Version HGASM0202      Page 2

  60  0000              ___wdtc equ [25]
  61  0000              ___lvrc equ [12]
  62  0000              ___lvpuc equ [24]
  63  0000              ___pac equ [21]
  64  0000              ___pbc equ [28]
  65  0000              ___pcc equ [32]
  66  0000              ___pdc equ [36]
  67  0000              ___pas1 equ [86]
  68  0000              ___pas0 equ [85]
  69  0000              ___pbs1 equ [88]
  70  0000              ___pbs0 equ [87]
  71  0000              ___pcs1 equ [90]
  72  0000              ___pcs0 equ [89]
  73  0000              ___pds0 equ [91]
  74  0000              ___pbpu equ [29]
  75  0000              ___tb0c equ [76]
  76  0000              ___pscr equ [75]
  77  0000              ___intc1 equ [80]
  78  0000              ___tb1c equ [77]
  79  0000              ___pa equ [20]
  80  0000              ___pc equ [31]
  81  0000              ___pb equ [27]
  82  0000              public _main
  83  0000              #pragma debug scope 2 1

   5  0000              #line 5 "c:\users\tech\desktop\gasdetector\Main\Main.c"
   5  0000              IFDEF WITH_DEFAULT_STARTUP
   5  0000              extern _main_initial0:near
   5  0000              extern _main_startup:near
   5  0000              ENDIF
   5  0000              
   5  0000              ROMBANK 0 @start
   5  0000              @start .section com_l 'code'
   5  0000              _main_startup1:
   5  0000              @start .section com_e 'code'
   5  0000  2800     R  	jmp _main
   5  0001              
   5  0000              _main .section 'code'
   5  0000              _main proc
   5  0000  0002[           local _main_2 db 2 dup(?)
            00
            ]
   5  0002              #pragma debug variable 12 2 _main_2+0 "Mode"
  22  0002              #line 22 "c:\users\tech\desktop\gasdetector\Main\Main.c"
  22  0000  3690        	clr [16].5
  23  0001              #line 23 "c:\users\tech\desktop\gasdetector\Main\Main.c"
  23  0001  3710        	clr [16].6
  24  0002              #line 24 "c:\users\tech\desktop\gasdetector\Main\Main.c"
  24  0002  3790        	clr [16].7
  25  0003              #line 25 "c:\users\tech\desktop\gasdetector\Main\Main.c"
  25  0003  3510        	clr [16].2
  26  0004              #line 26 "c:\users\tech\desktop\gasdetector\Main\Main.c"
  26  0004  3010        	set [16].0
  28  0005              #line 28 "c:\users\tech\desktop\gasdetector\Main\Main.c"
  28  0005  0FAF        	mov a,175
  28  0006  0099        	mov [25],a
  30  0007              #line 30 "c:\users\tech\desktop\gasdetector\Main\Main.c"
  30  0007  0FA5        	mov a,165
  30  0008  008C        	mov [12],a
  34  0009              #line 34 "c:\users\tech\desktop\gasdetector\Main\Main.c"
"File: Main.c        Assembler  Version HGASM0202      Page 3

  34  0009  3418        	clr [24].0
  36  000A              #line 36 "c:\users\tech\desktop\gasdetector\Main\Main.c"
  36  000A  0F69        	mov a,105
  36  000B  0695        	andm a,[21]
  37  000C              #line 37 "c:\users\tech\desktop\gasdetector\Main\Main.c"
  37  000C  0F06        	mov a,6
  37  000D  0595        	orm a,[21]
  39  000E              #line 39 "c:\users\tech\desktop\gasdetector\Main\Main.c"
  39  000E  071C        	mov a,[28]
  39  000F  0080     E  	mov ra,a
  39  0010  1F1C        	clr [28]
  40  0011              #line 40 "c:\users\tech\desktop\gasdetector\Main\Main.c"
  40  0011  0F0B        	mov a,11
  40  0012  059C        	orm a,[28]
  42  0013              #line 42 "c:\users\tech\desktop\gasdetector\Main\Main.c"
  42  0013  0720        	mov a,[32]
  42  0014  0080     E  	mov ra,a
  42  0015  1F20        	clr [32]
  45  0016              #line 45 "c:\users\tech\desktop\gasdetector\Main\Main.c"
  45  0016  0724        	mov a,[36]
  45  0017  0080     E  	mov ra,a
  45  0018  1F24        	clr [36]
  48  0019              #line 48 "c:\users\tech\desktop\gasdetector\Main\Main.c"
  48  0019  1F56        	clr [86]
  49  001A              #line 49 "c:\users\tech\desktop\gasdetector\Main\Main.c"
  49  001A  0F08        	mov a,8
  49  001B  00D5        	mov [85],a
  51  001C              #line 51 "c:\users\tech\desktop\gasdetector\Main\Main.c"
  51  001C  1F58        	clr [88]
  52  001D              #line 52 "c:\users\tech\desktop\gasdetector\Main\Main.c"
  52  001D  0F0A        	mov a,10
  52  001E  00D7        	mov [87],a
  54  001F              #line 54 "c:\users\tech\desktop\gasdetector\Main\Main.c"
  54  001F  1F5A        	clr [90]
  55  0020              #line 55 "c:\users\tech\desktop\gasdetector\Main\Main.c"
  55  0020  1F59        	clr [89]
  57  0021              #line 57 "c:\users\tech\desktop\gasdetector\Main\Main.c"
  57  0021  1F5B        	clr [91]
  59  0022              #line 59 "c:\users\tech\desktop\gasdetector\Main\Main.c"
  59  0022  319D        	set [29].3
  63  0023              #line 63 "c:\users\tech\desktop\gasdetector\Main\Main.c"
  63  0023  33CC        	set [76].7
  65  0024              #line 65 "c:\users\tech\desktop\gasdetector\Main\Main.c"
  65  0024  304B        	set [75].0
  66  0025              #line 66 "c:\users\tech\desktop\gasdetector\Main\Main.c"
  66  0025  30CB        	set [75].1
  68  0026              #line 68 "c:\users\tech\desktop\gasdetector\Main\Main.c"
  68  0026  304C        	set [76].0
  69  0027              #line 69 "c:\users\tech\desktop\gasdetector\Main\Main.c"
  69  0027  34CC        	clr [76].1
  70  0028              #line 70 "c:\users\tech\desktop\gasdetector\Main\Main.c"
  70  0028  354C        	clr [76].2
  72  0029              #line 72 "c:\users\tech\desktop\gasdetector\Main\Main.c"
  72  0029  3150        	set [80].2
  74  002A              #line 74 "c:\users\tech\desktop\gasdetector\Main\Main.c"
  74  002A  33CD        	set [77].7
  76  002B              #line 76 "c:\users\tech\desktop\gasdetector\Main\Main.c"
  76  002B  304D        	set [77].0
  77  002C              #line 77 "c:\users\tech\desktop\gasdetector\Main\Main.c"
  77  002C  30CD        	set [77].1
"File: Main.c        Assembler  Version HGASM0202      Page 4

  78  002D              #line 78 "c:\users\tech\desktop\gasdetector\Main\Main.c"
  78  002D  314D        	set [77].2
  80  002E              #line 80 "c:\users\tech\desktop\gasdetector\Main\Main.c"
  80  002E  31D0        	set [80].3
 120  002F              #line 120 "c:\users\tech\desktop\gasdetector\Main\Main.c"
 120  002F  3614        	clr [20].4
 121  0030              #line 121 "c:\users\tech\desktop\gasdetector\Main\Main.c"
 121  0030  341F        	clr [31].0
 122  0031              #line 122 "c:\users\tech\desktop\gasdetector\Main\Main.c"
 122  0031  349F        	clr [31].1
 123  0032              #line 123 "c:\users\tech\desktop\gasdetector\Main\Main.c"
 123  0032  351F        	clr [31].2
 124  0033              #line 124 "c:\users\tech\desktop\gasdetector\Main\Main.c"
 124  0033  311B        	set [27].2
 125  0034              #line 125 "c:\users\tech\desktop\gasdetector\Main\Main.c"
 125  0034  2000     E  	call _S_ADC_Init
 125  0035              _L6:
 127  0035              #line 127 "c:\users\tech\desktop\gasdetector\Main\Main.c"
 127  0035  0700     R  	mov a,_delay[0]
 127  0036  0080     E  	mov rd,a
 127  0037  0700     R  	mov a,_delay[1]
 127  0038  0080     E  	mov re,a
 127  0039  0700     R  	mov a,_delay[2]
 127  003A  0080     E  	mov rf,a
 127  003B  0700     R  	mov a,_delay[3]
 127  003C  0080     E  	mov rg,a
 127  003D  0F9F        	mov a,159
 127  003E  0200     E  	sub a,rd
 127  003F  0F86        	mov a,134
 127  0040  1200     E  	sbc a,re
 127  0041  0F01        	mov a,1
 127  0042  1200     E  	sbc a,rf
 127  0043  0F00        	mov a,0
 127  0044  1200     E  	sbc a,rg
 127  0045  380A        	snz c
 127  0046  2800     R  	jmp _L39
 129  0047              #line 129 "c:\users\tech\desktop\gasdetector\Main\Main.c"
 129  0047  0F01        	mov a,1
 129  0048  0300     E  	add a,rd
 129  0049  0080     R  	mov _delay[0],a
 129  004A  0F00        	mov a,0
 129  004B  1300     E  	adc a,re
 129  004C  0080     R  	mov _delay[1],a
 129  004D  0F00        	mov a,0
 129  004E  1300     E  	adc a,rf
 129  004F  0080     R  	mov _delay[2],a
 129  0050  0F00        	mov a,0
 129  0051  1300     E  	adc a,rg
 129  0052  0080     R  	mov _delay[3],a
 130  0053              #line 130 "c:\users\tech\desktop\gasdetector\Main\Main.c"
 130  0053  0F01        	mov a,1
 130  0054  0300     R  	add a,_i[0]
 130  0055  0080     E  	mov rb,a
 130  0056  0F00        	mov a,0
 130  0057  1300     R  	adc a,_i[1]
 130  0058  0080     E  	mov rc,a
 130  0059  0700     E  	mov a,rb
 130  005A  0080     R  	mov _i[0],a
 130  005B  0700     E  	mov a,rc
 130  005C  0080     R  	mov _i[1],a
"File: Main.c        Assembler  Version HGASM0202      Page 5

 131  005D              #line 131 "c:\users\tech\desktop\gasdetector\Main\Main.c"
 131  005D  0FE7        	mov a,231
 131  005E  0200     E  	sub a,rb
 131  005F  0F03        	mov a,3
 131  0060  1200     E  	sbc a,rc
 131  0061  380A        	snz c
 131  0062  2800     R  	jmp _L3
 133  0063              #line 133 "c:\users\tech\desktop\gasdetector\Main\Main.c"
 133  0063  301F        	set [31].0
 134  0064              #line 134 "c:\users\tech\desktop\gasdetector\Main\Main.c"
 134  0064  311F        	set [31].2
 135  0065              #line 135 "c:\users\tech\desktop\gasdetector\Main\Main.c"
 135  0065  309F        	set [31].1
 135  0066  2800     R  	jmp _L4
 135  0067              _L3:
 139  0067              #line 139 "c:\users\tech\desktop\gasdetector\Main\Main.c"
 139  0067  341F        	clr [31].0
 140  0068              #line 140 "c:\users\tech\desktop\gasdetector\Main\Main.c"
 140  0068  351F        	clr [31].2
 141  0069              #line 141 "c:\users\tech\desktop\gasdetector\Main\Main.c"
 141  0069  349F        	clr [31].1
 143  006A              #line 143 "c:\users\tech\desktop\gasdetector\Main\Main.c"
 143  006A  0FD0        	mov a,208
 143  006B  0200     E  	sub a,rb
 143  006C  0F07        	mov a,7
 143  006D  1200     E  	sbc a,rc
 143  006E  3C0A        	sz c
 143  006F  2800     R  	jmp _L4
 146  0070              #line 146 "c:\users\tech\desktop\gasdetector\Main\Main.c"
 146  0070  1F00     R  	clr _i[0]
 146  0071  1F00     R  	clr _i[1]
 147  0072              #line 147 "c:\users\tech\desktop\gasdetector\Main\Main.c"
 147  0072  1480     R  	inc _digcunt[0]
 147  0073  3D0A        	sz z
 147  0074  1480     R  	inc _digcunt[1]
 147  0075              _L4:
 149  0075              #line 149 "c:\users\tech\desktop\gasdetector\Main\Main.c"
 149  0075  0700     R  	mov a,_digcunt[0]
 149  0076  0BFC        	add a,252
 149  0077  0080     E  	mov ra,a
 149  0078  0700     E  	mov a,ra
 149  0079  2000     E  	call _DisplayLooding
 150  007A              #line 150 "c:\users\tech\desktop\gasdetector\Main\Main.c"
 150  007A  0700     R  	mov a,_digcunt[0]
 150  007B  0BFD        	add a,253
 150  007C  0080     E  	mov ra,a
 150  007D  0700     E  	mov a,ra
 150  007E  2000     E  	call _DisplayLooding
 151  007F              #line 151 "c:\users\tech\desktop\gasdetector\Main\Main.c"
 151  007F  0700     R  	mov a,_digcunt[0]
 151  0080  0BFE        	add a,254
 151  0081  0080     E  	mov ra,a
 151  0082  0700     E  	mov a,ra
 151  0083  2000     E  	call _DisplayLooding
 152  0084              #line 152 "c:\users\tech\desktop\gasdetector\Main\Main.c"
 152  0084  1500     R  	deca _digcunt[0]
 152  0085  0080     E  	mov ra,a
 152  0086  0700     E  	mov a,ra
 152  0087  2000     E  	call _DisplayLooding
 153  0088              #line 153 "c:\users\tech\desktop\gasdetector\Main\Main.c"
"File: Main.c        Assembler  Version HGASM0202      Page 6

 153  0088  0700     R  	mov a,_digcunt[0]
 153  0089  2000     E  	call _DisplayLooding
 161  008A              #line 161 "c:\users\tech\desktop\gasdetector\Main\Main.c"
 161  008A  0F04        	mov a,4
 161  008B  0200     R  	sub a,_digcunt[0]
 161  008C  0F00        	mov a,0
 161  008D  1200     R  	sbc a,_digcunt[1]
 161  008E  1185        	swap acc
 161  008F  040A        	xor a,status
 161  0090  3985        	snz acc.3
 161  0091  2800     R  	jmp _L6
 161  0092  1F00     R  	clr _i[0]
 161  0093  1F00     R  	clr _i[1]
 161  0094  1F00     R  	clr _digcunt[0]
 161  0095  1F00     R  	clr _digcunt[1]
 161  0096  2800     R  	jmp _L6
 161  0097              _L39:
 166  0097              #line 166 "c:\users\tech\desktop\gasdetector\Main\Main.c"
 166  0097  1F00     R  	clr _delay[0]
 166  0098  1F00     R  	clr _delay[1]
 166  0099  1F00     R  	clr _delay[2]
 166  009A  1F00     R  	clr _delay[3]
 168  009B              #line 168 "c:\users\tech\desktop\gasdetector\Main\Main.c"
 168  009B  301F        	set [31].0
 168  009C              _L36:
 169  009C              #line 169 "c:\users\tech\desktop\gasdetector\Main\Main.c"
 169  009C  1F00     R  	clr _main_2[0]
 169  009D  1F00     R  	clr _main_2[1]
 169  009E              _L8:
 171  009E              #line 171 "c:\users\tech\desktop\gasdetector\Main\Main.c"
 171  009E  1F00     R  	clr _i[0]
 171  009F  1F00     R  	clr _i[1]
 181  00A0              #line 181 "c:\users\tech\desktop\gasdetector\Main\Main.c"
 181  00A0  0F00        	mov a,0
 181  00A1  2000     E  	call _S_READ_ADC
 181  00A2  0700     E  	mov a,ra
 181  00A3  0080     R  	mov _Parametr[0],a
 181  00A4  0700     E  	mov a,rb
 181  00A5  0080     R  	mov _Parametr[1],a
 183  00A6              #line 183 "c:\users\tech\desktop\gasdetector\Main\Main.c"
 183  00A6  0FFA        	mov a,250
 183  00A7  0200     E  	sub a,ra
 183  00A8  0F00        	mov a,0
 183  00A9  1200     E  	sbc a,rb
 183  00AA  380A        	snz c
 183  00AB  2800     R  	jmp _L26
 190  00AC              #line 190 "c:\users\tech\desktop\gasdetector\Main\Main.c"
 190  00AC  3D9B        	sz [27].3
 190  00AD  2800     R  	jmp _L11
 192  00AE              #line 192 "c:\users\tech\desktop\gasdetector\Main\Main.c"
 192  00AE  3000     R  	set _pushButtonState
 193  00AF              #line 193 "c:\users\tech\desktop\gasdetector\Main\Main.c"
 193  00AF  0F01        	mov a,1
 193  00B0  0380     R  	addm a,_pushButtonCunter[0]
 193  00B1  0F00        	mov a,0
 193  00B2  1380     R  	adcm a,_pushButtonCunter[1]
 193  00B3  1380     R  	adcm a,_pushButtonCunter[2]
 193  00B4  1380     R  	adcm a,_pushButtonCunter[3]
 193  00B5  2800     R  	jmp _L10
 193  00B6              _L11:
"File: Main.c        Assembler  Version HGASM0202      Page 7

 199  00B6              #line 199 "c:\users\tech\desktop\gasdetector\Main\Main.c"
 199  00B6  3800     R  	snz _pushButtonState
 199  00B7  2800     R  	jmp _L10
 199  00B8  0700     R  	mov a,_pushButtonCunter[0]
 199  00B9  0080     E  	mov rd,a
 199  00BA  0700     R  	mov a,_pushButtonCunter[1]
 199  00BB  0080     E  	mov re,a
 199  00BC  0700     R  	mov a,_pushButtonCunter[2]
 199  00BD  0080     E  	mov rf,a
 199  00BE  0700     R  	mov a,_pushButtonCunter[3]
 199  00BF  0080     E  	mov rg,a
 199  00C0  0FF4        	mov a,244
 199  00C1  0200     E  	sub a,rd
 199  00C2  0F01        	mov a,1
 199  00C3  1200     E  	sbc a,re
 199  00C4  0F00        	mov a,0
 199  00C5  1200     E  	sbc a,rf
 199  00C6  0F00        	mov a,0
 199  00C7  1200     E  	sbc a,rg
 199  00C8  380A        	snz c
 199  00C9  2800     R  	jmp _L27
 203  00CA              #line 203 "c:\users\tech\desktop\gasdetector\Main\Main.c"
 203  00CA  0FF5        	mov a,245
 203  00CB  0380     E  	addm a,rd
 203  00CC  0FFF        	mov a,255
 203  00CD  1380     E  	adcm a,re
 203  00CE  1380     E  	adcm a,rf
 203  00CF  1380     E  	adcm a,rg
 203  00D0  0FE8        	mov a,232
 203  00D1  0200     E  	sub a,rd
 203  00D2  0F01        	mov a,1
 203  00D3  1200     E  	sbc a,re
 203  00D4  0F00        	mov a,0
 203  00D5  1200     E  	sbc a,rf
 203  00D6  0F00        	mov a,0
 203  00D7  1200     E  	sbc a,rg
 203  00D8  380A        	snz c
 203  00D9  2800     R  	jmp _L10
 205  00DA              #line 205 "c:\users\tech\desktop\gasdetector\Main\Main.c"
 205  00DA  0F01        	mov a,1
 205  00DB  0080     R  	mov _main_2[0],a
 205  00DC  1F00     R  	clr _main_2[1]
 205  00DD  2800     R  	jmp _L10
 205  00DE              _L26:
 185  00DE              #line 185 "c:\users\tech\desktop\gasdetector\Main\Main.c"
 185  00DE  0F03        	mov a,3
 185  00DF  0080     R  	mov _main_2[0],a
 185  00E0  1F00     R  	clr _main_2[1]
 185  00E1  2800     R  	jmp _L10
 185  00E2              _L27:
 201  00E2              #line 201 "c:\users\tech\desktop\gasdetector\Main\Main.c"
 201  00E2  0F02        	mov a,2
 201  00E3  0080     R  	mov _main_2[0],a
 201  00E4  1F00     R  	clr _main_2[1]
 201  00E5              _L10:
 217  00E5              #line 217 "c:\users\tech\desktop\gasdetector\Main\Main.c"
 217  00E5  0F03        	mov a,3
 217  00E6  0080     R  	mov _Parametr[0],a
 217  00E7  1F00     R  	clr _Parametr[1]
 218  00E8              #line 218 "c:\users\tech\desktop\gasdetector\Main\Main.c"
"File: Main.c        Assembler  Version HGASM0202      Page 8

 218  00E8  0700     R  	mov a,_main_2[0]
 218  00E9  0500     R  	or a,_main_2[1]
 218  00EA  3D0A        	sz z
 218  00EB  2800     R  	jmp _L12
 223  00EC              #line 223 "c:\users\tech\desktop\gasdetector\Main\Main.c"
 223  00EC  0700     R  	mov a,_main_2[0]
 223  00ED  0C01        	xor a,1
 223  00EE  0500     R  	or a,_main_2[1]
 223  00EF  3D0A        	sz z
 223  00F0  2800     R  	jmp _L13
 223  00F1  0700     R  	mov a,_main_2[0]
 223  00F2  0C02        	xor a,2
 223  00F3  0500     R  	or a,_main_2[1]
 223  00F4  3D0A        	sz z
 223  00F5  2800     R  	jmp _L14
 223  00F6  0700     R  	mov a,_main_2[0]
 223  00F7  0C03        	xor a,3
 223  00F8  0500     R  	or a,_main_2[1]
 223  00F9  3D0A        	sz z
 223  00FA  2800     R  	jmp _L17
 223  00FB  0700     R  	mov a,_main_2[0]
 223  00FC  0C04        	xor a,4
 223  00FD  0500     R  	or a,_main_2[1]
 223  00FE  390A        	snz z
 223  00FF  2800     R  	jmp _L8
 223  0100  2800     R  	jmp _L12
 223  0101              _L14:
 235  0101              #line 235 "c:\users\tech\desktop\gasdetector\Main\Main.c"
 235  0101  1480     R  	inc _Cunter[0]
 235  0102  3D0A        	sz z
 235  0103  1480     R  	inc _Cunter[1]
 236  0104              #line 236 "c:\users\tech\desktop\gasdetector\Main\Main.c"
 236  0104  3214        	set [20].4
 237  0105              #line 237 "c:\users\tech\desktop\gasdetector\Main\Main.c"
 237  0105  311B        	set [27].2
 238  0106              #line 238 "c:\users\tech\desktop\gasdetector\Main\Main.c"
 238  0106  309F        	set [31].1
 239  0107              #line 239 "c:\users\tech\desktop\gasdetector\Main\Main.c"
 239  0107  301F        	set [31].0
 240  0108              #line 240 "c:\users\tech\desktop\gasdetector\Main\Main.c"
 240  0108  311F        	set [31].2
 241  0109              #line 241 "c:\users\tech\desktop\gasdetector\Main\Main.c"
 241  0109  0F30        	mov a,48
 241  010A  0080     E  	mov _Display_2[2],a
 241  010B  0FB8        	mov a,-72
 241  010C  0080     E  	mov _Display_2[0],a
 241  010D  0F22        	mov a,34
 241  010E  0080     E  	mov _Display_2[1],a
 241  010F  2000     E  	call _Display
 242  0110              #line 242 "c:\users\tech\desktop\gasdetector\Main\Main.c"
 242  0110  3400     R  	clr _pushButtonState
 243  0111              #line 243 "c:\users\tech\desktop\gasdetector\Main\Main.c"
 243  0111  1F00     R  	clr _pushButtonCunter[0]
 243  0112  1F00     R  	clr _pushButtonCunter[1]
 243  0113  1F00     R  	clr _pushButtonCunter[2]
 243  0114  1F00     R  	clr _pushButtonCunter[3]
 244  0115              #line 244 "c:\users\tech\desktop\gasdetector\Main\Main.c"
 244  0115  0FE8        	mov a,232
 244  0116  0200     R  	sub a,_Cunter[0]
 244  0117  0F03        	mov a,3
"File: Main.c        Assembler  Version HGASM0202      Page 9

 244  0118  1200     R  	sbc a,_Cunter[1]
 244  0119  3C0A        	sz c
 244  011A  2800     R  	jmp _L8
 246  011B              #line 246 "c:\users\tech\desktop\gasdetector\Main\Main.c"
 246  011B  1F00     R  	clr _Cunter[0]
 246  011C  1F00     R  	clr _Cunter[1]
 246  011D  2800     R  	jmp _L36
 246  011E              _L13:
 253  011E              #line 253 "c:\users\tech\desktop\gasdetector\Main\Main.c"
 253  011E  1480     R  	inc _Cunter[4]
 253  011F  3D0A        	sz z
 253  0120  1480     R  	inc _Cunter[5]
 254  0121              #line 254 "c:\users\tech\desktop\gasdetector\Main\Main.c"
 254  0121  3614        	clr [20].4
 255  0122              #line 255 "c:\users\tech\desktop\gasdetector\Main\Main.c"
 255  0122  349F        	clr [31].1
 256  0123              #line 256 "c:\users\tech\desktop\gasdetector\Main\Main.c"
 256  0123  351F        	clr [31].2
 257  0124              #line 257 "c:\users\tech\desktop\gasdetector\Main\Main.c"
 257  0124  301F        	set [31].0
 258  0125              #line 258 "c:\users\tech\desktop\gasdetector\Main\Main.c"
 258  0125  0F01        	mov a,1
 258  0126  2000     E  	call _S_READ_ADC
 258  0127  0700     E  	mov a,ra
 258  0128  0080     R  	mov _Parametr[0],a
 258  0129  0700     E  	mov a,rb
 258  012A  0080     R  	mov _Parametr[1],a
 259  012B              #line 259 "c:\users\tech\desktop\gasdetector\Main\Main.c"
 259  012B  0F62        	mov a,98
 259  012C  0080     E  	mov _Display_2[2],a
 259  012D  0700     E  	mov a,ra
 259  012E  0080     E  	mov _Display_2[0],a
 259  012F  0700     E  	mov a,rb
 259  0130  0080     E  	mov _Display_2[1],a
 259  0131  2000     E  	call _Display
 260  0132              #line 260 "c:\users\tech\desktop\gasdetector\Main\Main.c"
 260  0132  3400     R  	clr _pushButtonState
 261  0133              #line 261 "c:\users\tech\desktop\gasdetector\Main\Main.c"
 261  0133  1F00     R  	clr _pushButtonCunter[0]
 261  0134  1F00     R  	clr _pushButtonCunter[1]
 261  0135  1F00     R  	clr _pushButtonCunter[2]
 261  0136  1F00     R  	clr _pushButtonCunter[3]
 262  0137              #line 262 "c:\users\tech\desktop\gasdetector\Main\Main.c"
 262  0137  0FF4        	mov a,244
 262  0138  0200     R  	sub a,_Cunter[4]
 262  0139  0F01        	mov a,1
 262  013A  1200     R  	sbc a,_Cunter[5]
 262  013B  3C0A        	sz c
 262  013C  2800     R  	jmp _L8
 265  013D              #line 265 "c:\users\tech\desktop\gasdetector\Main\Main.c"
 265  013D  1F00     R  	clr _Cunter[4]
 265  013E  1F00     R  	clr _Cunter[5]
 265  013F  2800     R  	jmp _L36
 265  0140              _L17:
 275  0140              #line 275 "c:\users\tech\desktop\gasdetector\Main\Main.c"
 275  0140  3214        	set [20].4
 276  0141              #line 276 "c:\users\tech\desktop\gasdetector\Main\Main.c"
 276  0141  309F        	set [31].1
 277  0142              #line 277 "c:\users\tech\desktop\gasdetector\Main\Main.c"
 277  0142  311B        	set [27].2
"File: Main.c        Assembler  Version HGASM0202      Page 10

 278  0143              #line 278 "c:\users\tech\desktop\gasdetector\Main\Main.c"
 278  0143  0F6F        	mov a,111
 278  0144  0080     E  	mov _Display_2[2],a
 278  0145  0FFA        	mov a,-6
 278  0146  0080     E  	mov _Display_2[0],a
 278  0147  1F00     E  	clr _Display_2[1]
 278  0148  2000     E  	call _Display
 279  0149              #line 279 "c:\users\tech\desktop\gasdetector\Main\Main.c"
 279  0149  3D9B        	sz [27].3
 279  014A  2800     R  	jmp _L17
 281  014B              #line 281 "c:\users\tech\desktop\gasdetector\Main\Main.c"
 281  014B  3614        	clr [20].4
 282  014C              #line 282 "c:\users\tech\desktop\gasdetector\Main\Main.c"
 282  014C  349F        	clr [31].1
 283  014D              #line 283 "c:\users\tech\desktop\gasdetector\Main\Main.c"
 283  014D  3400     R  	clr _pushButtonState
 284  014E              #line 284 "c:\users\tech\desktop\gasdetector\Main\Main.c"
 284  014E  1F00     R  	clr _pushButtonCunter[0]
 284  014F  1F00     R  	clr _pushButtonCunter[1]
 284  0150  1F00     R  	clr _pushButtonCunter[2]
 284  0151  1F00     R  	clr _pushButtonCunter[3]
 284  0152  2800     R  	jmp _L36
 284  0153              _L12:
 295  0153              #line 295 "c:\users\tech\desktop\gasdetector\Main\Main.c"
 295  0153  0700     R  	mov a,_Cunter[2]
 295  0154  0080     E  	mov rd,a
 295  0155  0700     R  	mov a,_Cunter[3]
 295  0156  0080     E  	mov re,a
 295  0157  0F01        	mov a,1
 295  0158  0300     E  	add a,rd
 295  0159  0080     E  	mov rb,a
 295  015A  0F00        	mov a,0
 295  015B  1300     E  	adc a,re
 295  015C  0080     E  	mov rc,a
 295  015D  0700     E  	mov a,rb
 295  015E  0080     R  	mov _Cunter[2],a
 295  015F  0700     E  	mov a,rc
 295  0160  0080     R  	mov _Cunter[3],a
 296  0161              #line 296 "c:\users\tech\desktop\gasdetector\Main\Main.c"
 296  0161  0F1D        	mov a,29
 296  0162  0200     E  	sub a,rb
 296  0163  0F00        	mov a,0
 296  0164  1200     E  	sbc a,rc
 296  0165  380A        	snz c
 296  0166  2800     R  	jmp _L18
 298  0167              #line 298 "c:\users\tech\desktop\gasdetector\Main\Main.c"
 298  0167  3214        	set [20].4
 298  0168  2800     R  	jmp _L19
 298  0169              _L18:
 300  0169              #line 300 "c:\users\tech\desktop\gasdetector\Main\Main.c"
 300  0169  0FE2        	mov a,226
 300  016A  0300     E  	add a,rd
 300  016B  0080     E  	mov rf,a
 300  016C  0FFF        	mov a,255
 300  016D  1300     E  	adc a,re
 300  016E  0080     E  	mov rg,a
 300  016F  0F12        	mov a,18
 300  0170  0200     E  	sub a,rf
 300  0171  0F00        	mov a,0
 300  0172  1200     E  	sbc a,rg
"File: Main.c        Assembler  Version HGASM0202      Page 11

 300  0173  3C0A        	sz c
 300  0174  2800     R  	jmp _L22
 304  0175              #line 304 "c:\users\tech\desktop\gasdetector\Main\Main.c"
 304  0175  0FCE        	mov a,206
 304  0176  0380     E  	addm a,rd
 304  0177  0FFF        	mov a,255
 304  0178  1380     E  	adcm a,re
 304  0179  0F1C        	mov a,28
 304  017A  0200     E  	sub a,rd
 304  017B  0F00        	mov a,0
 304  017C  1200     E  	sbc a,re
 304  017D  380A        	snz c
 304  017E  2800     R  	jmp _L22
 306  017F              #line 306 "c:\users\tech\desktop\gasdetector\Main\Main.c"
 306  017F  3214        	set [20].4
 306  0180  2800     R  	jmp _L21
 306  0181              _L22:
 310  0181              #line 310 "c:\users\tech\desktop\gasdetector\Main\Main.c"
 310  0181  3614        	clr [20].4
 310  0182              _L21:
 312  0182              #line 312 "c:\users\tech\desktop\gasdetector\Main\Main.c"
 312  0182  0FE7        	mov a,231
 312  0183  0200     E  	sub a,rb
 312  0184  0F03        	mov a,3
 312  0185  1200     E  	sbc a,rc
 312  0186  380A        	snz c
 312  0187  2800     R  	jmp _L23
 312  0188              _L19:
 314  0188              #line 314 "c:\users\tech\desktop\gasdetector\Main\Main.c"
 314  0188  0F00        	mov a,0
 314  0189  2000     E  	call _S_READ_ADC
 314  018A  0700     E  	mov a,ra
 314  018B  0080     R  	mov _Parametr[0],a
 314  018C  0700     E  	mov a,rb
 314  018D  0080     R  	mov _Parametr[1],a
 315  018E              #line 315 "c:\users\tech\desktop\gasdetector\Main\Main.c"
 315  018E  0F6F        	mov a,111
 315  018F  0080     E  	mov _Display_2[2],a
 315  0190  0700     E  	mov a,ra
 315  0191  0080     E  	mov _Display_2[0],a
 315  0192  0700     E  	mov a,rb
 315  0193  0080     E  	mov _Display_2[1],a
 315  0194  2800     R  	jmp _L37
 315  0195              _L23:
 319  0195              #line 319 "c:\users\tech\desktop\gasdetector\Main\Main.c"
 319  0195  0F01        	mov a,1
 319  0196  2000     E  	call _S_READ_ADC
 320  0197              #line 320 "c:\users\tech\desktop\gasdetector\Main\Main.c"
 320  0197  0F9C        	mov a,-100
 320  0198  0080     R  	mov _Parametr[0],a
 320  0199  1F80     R  	set _Parametr[1]
 321  019A              #line 321 "c:\users\tech\desktop\gasdetector\Main\Main.c"
 321  019A  0F30        	mov a,48
 321  019B  0080     E  	mov _Display_2[2],a
 321  019C  0F9C        	mov a,-100
 321  019D  0080     E  	mov _Display_2[0],a
 321  019E  1F80     E  	set _Display_2[1]
 321  019F              _L37:
 321  019F  2000     E  	call _Display
 325  01A0              #line 325 "c:\users\tech\desktop\gasdetector\Main\Main.c"
"File: Main.c        Assembler  Version HGASM0202      Page 12

 325  01A0  0FD0        	mov a,208
 325  01A1  0200     R  	sub a,_Cunter[2]
 325  01A2  0F07        	mov a,7
 325  01A3  1200     R  	sbc a,_Cunter[3]
 325  01A4  3C0A        	sz c
 325  01A5  2800     R  	jmp _L25
 325  01A6  1F00     R  	clr _Cunter[2]
 325  01A7  1F00     R  	clr _Cunter[3]
 325  01A8              _L25:
 326  01A8              #line 326 "c:\users\tech\desktop\gasdetector\Main\Main.c"
 326  01A8  349F        	clr [31].1
 327  01A9              #line 327 "c:\users\tech\desktop\gasdetector\Main\Main.c"
 327  01A9  311F        	set [31].2
 328  01AA              #line 328 "c:\users\tech\desktop\gasdetector\Main\Main.c"
 328  01AA  341F        	clr [31].0
 332  01AB              #line 332 "c:\users\tech\desktop\gasdetector\Main\Main.c"
 332  01AB  0F04        	mov a,4
 332  01AC  0080     R  	mov _main_2[0],a
 332  01AD  1F00     R  	clr _main_2[1]
 332  01AE  2800     R  	jmp _L8
 332  01AF  2800     R  	jmp $
 332  01B0              _main endp
 332  01B0              
 332  01B0              @dummy endp
 332  01B0              
 332  01B0              #line 332 "c:\users\tech\desktop\gasdetector\Main\Main.c"
 332  01B0              #pragma debug scope 1 1
 332  01B0              public _pushButtonCunter
 332  0000              @HCCINIT	.section 'data'

 101  0000              #line 101 "C:\Users\Tech\Desktop\GasDetector\Main/Main.h"
 101  0000              @HCCINIT .section 'data'
 101  0000              _pushButtonCunter label byte
 101  0000              #pragma debug variable 14 1 _pushButtonCunter "pushButtonCunter"
 101  0000              	db 0
 101  0000              @ROMDATA_BASE .section inpage 'code'
 101  0000              	db 0
 101  0001              @HCCINIT .section 'data'
 101  0001              	db 0
 101  0001              @ROMDATA_BASE .section inpage 'code'
 101  0001              	db 0
 101  0002              @HCCINIT .section 'data'
 101  0002              	db 0
 101  0001              @ROMDATA_BASE .section inpage 'code'
 101  0001              	db 0
 101  0003              @HCCINIT .section 'data'
 101  0003              	db 0
 101  0002              @ROMDATA_BASE .section inpage 'code'
 101  0002              	db 0
 101  0004              @HCCINIT .section 'data'
 101  0004              public _pushButtonState
 100  0004              #line 100 "C:\Users\Tech\Desktop\GasDetector\Main/Main.h"
 100  0000              @BITDATASEC .section 'data'
 100  0000  00          _pushButtonState	dbit 0
 100  0001              #pragma debug variable 2 1 _pushButtonState "pushButtonState"
  87  0001              #line 87 "C:\Users\Tech\Desktop\GasDetector\Main/Main.h"
  87  0001              public _Cunter
  87  0000              @HCCINIT0 .section 'data'
  87  0000  0006[       _Cunter	db 6 dup(0)
            00
"File: Main/Main.h   Assembler  Version HGASM0202      Page 13

            ]
  87  0006              #pragma debug struct_end
  87  0006              #pragma debug struct_end
  87  0006              #pragma debug variable 42 1 _Cunter "Cunter"
  87  0006              
  87  0004              @HCCINIT .section 'data'
  71  0004              #line 71 "C:\Users\Tech\Desktop\GasDetector\Main/Main.h"
  71  0004              public _Parametr
  71  0006              @HCCINIT0 .section 'data'
  71  0006  0002[       _Parametr	db 2 dup(0)
            00
            ]
  71  0008              #pragma debug union_end
  71  0008              #pragma debug union_end
  71  0008              #pragma debug variable 43 1 _Parametr "Parametr"
  71  0008              
  71  0004              @HCCINIT .section 'data'
  71  0004              public _i
  63  0004              #line 63 "C:\Users\Tech\Desktop\GasDetector\Main/Main.h"
  63  0004              @HCCINIT .section 'data'
  63  0004              _i label byte
  63  0004              #pragma debug variable 12 1 _i "i"
  63  0004              	db 0
  63  0002              @ROMDATA_BASE .section inpage 'code'
  63  0002              	db 0
  63  0005              @HCCINIT .section 'data'
  63  0005              	db 0
  63  0003              @ROMDATA_BASE .section inpage 'code'
  63  0003              	db 0
  63  0006              @HCCINIT .section 'data'
  63  0006              public _digcunt
  62  0006              #line 62 "C:\Users\Tech\Desktop\GasDetector\Main/Main.h"
  62  0006              @HCCINIT .section 'data'
  62  0006              _digcunt label byte
  62  0006              #pragma debug variable 11 1 _digcunt "digcunt"
  62  0006              	db 0
  62  0003              @ROMDATA_BASE .section inpage 'code'
  62  0003              	db 0
  62  0007              @HCCINIT .section 'data'
  62  0007              	db 0
  62  0004              @ROMDATA_BASE .section inpage 'code'
  62  0004              	db 0
  62  0008              @HCCINIT .section 'data'
  62  0008              public _Numbr
  61  0008              #line 61 "C:\Users\Tech\Desktop\GasDetector\Main/Main.h"
  61  0008              @HCCINIT .section 'data'
  61  0008              _Numbr label byte
  61  0008              #pragma debug variable 11 1 _Numbr "Numbr"
  61  0008              	db 0
  61  0004              @ROMDATA_BASE .section inpage 'code'
  61  0004              	db 0
  61  0009              @HCCINIT .section 'data'
  61  0009              	db 0
  61  0005              @ROMDATA_BASE .section inpage 'code'
  61  0005              	db 0
  61  000A              @HCCINIT .section 'data'
  27  000A              #line 27 "C:\Users\Tech\Desktop\GasDetector\Main/Main.h"
  27  000A              public _falt_BAT
  27  0001              @BITDATASEC .section 'data'
  27  0000              _falt_BAT	dbit 0
"File: Main/Main.h   Assembler  Version HGASM0202      Page 14

  27  0001              #pragma debug variable 2 1 _falt_BAT "falt_BAT"
  27  0001              
  27  000A              @HCCINIT .section 'data'
  26  000A              #line 26 "C:\Users\Tech\Desktop\GasDetector\Main/Main.h"
  26  000A              public _fire_gas
  26  0001              @BITDATASEC .section 'data'
  26  0000              _fire_gas	dbit 0
  26  0001              #pragma debug variable 2 1 _fire_gas "fire_gas"
  26  0001              
  26  000A              @HCCINIT .section 'data'
  26  000A              public _PB
  25  000A              #line 25 "C:\Users\Tech\Desktop\GasDetector\Main/Main.h"
  25  0001              @BITDATASEC .section 'data'
  25  0000              _PB	dbit 0
  25  0001              #pragma debug variable 2 1 _PB "PB"
  24  0001              #line 24 "C:\Users\Tech\Desktop\GasDetector\Main/Main.h"
  24  0001              public _disply_bat
  24  0001              @BITDATASEC .section 'data'
  24  0000              _disply_bat	dbit 0
  24  0001              #pragma debug variable 2 1 _disply_bat "disply_bat"
  24  0001              
  24  000A              @HCCINIT .section 'data'
  22  000A              #line 22 "C:\Users\Tech\Desktop\GasDetector\Main/Main.h"
  22  000A              public _Digit
  22  0008              @HCCINIT0 .section 'data'
  22  0008  0008[       _Digit	db 8 dup(0)
            00
            ]
  22  0010              #pragma debug array 44 12 4 1
  22  0010              #pragma debug array 44 12 4 1
  22  0010              #pragma debug variable 44 1 _Digit "Digit"
  22  0010              
  22  000A              @HCCINIT .section 'data'
  22  000A              public _AN
  20  000A              #line 20 "C:\Users\Tech\Desktop\GasDetector\Main/Main.h"
  20  000A              @HCCINIT .section 'data'
  20  000A              _AN label byte
  20  000A              #pragma debug variable 8 1 _AN "AN"
  20  000A              	db 0
  20  0005              @ROMDATA_BASE .section inpage 'code'
  20  0005              	db 0
  20  000B              @HCCINIT .section 'data'
  20  000B              public _delay
  18  000B              #line 18 "C:\Users\Tech\Desktop\GasDetector\Main/Main.h"
  18  000B              @HCCINIT .section 'data'
  18  000B              _delay label byte
  18  000B              #pragma debug variable 14 1 _delay "delay"
  18  000B              	db 0
  18  0006              @ROMDATA_BASE .section inpage 'code'
  18  0006              	db 0
  18  000C              @HCCINIT .section 'data'
  18  000C              	db 0
  18  0006              @ROMDATA_BASE .section inpage 'code'
  18  0006              	db 0
  18  000D              @HCCINIT .section 'data'
  18  000D              	db 0
  18  0007              @ROMDATA_BASE .section inpage 'code'
  18  0007              	db 0
  18  000E              @HCCINIT .section 'data'
  18  000E              	db 0
"File: Main/Main.h   Assembler  Version HGASM0202      Page 15

  18  0007              @ROMDATA_BASE .section inpage 'code'
  18  0007              	db 0
  18  000F              @HCCINIT .section 'data'
  18  000F              public _disply
  16  000F              #line 16 "C:\Users\Tech\Desktop\GasDetector\Main/Main.h"
  16  000F              @HCCINIT .section 'data'
  16  000F              _disply label byte
  16  000F              #pragma debug variable 12 1 _disply "disply"
  16  000F              	db 0
  16  0008              @ROMDATA_BASE .section inpage 'code'
  16  0008              	db 0
  16  0010              @HCCINIT .section 'data'
  16  0010              	db 0
  16  0008              @ROMDATA_BASE .section inpage 'code'
  16  0008              	db 0
  16  0011              @HCCINIT .section 'data'
  16  0011              public _BAT
  14  0011              #line 14 "C:\Users\Tech\Desktop\GasDetector\Main/Main.h"
  14  0011              @HCCINIT .section 'data'
  14  0011              _BAT label byte
  14  0011              #pragma debug variable 8 1 _BAT "BAT"
  14  0011              	db 0
  14  0009              @ROMDATA_BASE .section inpage 'code'
  14  0009              	db 0
  14  0012              @HCCINIT .section 'data'
  14  0012              public _t1
  13  0012              #line 13 "C:\Users\Tech\Desktop\GasDetector\Main/Main.h"
  13  0012              @HCCINIT .section 'data'
  13  0012              _t1 label byte
  13  0012              #pragma debug variable 12 1 _t1 "t1"
  13  0012              	db 0
  13  0009              @ROMDATA_BASE .section inpage 'code'
  13  0009              	db 0
  13  0013              @HCCINIT .section 'data'
  13  0013              	db 0
  13  000A              @ROMDATA_BASE .section inpage 'code'
  13  000A              	db 0
  13  0014              @HCCINIT .section 'data'
  13  0014              public _adc
  12  0014              #line 12 "C:\Users\Tech\Desktop\GasDetector\Main/Main.h"
  12  0014              @HCCINIT .section 'data'
  12  0014              _adc label byte
  12  0014              #pragma debug variable 8 1 _adc "adc"
  12  0014              	db 0
  12  000A              @ROMDATA_BASE .section inpage 'code'
  12  000A              	db 0
  12  0015              @HCCINIT .section 'data'
  12  0015              public _adc_GAS
  10  0015              #line 10 "C:\Users\Tech\Desktop\GasDetector\Main/Main.h"
  10  0015              @HCCINIT .section 'data'
  10  0015              _adc_GAS label byte
  10  0015              #pragma debug variable 12 1 _adc_GAS "adc_GAS"
  10  0015              	db 0
  10  000B              @ROMDATA_BASE .section inpage 'code'
  10  000B              	db 0
  10  0016              @HCCINIT .section 'data'
  10  0016              	db 0
  10  000B              @ROMDATA_BASE .section inpage 'code'
  10  000B              	db 0
  10  0017              @HCCINIT .section 'data'
"File: Main/Main.h   Assembler  Version HGASM0202      Page 16

  10  0017              public _BAT_ADC_D
   9  0017              #line 9 "C:\Users\Tech\Desktop\GasDetector\Main/Main.h"
   9  0017              @HCCINIT .section 'data'
   9  0017              _BAT_ADC_D label byte
   9  0017              #pragma debug variable 12 1 _BAT_ADC_D "BAT_ADC_D"
   9  0017              	db 0
   9  000C              @ROMDATA_BASE .section inpage 'code'
   9  000C              	db 0
   9  0018              @HCCINIT .section 'data'
   9  0018              	db 0
   9  000C              @ROMDATA_BASE .section inpage 'code'
   9  000C              	db 0
   9  0019              @HCCINIT .section 'data'
   9  0019              public _BAT_ADC
   8  0019              #line 8 "C:\Users\Tech\Desktop\GasDetector\Main/Main.h"
   8  0019              @HCCINIT .section 'data'
   8  0019              _BAT_ADC label byte
   8  0019              #pragma debug variable 12 1 _BAT_ADC "BAT_ADC"
   8  0019              	db 0
   8  000D              @ROMDATA_BASE .section inpage 'code'
   8  000D              	db 0
   8  001A              @HCCINIT .section 'data'
   8  001A              	db 0
   8  000D              @ROMDATA_BASE .section inpage 'code'
   8  000D              	db 0
   8  001B              @HCCINIT .section 'data'
   8  001B              public _GAS_ERR
   7  001B              #line 7 "C:\Users\Tech\Desktop\GasDetector\Main/Main.h"
   7  001B              @HCCINIT .section 'data'
   7  001B              _GAS_ERR label byte
   7  001B              #pragma debug variable 12 1 _GAS_ERR "GAS_ERR"
   7  001B              	db 0
   7  000E              @ROMDATA_BASE .section inpage 'code'
   7  000E              	db 0
   7  001C              @HCCINIT .section 'data'
   7  001C              	db 0
   7  000E              @ROMDATA_BASE .section inpage 'code'
   7  000E              	db 0
   7  001D              @HCCINIT .section 'data'
   6  001D              #line 6 "C:\Users\Tech\Desktop\GasDetector\Main/Main.h"
   6  001D              public _SEG
   6  0010              @HCCINIT0 .section 'data'
   6  0010              _SEG	db 0
   6  0011              #pragma debug variable 8 1 _SEG "SEG"
   6  0011              
   6  001D              @HCCINIT .section 'data'
   6  001D              #pragma debug struct_end
   6  001D              #pragma debug struct_end
   6  001D              #pragma debug union_end
   6  001D              #pragma debug union_end
   6  001D              #pragma debug variable 46 1 ___lvrc "__lvrc" 1
   6  001D              #pragma debug struct_end
   6  001D              #pragma debug struct_end
   6  001D              #pragma debug union_end
   6  001D              #pragma debug union_end
   6  001D              #pragma debug variable 48 1 ___scc "__scc" 1
   6  001D              #pragma debug struct_end
   6  001D              #pragma debug struct_end
   6  001D              #pragma debug union_end
   6  001D              #pragma debug union_end
"File: Main/Main.h   Assembler  Version HGASM0202      Page 17

   6  001D              #pragma debug variable 50 1 ___pa "__pa" 1
   6  001D              #pragma debug struct_end
   6  001D              #pragma debug struct_end
   6  001D              #pragma debug union_end
   6  001D              #pragma debug union_end
   6  001D              #pragma debug variable 52 1 ___pac "__pac" 1
   6  001D              #pragma debug struct_end
   6  001D              #pragma debug struct_end
   6  001D              #pragma debug union_end
   6  001D              #pragma debug union_end
   6  001D              #pragma debug variable 54 1 ___lvpuc "__lvpuc" 1
   6  001D              #pragma debug struct_end
   6  001D              #pragma debug struct_end
   6  001D              #pragma debug union_end
   6  001D              #pragma debug union_end
   6  001D              #pragma debug variable 56 1 ___wdtc "__wdtc" 1
   6  001D              #pragma debug struct_end
   6  001D              #pragma debug struct_end
   6  001D              #pragma debug union_end
   6  001D              #pragma debug union_end
   6  001D              #pragma debug variable 58 1 ___pb "__pb" 1
   6  001D              #pragma debug struct_end
   6  001D              #pragma debug struct_end
   6  001D              #pragma debug union_end
   6  001D              #pragma debug union_end
   6  001D              #pragma debug variable 60 1 ___pbc "__pbc" 1
   6  001D              #pragma debug struct_end
   6  001D              #pragma debug struct_end
   6  001D              #pragma debug union_end
   6  001D              #pragma debug union_end
   6  001D              #pragma debug variable 62 1 ___pbpu "__pbpu" 1
   6  001D              #pragma debug struct_end
   6  001D              #pragma debug struct_end
   6  001D              #pragma debug union_end
   6  001D              #pragma debug union_end
   6  001D              #pragma debug variable 64 1 ___pc "__pc" 1
   6  001D              #pragma debug struct_end
   6  001D              #pragma debug struct_end
   6  001D              #pragma debug union_end
   6  001D              #pragma debug union_end
   6  001D              #pragma debug variable 66 1 ___pcc "__pcc" 1
   6  001D              #pragma debug struct_end
   6  001D              #pragma debug struct_end
   6  001D              #pragma debug union_end
   6  001D              #pragma debug union_end
   6  001D              #pragma debug variable 68 1 ___pdc "__pdc" 1
   6  001D              #pragma debug struct_end
   6  001D              #pragma debug struct_end
   6  001D              #pragma debug union_end
   6  001D              #pragma debug union_end
   6  001D              #pragma debug variable 70 1 ___pscr "__pscr" 1
   6  001D              #pragma debug struct_end
   6  001D              #pragma debug struct_end
   6  001D              #pragma debug union_end
   6  001D              #pragma debug union_end
   6  001D              #pragma debug variable 72 1 ___tb0c "__tb0c" 1
   6  001D              #pragma debug struct_end
   6  001D              #pragma debug struct_end
   6  001D              #pragma debug union_end
   6  001D              #pragma debug union_end
"File: Main/Main.h   Assembler  Version HGASM0202      Page 18

   6  001D              #pragma debug variable 74 1 ___tb1c "__tb1c" 1
   6  001D              #pragma debug struct_end
   6  001D              #pragma debug struct_end
   6  001D              #pragma debug union_end
   6  001D              #pragma debug union_end
   6  001D              #pragma debug variable 76 1 ___intc1 "__intc1" 1
   6  001D              #pragma debug struct_end
   6  001D              #pragma debug struct_end
   6  001D              #pragma debug union_end
   6  001D              #pragma debug union_end
   6  001D              #pragma debug variable 78 1 ___pas0 "__pas0" 1
   6  001D              #pragma debug struct_end
   6  001D              #pragma debug struct_end
   6  001D              #pragma debug union_end
   6  001D              #pragma debug union_end
   6  001D              #pragma debug variable 80 1 ___pas1 "__pas1" 1
   6  001D              #pragma debug struct_end
   6  001D              #pragma debug struct_end
   6  001D              #pragma debug union_end
   6  001D              #pragma debug union_end
   6  001D              #pragma debug variable 82 1 ___pbs0 "__pbs0" 1
   6  001D              #pragma debug struct_end
   6  001D              #pragma debug struct_end
   6  001D              #pragma debug union_end
   6  001D              #pragma debug union_end
   6  001D              #pragma debug variable 84 1 ___pbs1 "__pbs1" 1
   6  001D              #pragma debug struct_end
   6  001D              #pragma debug struct_end
   6  001D              #pragma debug union_end
   6  001D              #pragma debug union_end
   6  001D              #pragma debug variable 86 1 ___pcs0 "__pcs0" 1
   6  001D              #pragma debug struct_end
   6  001D              #pragma debug struct_end
   6  001D              #pragma debug union_end
   6  001D              #pragma debug union_end
   6  001D              #pragma debug variable 88 1 ___pcs1 "__pcs1" 1
   6  001D              #pragma debug struct_end
   6  001D              #pragma debug struct_end
   6  001D              #pragma debug union_end
   6  001D              #pragma debug union_end
   6  001D              #pragma debug variable 90 1 ___pds0 "__pds0" 1

   5  001D              #line 5 "c:\users\tech\desktop\gasdetector\Main\Main.c"
   5  0000              @code .section at 0 'code'
   5  0000  2800     R  	jmp _main_startup1
   5  0001              
   5  0001              extern _S_ADC_Init:near
   5  0001              extern _DisplayLooding:near
   5  0001              extern _S_READ_ADC:near
   5  0001              extern _Display_2:byte
   5  0001              extern _Display:near
   5  0001              
   5  0001              ; 
   5  0001              ; Generated by holtek-gcc v3.19, Tue May 21 17:55:26 2024
   5  0001              ; Rebuild 718
   5  0001              ; end of file


        0 Errors, 0