"File: Main.c        Assembler  Version HGASM0202      Page 1


   1  0000              ; Generated by holtek-gcc v3.19, Tue May 14 16:41:37 2024
   2  0000              ; 
   3  0000              ; Configuration:
   4  0000              ;       without long instruction
   5  0000              ;       Single ROM, Multi-RAM
   6  0000              ;       bits_per_rom_unit:16
   7  0000              ;       with mp1
   8  0000              ;       with tbhp, address(0x9)
   9  0000              ;          Use tabrd-const
  10  0000              ;       
  11  0000              ;       
  12  0000              ;       
  13  0000              ; use 'tabrdc' instead of 'tabrd'
  14  0000              ;       
  15  0000              
  16  0000              #pragma translator "holtek-gcc 4.6.4" "3.19" "build 20130711"
  17  0000              ; Rebuild 718
  18  0000              
  19  0000              ir equ [2]
  20  0000              mp equ [3]
  21  0000              sbp equ [1]
  22  0000              acc equ [5]
  23  0000              bp equ [4]
  24  0000              tblp equ [7]
  25  0000              tbhp equ [9]
  26  0000              status equ [10]
  27  0000              c equ [10].0
  28  0000              ac equ [10].1
  29  0000              z equ [10].2
  30  0000              ov equ [10].3
  31  0000              intc equ [11]
  32  0000              
  33  0000              extern ra:byte
  34  0000              extern rb:byte
  35  0000              extern rc:byte
  36  0000              extern rd:byte
  37  0000              extern re:byte
  38  0000              extern rf:byte
  39  0000              extern rg:byte
  40  0000              extern rh:byte
  41  0000              extern _Crom2Prom:near
  42  0000              extern _Crom2PromNext:near
  43  0000              
  44  0000              RAMBANK 0 @HCCINIT, @HCCINIT0
  45  0000              
  46  0000              RAMBANK 0 @BITDATASEC, @BITDATASEC1
  47  0000              @HCCINIT	.section 'data'
  48  0000              @HCCINIT0	.section 'data'
  49  0000              @BITDATASEC	 .section 'data'
  50  0000              @BITDATASEC1	 .section 'data'
  51  0000              
  52  0000              #pragma debug scope 1 1
  53  0000              	extern __DELAY3:near
  54  0000              	extern __DELAYX3:near
  55  0000              	extern __DELAYX6:near
  56  0000              	extern __DELAYY5:near
  57  0000              	extern __DELAYY3:near
  58  0000              	extern _builtin_holtek_delay_2:byte
  59  0000              ___scc equ [16]
"File: Main.ASM      Assembler  Version HGASM0202      Page 2

  60  0000              ___wdtc equ [25]
  61  0000              ___lvrc equ [12]
  62  0000              ___lvpuc equ [24]
  63  0000              ___pac equ [21]
  64  0000              ___pbc equ [28]
  65  0000              ___pcc equ [32]
  66  0000              ___pdc equ [36]
  67  0000              ___pas1 equ [86]
  68  0000              ___pas0 equ [85]
  69  0000              ___pbs1 equ [88]
  70  0000              ___pbs0 equ [87]
  71  0000              ___pcs1 equ [90]
  72  0000              ___pcs0 equ [89]
  73  0000              ___pds0 equ [91]
  74  0000              ___pbpu equ [29]
  75  0000              ___tb0c equ [76]
  76  0000              ___pscr equ [75]
  77  0000              ___intc1 equ [80]
  78  0000              ___tb1c equ [77]
  79  0000              ___sadc1 equ [42]
  80  0000              ___sadc0 equ [41]
  81  0000              ___pb equ [27]
  82  0000              ___pc equ [31]
  83  0000              ___pd equ [35]
  84  0000              ___pa equ [20]
  85  0000              public _main
  86  0000              #pragma debug scope 2 1

  18  0000              #line 18 "c:\users\tech\desktop\gasdetector\Main.c"
  18  0000              IFDEF WITH_DEFAULT_STARTUP
  18  0000              extern _main_initial0:near
  18  0000              extern _main_startup:near
  18  0000              ENDIF
  18  0000              
  18  0000              ROMBANK 0 @start
  18  0000              @start .section com_l 'code'
  18  0000              _main_startup1:
  18  0000              @start .section com_e 'code'
  18  0000  2800     R  	jmp _main
  18  0001              
  18  0000              _main .section 'code'
  18  0000              _main proc
  24  0000              #line 24 "c:\users\tech\desktop\gasdetector\Main.c"
  24  0000  3690        	clr [16].5
  25  0001              #line 25 "c:\users\tech\desktop\gasdetector\Main.c"
  25  0001  3710        	clr [16].6
  26  0002              #line 26 "c:\users\tech\desktop\gasdetector\Main.c"
  26  0002  3790        	clr [16].7
  27  0003              #line 27 "c:\users\tech\desktop\gasdetector\Main.c"
  27  0003  3510        	clr [16].2
  28  0004              #line 28 "c:\users\tech\desktop\gasdetector\Main.c"
  28  0004  3010        	set [16].0
  30  0005              #line 30 "c:\users\tech\desktop\gasdetector\Main.c"
  30  0005  0FAF        	mov a,175
  30  0006  0099        	mov [25],a
  32  0007              #line 32 "c:\users\tech\desktop\gasdetector\Main.c"
  32  0007  0FA5        	mov a,165
  32  0008  008C        	mov [12],a
  36  0009              #line 36 "c:\users\tech\desktop\gasdetector\Main.c"
  36  0009  3418        	clr [24].0
"File: Main.c        Assembler  Version HGASM0202      Page 3

  38  000A              #line 38 "c:\users\tech\desktop\gasdetector\Main.c"
  38  000A  0F69        	mov a,105
  38  000B  0695        	andm a,[21]
  39  000C              #line 39 "c:\users\tech\desktop\gasdetector\Main.c"
  39  000C  0F06        	mov a,6
  39  000D  0595        	orm a,[21]
  41  000E              #line 41 "c:\users\tech\desktop\gasdetector\Main.c"
  41  000E  071C        	mov a,[28]
  41  000F  0080     E  	mov ra,a
  41  0010  1F1C        	clr [28]
  42  0011              #line 42 "c:\users\tech\desktop\gasdetector\Main.c"
  42  0011  0F0B        	mov a,11
  42  0012  059C        	orm a,[28]
  44  0013              #line 44 "c:\users\tech\desktop\gasdetector\Main.c"
  44  0013  0720        	mov a,[32]
  44  0014  0080     E  	mov ra,a
  44  0015  1F20        	clr [32]
  47  0016              #line 47 "c:\users\tech\desktop\gasdetector\Main.c"
  47  0016  0724        	mov a,[36]
  47  0017  0080     E  	mov ra,a
  47  0018  1F24        	clr [36]
  50  0019              #line 50 "c:\users\tech\desktop\gasdetector\Main.c"
  50  0019  1F56        	clr [86]
  51  001A              #line 51 "c:\users\tech\desktop\gasdetector\Main.c"
  51  001A  0F08        	mov a,8
  51  001B  00D5        	mov [85],a
  53  001C              #line 53 "c:\users\tech\desktop\gasdetector\Main.c"
  53  001C  1F58        	clr [88]
  54  001D              #line 54 "c:\users\tech\desktop\gasdetector\Main.c"
  54  001D  0F0A        	mov a,10
  54  001E  00D7        	mov [87],a
  56  001F              #line 56 "c:\users\tech\desktop\gasdetector\Main.c"
  56  001F  1F5A        	clr [90]
  57  0020              #line 57 "c:\users\tech\desktop\gasdetector\Main.c"
  57  0020  1F59        	clr [89]
  59  0021              #line 59 "c:\users\tech\desktop\gasdetector\Main.c"
  59  0021  1F5B        	clr [91]
  61  0022              #line 61 "c:\users\tech\desktop\gasdetector\Main.c"
  61  0022  319D        	set [29].3
  65  0023              #line 65 "c:\users\tech\desktop\gasdetector\Main.c"
  65  0023  33CC        	set [76].7
  67  0024              #line 67 "c:\users\tech\desktop\gasdetector\Main.c"
  67  0024  304B        	set [75].0
  68  0025              #line 68 "c:\users\tech\desktop\gasdetector\Main.c"
  68  0025  30CB        	set [75].1
  70  0026              #line 70 "c:\users\tech\desktop\gasdetector\Main.c"
  70  0026  304C        	set [76].0
  71  0027              #line 71 "c:\users\tech\desktop\gasdetector\Main.c"
  71  0027  34CC        	clr [76].1
  72  0028              #line 72 "c:\users\tech\desktop\gasdetector\Main.c"
  72  0028  354C        	clr [76].2
  74  0029              #line 74 "c:\users\tech\desktop\gasdetector\Main.c"
  74  0029  3150        	set [80].2
  76  002A              #line 76 "c:\users\tech\desktop\gasdetector\Main.c"
  76  002A  33CD        	set [77].7
  78  002B              #line 78 "c:\users\tech\desktop\gasdetector\Main.c"
  78  002B  304D        	set [77].0
  79  002C              #line 79 "c:\users\tech\desktop\gasdetector\Main.c"
  79  002C  30CD        	set [77].1
  80  002D              #line 80 "c:\users\tech\desktop\gasdetector\Main.c"
"File: Main.c        Assembler  Version HGASM0202      Page 4

  80  002D  314D        	set [77].2
  82  002E              #line 82 "c:\users\tech\desktop\gasdetector\Main.c"
  82  002E  31D0        	set [80].3
  87  002F              #line 87 "c:\users\tech\desktop\gasdetector\Main.c"
  87  002F  352A        	clr [42].2
  88  0030              #line 88 "c:\users\tech\desktop\gasdetector\Main.c"
  88  0030  30AA        	set [42].1
  89  0031              #line 89 "c:\users\tech\desktop\gasdetector\Main.c"
  89  0031  302A        	set [42].0
  92  0032              #line 92 "c:\users\tech\desktop\gasdetector\Main.c"
  92  0032  32A9        	set [41].5
  94  0033              #line 94 "c:\users\tech\desktop\gasdetector\Main.c"
  94  0033  3229        	set [41].4
  97  0034              #line 97 "c:\users\tech\desktop\gasdetector\Main.c"
  97  0034  36AA        	clr [42].5
  98  0035              #line 98 "c:\users\tech\desktop\gasdetector\Main.c"
  98  0035  372A        	clr [42].6
  99  0036              #line 99 "c:\users\tech\desktop\gasdetector\Main.c"
  99  0036  37AA        	clr [42].7
 102  0037              #line 102 "c:\users\tech\desktop\gasdetector\Main.c"
 102  0037  31AA        	set [42].3
 103  0038              #line 103 "c:\users\tech\desktop\gasdetector\Main.c"
 103  0038  362A        	clr [42].4
 107  0039              #line 107 "c:\users\tech\desktop\gasdetector\Main.c"
 107  0039  32A9        	set [41].5
 110  003A              #line 110 "c:\users\tech\desktop\gasdetector\Main.c"
 110  003A  3429        	clr [41].0
 111  003B              #line 111 "c:\users\tech\desktop\gasdetector\Main.c"
 111  003B  34A9        	clr [41].1
 112  003C              #line 112 "c:\users\tech\desktop\gasdetector\Main.c"
 112  003C  3529        	clr [41].2
 113  003D              #line 113 "c:\users\tech\desktop\gasdetector\Main.c"
 113  003D  35A9        	clr [41].3
 116  003E              #line 116 "c:\users\tech\desktop\gasdetector\Main.c"
 116  003E  329B        	set [27].5
 117  003F              #line 117 "c:\users\tech\desktop\gasdetector\Main.c"
 117  003F  331B        	set [27].6
 118  0040              #line 118 "c:\users\tech\desktop\gasdetector\Main.c"
 118  0040  339B        	set [27].7
 119  0041              #line 119 "c:\users\tech\desktop\gasdetector\Main.c"
 119  0041  321B        	set [27].4
 120  0042              #line 120 "c:\users\tech\desktop\gasdetector\Main.c"
 120  0042  379F        	clr [31].7
 121  0043              #line 121 "c:\users\tech\desktop\gasdetector\Main.c"
 121  0043  3423        	clr [35].0
 122  0044              #line 122 "c:\users\tech\desktop\gasdetector\Main.c"
 122  0044  361F        	clr [31].4
 123  0045              #line 123 "c:\users\tech\desktop\gasdetector\Main.c"
 123  0045  3794        	clr [20].7
 124  0046              #line 124 "c:\users\tech\desktop\gasdetector\Main.c"
 124  0046  371F        	clr [31].6
 125  0047              #line 125 "c:\users\tech\desktop\gasdetector\Main.c"
 125  0047  34A3        	clr [35].1
 126  0048              #line 126 "c:\users\tech\desktop\gasdetector\Main.c"
 126  0048  359F        	clr [31].3
 128  0049              #line 128 "c:\users\tech\desktop\gasdetector\Main.c"
 128  0049  3429        	clr [41].0
 129  004A              #line 129 "c:\users\tech\desktop\gasdetector\Main.c"
 129  004A  34A9        	clr [41].1
 130  004B              #line 130 "c:\users\tech\desktop\gasdetector\Main.c"
"File: Main.c        Assembler  Version HGASM0202      Page 5

 130  004B  3529        	clr [41].2
 131  004C              #line 131 "c:\users\tech\desktop\gasdetector\Main.c"
 131  004C  35A9        	clr [41].3
 133  004D              #line 133 "c:\users\tech\desktop\gasdetector\Main.c"
 133  004D  3614        	clr [20].4
 134  004E              #line 134 "c:\users\tech\desktop\gasdetector\Main.c"
 134  004E  341F        	clr [31].0
 135  004F              #line 135 "c:\users\tech\desktop\gasdetector\Main.c"
 135  004F  349F        	clr [31].1
 136  0050              #line 136 "c:\users\tech\desktop\gasdetector\Main.c"
 136  0050  351F        	clr [31].2
 137  0051              #line 137 "c:\users\tech\desktop\gasdetector\Main.c"
 137  0051  311B        	set [27].2
 138  0052              #line 138 "c:\users\tech\desktop\gasdetector\Main.c"
 138  0052  2000     E  	call _S_ADC_Init
 138  0053  0700     R  	mov a,_delay[0]
 138  0054  0080     E  	mov rd,a
 138  0055  0700     R  	mov a,_delay[1]
 138  0056  0080     E  	mov re,a
 138  0057  0700     R  	mov a,_delay[2]
 138  0058  0080     E  	mov rf,a
 138  0059  0700     R  	mov a,_delay[3]
 138  005A  0080     E  	mov rg,a
 138  005B              _L2:
 140  005B              #line 140 "c:\users\tech\desktop\gasdetector\Main.c"
 140  005B  0F9F        	mov a,159
 140  005C  0200     E  	sub a,rd
 140  005D  0F86        	mov a,134
 140  005E  1200     E  	sbc a,re
 140  005F  0F01        	mov a,1
 140  0060  1200     E  	sbc a,rf
 140  0061  0F00        	mov a,0
 140  0062  1200     E  	sbc a,rg
 140  0063  380A        	snz c
 140  0064  2800     R  	jmp _L6
 142  0065              #line 142 "c:\users\tech\desktop\gasdetector\Main.c"
 142  0065  0F01        	mov a,1
 142  0066  0380     E  	addm a,rd
 142  0067  0F00        	mov a,0
 142  0068  1380     E  	adcm a,re
 142  0069  1380     E  	adcm a,rf
 142  006A  1380     E  	adcm a,rg
 142  006B  2800     R  	jmp _L2
 142  006C              _L6:
 145  006C              #line 145 "c:\users\tech\desktop\gasdetector\Main.c"
 145  006C  1F00     R  	clr _delay[0]
 145  006D  1F00     R  	clr _delay[1]
 145  006E  1F00     R  	clr _delay[2]
 145  006F  1F00     R  	clr _delay[3]
 147  0070              #line 147 "c:\users\tech\desktop\gasdetector\Main.c"
 147  0070  301F        	set [31].0
 147  0071              _L4:
 153  0071              #line 153 "c:\users\tech\desktop\gasdetector\Main.c"
 153  0071  309F        	set [31].1
 154  0072              #line 154 "c:\users\tech\desktop\gasdetector\Main.c"
 154  0072              ;# 154 "c:\users\tech\desktop\gasdetector\Main.c" 1
 154  0072              	IF 1000>263690
 154  0072              ;# 154 "c:\users\tech\desktop\gasdetector\Main.c" 1
 154  0072              	ERRMESSAGE 'the value 1000of the argument exceeds the maxinum 263690'
 154  0072              	ENDIF
"File: Main.c        Assembler  Version HGASM0202      Page 6

 154  0072              ;# 154 "c:\users\tech\desktop\gasdetector\Main.c" 1
 154  0072              	IF 1000<0
 154  0072              ;# 154 "c:\users\tech\desktop\gasdetector\Main.c" 1
 154  0072              	ERRMESSAGE 'the value 1000 of the argument exceeds the mininum 0'
 154  0072              	ENDIF
 154  0072              ;# 154 "c:\users\tech\desktop\gasdetector\Main.c" 1
 154  0072              	IF 1000==0
 154  0072              ;# 154 "c:\users\tech\desktop\gasdetector\Main.c" 1
 154  0072              	JMP $
 154  0072              	ENDIF
 154  0072              ;# 154 "c:\users\tech\desktop\gasdetector\Main.c" 1
 154  0072              	IF 1000==1
 154  0072              ;# 154 "c:\users\tech\desktop\gasdetector\Main.c" 1
 154  0072              	NOP
 154  0072              	ENDIF
 154  0072              ;# 154 "c:\users\tech\desktop\gasdetector\Main.c" 1
 154  0072              	IF 1000==2
 154  0072              ;# 154 "c:\users\tech\desktop\gasdetector\Main.c" 1
 154  0072              	NOP
 154  0072              ;# 154 "c:\users\tech\desktop\gasdetector\Main.c" 1
 154  0072              	NOP
 154  0072              	ENDIF
 154  0072              ;# 154 "c:\users\tech\desktop\gasdetector\Main.c" 1
 154  0072              	IF 1000==3
 154  0072              ;# 154 "c:\users\tech\desktop\gasdetector\Main.c" 1
 154  0072              	NOP
 154  0072              ;# 154 "c:\users\tech\desktop\gasdetector\Main.c" 1
 154  0072              	NOP
 154  0072              ;# 154 "c:\users\tech\desktop\gasdetector\Main.c" 1
 154  0072              	NOP
 154  0072              	ENDIF
 154  0072              ;# 154 "c:\users\tech\desktop\gasdetector\Main.c" 1
 154  0072              	IF (1000<8) AND (1000>3)
 154  0072              ;# 154 "c:\users\tech\desktop\gasdetector\Main.c" 1
 154  0072              	CALL __DELAY3 + 7 -1000
 154  0072              	ENDIF
 154  0072              ;# 154 "c:\users\tech\desktop\gasdetector\Main.c" 1
 154  0072              	IF (1000< 0404h) AND (1000>7)
 154  0072              ;# 154 "c:\users\tech\desktop\gasdetector\Main.c" 1
 154  0072  0FF9        	MOV A,1000/4-1
 154  0073              ;# 154 "c:\users\tech\desktop\gasdetector\Main.c" 1
 154  0073  2000     E  	CALL __DELAYX3 + 3 -(1000 MOD 4)
 154  0074              	ENDIF
 154  0074              ;# 154 "c:\users\tech\desktop\gasdetector\Main.c" 1
 154  0074              	IF (1000< 0x40B) AND (1000> 0403h)
 154  0074              ;# 154 "c:\users\tech\desktop\gasdetector\Main.c" 1
 154  0074              	MOV A,0 
 154  0074              ;# 154 "c:\users\tech\desktop\gasdetector\Main.c" 1
 154  0074              	CALL __DELAYX6 + 0x40a -1000
 154  0074              	ENDIF
 154  0074              ;# 154 "c:\users\tech\desktop\gasdetector\Main.c" 1
 154  0074              	IF (1000 >= 0x40b) AND ((((1000-9)%0402h)/4+1)>256)
 154  0074              ;# 154 "c:\users\tech\desktop\gasdetector\Main.c" 1
 154  0074              	MOV A,(1000-9)/0402h
 154  0074              ;# 154 "c:\users\tech\desktop\gasdetector\Main.c" 1
 154  0074              	MOV _builtin_holtek_delay_2,A
 154  0074              ;# 154 "c:\users\tech\desktop\gasdetector\Main.c" 1
 154  0074              	MOV A,0
 154  0074              ;# 154 "c:\users\tech\desktop\gasdetector\Main.c" 1
 154  0074              	CALL __DELAYY5 +5- (((1000-9)%0402h)%6)
"File: Main.c        Assembler  Version HGASM0202      Page 7

 154  0074              	ENDIF
 154  0074              ;# 154 "c:\users\tech\desktop\gasdetector\Main.c" 1
 154  0074              	IF (1000 >= 0x40b) AND ((((1000-9)%0402h)/4+1)<=256)
 154  0074              ;# 154 "c:\users\tech\desktop\gasdetector\Main.c" 1
 154  0074              	MOV A,(1000-9)/0402h
 154  0074              ;# 154 "c:\users\tech\desktop\gasdetector\Main.c" 1
 154  0074              	MOV _builtin_holtek_delay_2,A
 154  0074              ;# 154 "c:\users\tech\desktop\gasdetector\Main.c" 1
 154  0074              	MOV A,((1000-9)%0402h)/4+1
 154  0074              ;# 154 "c:\users\tech\desktop\gasdetector\Main.c" 1
 154  0074              	CALL __DELAYY3 +3-(((1000-9)%0402h)%4)
 154  0074              	ENDIF
 155  0074              #line 155 "c:\users\tech\desktop\gasdetector\Main.c"
 155  0074  349F        	clr [31].1
 156  0075              #line 156 "c:\users\tech\desktop\gasdetector\Main.c"
 156  0075              ;# 156 "c:\users\tech\desktop\gasdetector\Main.c" 1
 156  0075              	IF 1000>263690
 156  0075              ;# 156 "c:\users\tech\desktop\gasdetector\Main.c" 1
 156  0075              	ERRMESSAGE 'the value 1000of the argument exceeds the maxinum 263690'
 156  0075              	ENDIF
 156  0075              ;# 156 "c:\users\tech\desktop\gasdetector\Main.c" 1
 156  0075              	IF 1000<0
 156  0075              ;# 156 "c:\users\tech\desktop\gasdetector\Main.c" 1
 156  0075              	ERRMESSAGE 'the value 1000 of the argument exceeds the mininum 0'
 156  0075              	ENDIF
 156  0075              ;# 156 "c:\users\tech\desktop\gasdetector\Main.c" 1
 156  0075              	IF 1000==0
 156  0075              ;# 156 "c:\users\tech\desktop\gasdetector\Main.c" 1
 156  0075              	JMP $
 156  0075              	ENDIF
 156  0075              ;# 156 "c:\users\tech\desktop\gasdetector\Main.c" 1
 156  0075              	IF 1000==1
 156  0075              ;# 156 "c:\users\tech\desktop\gasdetector\Main.c" 1
 156  0075              	NOP
 156  0075              	ENDIF
 156  0075              ;# 156 "c:\users\tech\desktop\gasdetector\Main.c" 1
 156  0075              	IF 1000==2
 156  0075              ;# 156 "c:\users\tech\desktop\gasdetector\Main.c" 1
 156  0075              	NOP
 156  0075              ;# 156 "c:\users\tech\desktop\gasdetector\Main.c" 1
 156  0075              	NOP
 156  0075              	ENDIF
 156  0075              ;# 156 "c:\users\tech\desktop\gasdetector\Main.c" 1
 156  0075              	IF 1000==3
 156  0075              ;# 156 "c:\users\tech\desktop\gasdetector\Main.c" 1
 156  0075              	NOP
 156  0075              ;# 156 "c:\users\tech\desktop\gasdetector\Main.c" 1
 156  0075              	NOP
 156  0075              ;# 156 "c:\users\tech\desktop\gasdetector\Main.c" 1
 156  0075              	NOP
 156  0075              	ENDIF
 156  0075              ;# 156 "c:\users\tech\desktop\gasdetector\Main.c" 1
 156  0075              	IF (1000<8) AND (1000>3)
 156  0075              ;# 156 "c:\users\tech\desktop\gasdetector\Main.c" 1
 156  0075              	CALL __DELAY3 + 7 -1000
 156  0075              	ENDIF
 156  0075              ;# 156 "c:\users\tech\desktop\gasdetector\Main.c" 1
 156  0075              	IF (1000< 0404h) AND (1000>7)
 156  0075              ;# 156 "c:\users\tech\desktop\gasdetector\Main.c" 1
 156  0075  0FF9        	MOV A,1000/4-1
"File: Main.c        Assembler  Version HGASM0202      Page 8

 156  0076              ;# 156 "c:\users\tech\desktop\gasdetector\Main.c" 1
 156  0076  2000     E  	CALL __DELAYX3 + 3 -(1000 MOD 4)
 156  0077              	ENDIF
 156  0077              ;# 156 "c:\users\tech\desktop\gasdetector\Main.c" 1
 156  0077              	IF (1000< 0x40B) AND (1000> 0403h)
 156  0077              ;# 156 "c:\users\tech\desktop\gasdetector\Main.c" 1
 156  0077              	MOV A,0 
 156  0077              ;# 156 "c:\users\tech\desktop\gasdetector\Main.c" 1
 156  0077              	CALL __DELAYX6 + 0x40a -1000
 156  0077              	ENDIF
 156  0077              ;# 156 "c:\users\tech\desktop\gasdetector\Main.c" 1
 156  0077              	IF (1000 >= 0x40b) AND ((((1000-9)%0402h)/4+1)>256)
 156  0077              ;# 156 "c:\users\tech\desktop\gasdetector\Main.c" 1
 156  0077              	MOV A,(1000-9)/0402h
 156  0077              ;# 156 "c:\users\tech\desktop\gasdetector\Main.c" 1
 156  0077              	MOV _builtin_holtek_delay_2,A
 156  0077              ;# 156 "c:\users\tech\desktop\gasdetector\Main.c" 1
 156  0077              	MOV A,0
 156  0077              ;# 156 "c:\users\tech\desktop\gasdetector\Main.c" 1
 156  0077              	CALL __DELAYY5 +5- (((1000-9)%0402h)%6)
 156  0077              	ENDIF
 156  0077              ;# 156 "c:\users\tech\desktop\gasdetector\Main.c" 1
 156  0077              	IF (1000 >= 0x40b) AND ((((1000-9)%0402h)/4+1)<=256)
 156  0077              ;# 156 "c:\users\tech\desktop\gasdetector\Main.c" 1
 156  0077              	MOV A,(1000-9)/0402h
 156  0077              ;# 156 "c:\users\tech\desktop\gasdetector\Main.c" 1
 156  0077              	MOV _builtin_holtek_delay_2,A
 156  0077              ;# 156 "c:\users\tech\desktop\gasdetector\Main.c" 1
 156  0077              	MOV A,((1000-9)%0402h)/4+1
 156  0077              ;# 156 "c:\users\tech\desktop\gasdetector\Main.c" 1
 156  0077              	CALL __DELAYY3 +3-(((1000-9)%0402h)%4)
 156  0077              	ENDIF
 156  0077  2800     R  	jmp _L4
 156  0078  2800     R  	jmp $
 156  0079              _main endp
 156  0079              
 156  0079              @dummy endp
 156  0079              
 156  0079              #line 156 "c:\users\tech\desktop\gasdetector\Main.c"
 156  0079              #pragma debug scope 1 1
 156  0079              public _SEGMENT_number
 156  0079              #pragma debug scope 3 1
 473  0079              #line 473 "c:\users\tech\desktop\gasdetector\Main.c"
 473  0000              _SEGMENT_number .section 'code'
 473  0000              _SEGMENT_number proc
 473  0000  00              local _SEGMENT_number_2 db 1 dup(?)	; 0,1
 473  0000  0080     E  	mov ra,a
 473  0001  0080     R  	mov _SEGMENT_number_2[0],a
 473  0002              #pragma debug variable 8 3 _SEGMENT_number_2+0 "n"
 475  0002              #line 475 "c:\users\tech\desktop\gasdetector\Main.c"
 475  0002  0700     E  	mov a,ra
 475  0003  0A00        	sub a,0
 475  0004  3D0A        	sz z
 475  0005  2800     R  	jmp _L9
 475  0006  0A01        	sub a,(1)-(0)
 475  0007  3D0A        	sz z
 475  0008  2800     R  	jmp _L10
 475  0009              #line 475 "c:\users\tech\desktop\gasdetector\Main.c"
 475  0009  0700     E  	mov a,ra
 475  000A  0A02        	sub a,2
"File: Main.c        Assembler  Version HGASM0202      Page 9

 475  000B  3D0A        	sz z
 475  000C  2800     R  	jmp _L11
 475  000D  0A01        	sub a,(3)-(2)
 475  000E  3D0A        	sz z
 475  000F  2800     R  	jmp _L12
 475  0010  0700     E  	mov a,ra
 475  0011  0A04        	sub a,4
 475  0012  3D0A        	sz z
 475  0013  2800     R  	jmp _L13
 475  0014  0A01        	sub a,(5)-(4)
 475  0015  3D0A        	sz z
 475  0016  2800     R  	jmp _L14
 475  0017  0700     E  	mov a,ra
 475  0018  0A06        	sub a,6
 475  0019  3D0A        	sz z
 475  001A  2800     R  	jmp _L15
 475  001B  0A01        	sub a,(7)-(6)
 475  001C  3D0A        	sz z
 475  001D  2800     R  	jmp _L16
 475  001E  0700     E  	mov a,ra
 475  001F  0A08        	sub a,8
 475  0020  3D0A        	sz z
 475  0021  2800     R  	jmp _L17
 475  0022  0A01        	sub a,(9)-(8)
 475  0023  3D0A        	sz z
 475  0024  2800     R  	jmp _L18
 475  0025  0700     E  	mov a,ra
 475  0026  0A2D        	sub a,45
 475  0027  3D0A        	sz z
 475  0028  2800     R  	jmp _L19
 475  0029  0A35        	sub a,(98)-(45)
 475  002A  3D0A        	sz z
 475  002B  2800     R  	jmp _L20
 475  002C  0700     E  	mov a,ra
 475  002D  0A6C        	sub a,108
 475  002E  3D0A        	sz z
 475  002F  2800     R  	jmp _L21
 475  0030  0A02        	sub a,(110)-(108)
 475  0031  3D0A        	sz z
 475  0032  2800     R  	jmp _L22
 475  0033  0700     E  	mov a,ra
 475  0034  0A6F        	sub a,111
 475  0035  390A        	snz z
 475  0036  2800     R  	jmp _L7
 596  0037              #line 596 "c:\users\tech\desktop\gasdetector\Main.c"
 596  0037  339F        	set [31].7
 597  0038              #line 597 "c:\users\tech\desktop\gasdetector\Main.c"
 597  0038  3023        	set [35].0
 598  0039              #line 598 "c:\users\tech\desktop\gasdetector\Main.c"
 598  0039  361F        	clr [31].4
 598  003A  2800     R  	jmp _L31
 598  003B              _L9:
 478  003B              #line 478 "c:\users\tech\desktop\gasdetector\Main.c"
 478  003B  379F        	clr [31].7
 479  003C              #line 479 "c:\users\tech\desktop\gasdetector\Main.c"
 479  003C  3423        	clr [35].0
 480  003D              #line 480 "c:\users\tech\desktop\gasdetector\Main.c"
 480  003D  361F        	clr [31].4
 480  003E  2800     R  	jmp _L25
 480  003F              _L10:
"File: Main.c        Assembler  Version HGASM0202      Page 10

 487  003F              #line 487 "c:\users\tech\desktop\gasdetector\Main.c"
 487  003F  339F        	set [31].7
 487  0040  2800     R  	jmp _L29
 487  0041              _L11:
 496  0041              #line 496 "c:\users\tech\desktop\gasdetector\Main.c"
 496  0041  379F        	clr [31].7
 497  0042              #line 497 "c:\users\tech\desktop\gasdetector\Main.c"
 497  0042  3423        	clr [35].0
 498  0043              #line 498 "c:\users\tech\desktop\gasdetector\Main.c"
 498  0043  321F        	set [31].4
 498  0044  2800     R  	jmp _L31
 498  0045              _L12:
 505  0045              #line 505 "c:\users\tech\desktop\gasdetector\Main.c"
 505  0045  379F        	clr [31].7
 506  0046              #line 506 "c:\users\tech\desktop\gasdetector\Main.c"
 506  0046  3423        	clr [35].0
 507  0047              #line 507 "c:\users\tech\desktop\gasdetector\Main.c"
 507  0047  361F        	clr [31].4
 508  0048              #line 508 "c:\users\tech\desktop\gasdetector\Main.c"
 508  0048  3794        	clr [20].7
 508  0049  2800     R  	jmp _L28
 508  004A              _L13:
 514  004A              #line 514 "c:\users\tech\desktop\gasdetector\Main.c"
 514  004A  339F        	set [31].7
 515  004B              #line 515 "c:\users\tech\desktop\gasdetector\Main.c"
 515  004B  3423        	clr [35].0
 516  004C              #line 516 "c:\users\tech\desktop\gasdetector\Main.c"
 516  004C  361F        	clr [31].4
 517  004D              #line 517 "c:\users\tech\desktop\gasdetector\Main.c"
 517  004D  3394        	set [20].7
 517  004E  2800     R  	jmp _L35
 517  004F              _L14:
 523  004F              #line 523 "c:\users\tech\desktop\gasdetector\Main.c"
 523  004F  379F        	clr [31].7
 524  0050              #line 524 "c:\users\tech\desktop\gasdetector\Main.c"
 524  0050  3023        	set [35].0
 524  0051  2800     R  	jmp _L36
 524  0052              _L15:
 532  0052              #line 532 "c:\users\tech\desktop\gasdetector\Main.c"
 532  0052  379F        	clr [31].7
 532  0053  2800     R  	jmp _L33
 532  0054              _L16:
 541  0054              #line 541 "c:\users\tech\desktop\gasdetector\Main.c"
 541  0054  379F        	clr [31].7
 541  0055              _L29:
 542  0055              #line 542 "c:\users\tech\desktop\gasdetector\Main.c"
 542  0055  3423        	clr [35].0
 543  0056              #line 543 "c:\users\tech\desktop\gasdetector\Main.c"
 543  0056  361F        	clr [31].4
 544  0057              #line 544 "c:\users\tech\desktop\gasdetector\Main.c"
 544  0057  3394        	set [20].7
 545  0058              #line 545 "c:\users\tech\desktop\gasdetector\Main.c"
 545  0058  331F        	set [31].6
 546  0059              #line 546 "c:\users\tech\desktop\gasdetector\Main.c"
 546  0059  30A3        	set [35].1
 546  005A  2800     R  	jmp _L27
 546  005B              _L17:
 550  005B              #line 550 "c:\users\tech\desktop\gasdetector\Main.c"
 550  005B  379F        	clr [31].7
 551  005C              #line 551 "c:\users\tech\desktop\gasdetector\Main.c"
"File: Main.c        Assembler  Version HGASM0202      Page 11

 551  005C  3423        	clr [35].0
 551  005D  2800     R  	jmp _L34
 551  005E              _L18:
 559  005E              #line 559 "c:\users\tech\desktop\gasdetector\Main.c"
 559  005E  379F        	clr [31].7
 560  005F              #line 560 "c:\users\tech\desktop\gasdetector\Main.c"
 560  005F  3423        	clr [35].0
 560  0060              _L36:
 561  0060              #line 561 "c:\users\tech\desktop\gasdetector\Main.c"
 561  0060  361F        	clr [31].4
 562  0061              #line 562 "c:\users\tech\desktop\gasdetector\Main.c"
 562  0061  3794        	clr [20].7
 562  0062              _L35:
 563  0062              #line 563 "c:\users\tech\desktop\gasdetector\Main.c"
 563  0062  331F        	set [31].6
 563  0063  2800     R  	jmp _L32
 563  0064              _L20:
 569  0064              #line 569 "c:\users\tech\desktop\gasdetector\Main.c"
 569  0064  339F        	set [31].7
 569  0065              _L33:
 570  0065              #line 570 "c:\users\tech\desktop\gasdetector\Main.c"
 570  0065  3023        	set [35].0
 570  0066              _L34:
 571  0066              #line 571 "c:\users\tech\desktop\gasdetector\Main.c"
 571  0066  361F        	clr [31].4
 572  0067              #line 572 "c:\users\tech\desktop\gasdetector\Main.c"
 572  0067  3794        	clr [20].7
 573  0068              #line 573 "c:\users\tech\desktop\gasdetector\Main.c"
 573  0068  371F        	clr [31].6
 573  0069              _L32:
 574  0069              #line 574 "c:\users\tech\desktop\gasdetector\Main.c"
 574  0069  34A3        	clr [35].1
 574  006A  2800     R  	jmp _L26
 574  006B              _L21:
 578  006B              #line 578 "c:\users\tech\desktop\gasdetector\Main.c"
 578  006B  339F        	set [31].7
 579  006C              #line 579 "c:\users\tech\desktop\gasdetector\Main.c"
 579  006C  3023        	set [35].0
 580  006D              #line 580 "c:\users\tech\desktop\gasdetector\Main.c"
 580  006D  321F        	set [31].4
 580  006E              _L25:
 581  006E              #line 581 "c:\users\tech\desktop\gasdetector\Main.c"
 581  006E  3794        	clr [20].7
 582  006F              #line 582 "c:\users\tech\desktop\gasdetector\Main.c"
 582  006F  371F        	clr [31].6
 583  0070              #line 583 "c:\users\tech\desktop\gasdetector\Main.c"
 583  0070  34A3        	clr [35].1
 583  0071              _L27:
 584  0071              #line 584 "c:\users\tech\desktop\gasdetector\Main.c"
 584  0071  319F        	set [31].3
 585  0072              #line 585 "c:\users\tech\desktop\gasdetector\Main.c"
 585  0072  2800     R  	jmp _L7
 585  0073              _L22:
 587  0073              #line 587 "c:\users\tech\desktop\gasdetector\Main.c"
 587  0073  339F        	set [31].7
 588  0074              #line 588 "c:\users\tech\desktop\gasdetector\Main.c"
 588  0074  3023        	set [35].0
 589  0075              #line 589 "c:\users\tech\desktop\gasdetector\Main.c"
 589  0075  361F        	clr [31].4
 590  0076              #line 590 "c:\users\tech\desktop\gasdetector\Main.c"
"File: Main.c        Assembler  Version HGASM0202      Page 12

 590  0076  3394        	set [20].7
 590  0077  2800     R  	jmp _L30
 590  0078              _L31:
 599  0078              #line 599 "c:\users\tech\desktop\gasdetector\Main.c"
 599  0078  3794        	clr [20].7
 599  0079              _L30:
 600  0079              #line 600 "c:\users\tech\desktop\gasdetector\Main.c"
 600  0079  371F        	clr [31].6
 600  007A  2800     R  	jmp _L24
 600  007B              _L19:
 605  007B              #line 605 "c:\users\tech\desktop\gasdetector\Main.c"
 605  007B  339F        	set [31].7
 606  007C              #line 606 "c:\users\tech\desktop\gasdetector\Main.c"
 606  007C  3023        	set [35].0
 607  007D              #line 607 "c:\users\tech\desktop\gasdetector\Main.c"
 607  007D  321F        	set [31].4
 608  007E              #line 608 "c:\users\tech\desktop\gasdetector\Main.c"
 608  007E  3394        	set [20].7
 608  007F              _L28:
 609  007F              #line 609 "c:\users\tech\desktop\gasdetector\Main.c"
 609  007F  331F        	set [31].6
 609  0080              _L24:
 610  0080              #line 610 "c:\users\tech\desktop\gasdetector\Main.c"
 610  0080  30A3        	set [35].1
 610  0081              _L26:
 611  0081              #line 611 "c:\users\tech\desktop\gasdetector\Main.c"
 611  0081  359F        	clr [31].3
 611  0082              _L7:
 611  0082  0003        	ret
 611  0083              _SEGMENT_number endp
 611  0083              #line 611 "c:\users\tech\desktop\gasdetector\Main.c"
 611  0083              #pragma debug scope 1 1
 611  0083              public _Seggg
 611  0083              #pragma debug scope 4 1
 618  0083              #line 618 "c:\users\tech\desktop\gasdetector\Main.c"
 618  0000              _Seggg .section 'code'
 618  0000              _Seggg proc
 618  0000              public _Seggg_2
 618  0000  0002[           local _Seggg_2 db 2 dup(?)	; 2,0
            00
            ]
 618  0002              #pragma debug pointer 42 7 4
 618  0002              #pragma debug pointer 42 7 4
 618  0002              #pragma debug variable 42 4 _Seggg_2+0 "PTR"
 618  0000  0003        	ret
 618  0001              _Seggg endp
 618  0001              #line 618 "c:\users\tech\desktop\gasdetector\Main.c"
 618  0001              #pragma debug scope 1 1
 618  0001              public _b
 618  0000              @HCCINIT	.section 'data'
  13  0000              #line 13 "c:\users\tech\desktop\gasdetector\Main.c"
  13  0000              @HCCINIT .section 'data'
  13  0000              _b label byte
  13  0000              #pragma debug array 43 7 2 1
  13  0000              #pragma debug array 43 7 2 1
  13  0000              #pragma debug variable 43 1 _b "b"
  13  0000              	db 061h,00h
  13  0000              @ROMDATA_BASE .section inpage 'code'
  13  0000              	db 061h
  13  0001              	db 00h
"File: Main.c        Assembler  Version HGASM0202      Page 13

  13  0002              @HCCINIT	.section 'data'
  13  0002              public _a
  12  0002              #line 12 "c:\users\tech\desktop\gasdetector\Main.c"
  12  0002              @HCCINIT .section 'data'
  12  0002              _a label byte
  12  0002              #pragma debug variable 11 1 _a "a"
  12  0002              	dw 10
  12  0001              @ROMDATA_BASE .section inpage 'code'
  12  0001  000A        	dc 10
  12  0004              @HCCINIT .section 'data'
  11  0004              #line 11 "c:\users\tech\desktop\gasdetector\Main.c"
  11  0004              public _PtrChar
  11  0000              @HCCINIT0 .section 'data'
  11  0000  0002[       _PtrChar	db 2 dup(0)
            00
            ]
  11  0002              #pragma debug pointer 44 7 1
  11  0002              #pragma debug pointer 44 7 1
  11  0002              #pragma debug variable 44 1 _PtrChar "PtrChar"
  11  0002              
  11  0004              @HCCINIT .section 'data'
  10  0004              #line 10 "c:\users\tech\desktop\gasdetector\Main.c"
  10  0004              public _PtrInt
  10  0002              @HCCINIT0 .section 'data'
  10  0002  0002[       _PtrInt	db 2 dup(0)
            00
            ]
  10  0004              #pragma debug pointer 45 11 1
  10  0004              #pragma debug pointer 45 11 1
  10  0004              #pragma debug variable 45 1 _PtrInt "PtrInt"
  10  0004              
  10  0004              @HCCINIT .section 'data'
   8  0004              #line 8 "c:\users\tech\desktop\gasdetector\Main.c"
   8  0004              public _Input
   8  0004              @HCCINIT0 .section 'data'
   8  0004  0002[       _Input	db 2 dup(0)
            00
            ]
   8  0006              #pragma debug pointer 46 7 1
   8  0006              #pragma debug pointer 46 7 1
   8  0006              #pragma debug variable 46 1 _Input "Input"
   8  0006              
   8  0004              @HCCINIT .section 'data'

  26  0004              #line 26 "C:\Users\Tech\Desktop\GasDetector/main.h"
  26  0004              public _falt_gas
  26  0000              @BITDATASEC .section 'data'
  26  0000  00          _falt_gas	dbit 0
  26  0001              #pragma debug variable 2 1 _falt_gas "falt_gas"
  26  0001              
  26  0004              @HCCINIT .section 'data'
  26  0004              #line 26 "C:\Users\Tech\Desktop\GasDetector/main.h"
  26  0004              public _falt_BAT
  26  0001              @BITDATASEC .section 'data'
  26  0000              _falt_BAT	dbit 0
  26  0001              #pragma debug variable 2 1 _falt_BAT "falt_BAT"
  26  0001              
  26  0004              @HCCINIT .section 'data'
  25  0004              #line 25 "C:\Users\Tech\Desktop\GasDetector/main.h"
  25  0004              public _fire_gas
"File: GasDetector/main.h  Assembler  Version HGASM0202      Page 14

  25  0001              @BITDATASEC .section 'data'
  25  0000              _fire_gas	dbit 0
  25  0001              #pragma debug variable 2 1 _fire_gas "fire_gas"
  25  0001              
  25  0004              @HCCINIT .section 'data'
  25  0004              public _PB
  24  0004              #line 24 "C:\Users\Tech\Desktop\GasDetector/main.h"
  24  0001              @BITDATASEC .section 'data'
  24  0000              _PB	dbit 0
  24  0001              #pragma debug variable 2 1 _PB "PB"
  23  0001              #line 23 "C:\Users\Tech\Desktop\GasDetector/main.h"
  23  0001              public _disply_bat
  23  0001              @BITDATASEC .section 'data'
  23  0000              _disply_bat	dbit 0
  23  0001              #pragma debug variable 2 1 _disply_bat "disply_bat"
  23  0001              
  23  0004              @HCCINIT .section 'data'
  21  0004              #line 21 "C:\Users\Tech\Desktop\GasDetector/main.h"
  21  0004              public _Digit
  21  0006              @HCCINIT0 .section 'data'
  21  0006  0008[       _Digit	db 8 dup(0)
            00
            ]
  21  000E              #pragma debug array 47 12 4 1
  21  000E              #pragma debug array 47 12 4 1
  21  000E              #pragma debug variable 47 1 _Digit "Digit"
  21  000E              
  21  0004              @HCCINIT .section 'data'
  21  0004              public _AN
  19  0004              #line 19 "C:\Users\Tech\Desktop\GasDetector/main.h"
  19  0004              @HCCINIT .section 'data'
  19  0004              _AN label byte
  19  0004              #pragma debug variable 8 1 _AN "AN"
  19  0004              	db 0
  19  0002              @ROMDATA_BASE .section inpage 'code'
  19  0002              	db 0
  19  0005              @HCCINIT .section 'data'
  19  0005              public _delay
  17  0005              #line 17 "C:\Users\Tech\Desktop\GasDetector/main.h"
  17  0005              @HCCINIT .section 'data'
  17  0005              _delay label byte
  17  0005              #pragma debug variable 14 1 _delay "delay"
  17  0005              	db 0
  17  0003              @ROMDATA_BASE .section inpage 'code'
  17  0003              	db 0
  17  0006              @HCCINIT .section 'data'
  17  0006              	db 0
  17  0003              @ROMDATA_BASE .section inpage 'code'
  17  0003              	db 0
  17  0007              @HCCINIT .section 'data'
  17  0007              	db 0
  17  0004              @ROMDATA_BASE .section inpage 'code'
  17  0004              	db 0
  17  0008              @HCCINIT .section 'data'
  17  0008              	db 0
  17  0004              @ROMDATA_BASE .section inpage 'code'
  17  0004              	db 0
  17  0009              @HCCINIT .section 'data'
  17  0009              public _disply
  15  0009              #line 15 "C:\Users\Tech\Desktop\GasDetector/main.h"
"File: GasDetector/main.h  Assembler  Version HGASM0202      Page 15

  15  0009              @HCCINIT .section 'data'
  15  0009              _disply label byte
  15  0009              #pragma debug variable 12 1 _disply "disply"
  15  0009              	db 0
  15  0005              @ROMDATA_BASE .section inpage 'code'
  15  0005              	db 0
  15  000A              @HCCINIT .section 'data'
  15  000A              	db 0
  15  0005              @ROMDATA_BASE .section inpage 'code'
  15  0005              	db 0
  15  000B              @HCCINIT .section 'data'
  15  000B              public _BAT
  13  000B              #line 13 "C:\Users\Tech\Desktop\GasDetector/main.h"
  13  000B              @HCCINIT .section 'data'
  13  000B              _BAT label byte
  13  000B              #pragma debug variable 8 1 _BAT "BAT"
  13  000B              	db 0
  13  0006              @ROMDATA_BASE .section inpage 'code'
  13  0006              	db 0
  13  000C              @HCCINIT .section 'data'
  13  000C              public _t1
  12  000C              #line 12 "C:\Users\Tech\Desktop\GasDetector/main.h"
  12  000C              @HCCINIT .section 'data'
  12  000C              _t1 label byte
  12  000C              #pragma debug variable 12 1 _t1 "t1"
  12  000C              	db 0
  12  0006              @ROMDATA_BASE .section inpage 'code'
  12  0006              	db 0
  12  000D              @HCCINIT .section 'data'
  12  000D              	db 0
  12  0007              @ROMDATA_BASE .section inpage 'code'
  12  0007              	db 0
  12  000E              @HCCINIT .section 'data'
  12  000E              public _adc
  11  000E              #line 11 "C:\Users\Tech\Desktop\GasDetector/main.h"
  11  000E              @HCCINIT .section 'data'
  11  000E              _adc label byte
  11  000E              #pragma debug variable 8 1 _adc "adc"
  11  000E              	db 0
  11  0007              @ROMDATA_BASE .section inpage 'code'
  11  0007              	db 0
  11  000F              @HCCINIT .section 'data'
  11  000F              public _adc_GAS
   9  000F              #line 9 "C:\Users\Tech\Desktop\GasDetector/main.h"
   9  000F              @HCCINIT .section 'data'
   9  000F              _adc_GAS label byte
   9  000F              #pragma debug variable 12 1 _adc_GAS "adc_GAS"
   9  000F              	db 0
   9  0008              @ROMDATA_BASE .section inpage 'code'
   9  0008              	db 0
   9  0010              @HCCINIT .section 'data'
   9  0010              	db 0
   9  0008              @ROMDATA_BASE .section inpage 'code'
   9  0008              	db 0
   9  0011              @HCCINIT .section 'data'
   9  0011              public _BAT_ADC_D
   8  0011              #line 8 "C:\Users\Tech\Desktop\GasDetector/main.h"
   8  0011              @HCCINIT .section 'data'
   8  0011              _BAT_ADC_D label byte
   8  0011              #pragma debug variable 12 1 _BAT_ADC_D "BAT_ADC_D"
"File: GasDetector/main.h  Assembler  Version HGASM0202      Page 16

   8  0011              	db 0
   8  0009              @ROMDATA_BASE .section inpage 'code'
   8  0009              	db 0
   8  0012              @HCCINIT .section 'data'
   8  0012              	db 0
   8  0009              @ROMDATA_BASE .section inpage 'code'
   8  0009              	db 0
   8  0013              @HCCINIT .section 'data'
   8  0013              public _BAT_ADC
   7  0013              #line 7 "C:\Users\Tech\Desktop\GasDetector/main.h"
   7  0013              @HCCINIT .section 'data'
   7  0013              _BAT_ADC label byte
   7  0013              #pragma debug variable 12 1 _BAT_ADC "BAT_ADC"
   7  0013              	db 0
   7  000A              @ROMDATA_BASE .section inpage 'code'
   7  000A              	db 0
   7  0014              @HCCINIT .section 'data'
   7  0014              	db 0
   7  000A              @ROMDATA_BASE .section inpage 'code'
   7  000A              	db 0
   7  0015              @HCCINIT .section 'data'
   7  0015              public _GAS_ERR
   6  0015              #line 6 "C:\Users\Tech\Desktop\GasDetector/main.h"
   6  0015              @HCCINIT .section 'data'
   6  0015              _GAS_ERR label byte
   6  0015              #pragma debug variable 12 1 _GAS_ERR "GAS_ERR"
   6  0015              	db 0
   6  000B              @ROMDATA_BASE .section inpage 'code'
   6  000B              	db 0
   6  0016              @HCCINIT .section 'data'
   6  0016              	db 0
   6  000B              @ROMDATA_BASE .section inpage 'code'
   6  000B              	db 0
   6  0017              @HCCINIT .section 'data'
   5  0017              #line 5 "C:\Users\Tech\Desktop\GasDetector/main.h"
   5  0017              public _SEG
   5  000E              @HCCINIT0 .section 'data'
   5  000E              _SEG	db 0
   5  000F              #pragma debug variable 8 1 _SEG "SEG"
   5  000F              
   5  0017              @HCCINIT .section 'data'
   5  0017              #pragma debug struct_end
   5  0017              #pragma debug struct_end
   5  0017              #pragma debug union_end
   5  0017              #pragma debug union_end
   5  0017              #pragma debug variable 49 1 ___lvrc "__lvrc" 1
   5  0017              #pragma debug struct_end
   5  0017              #pragma debug struct_end
   5  0017              #pragma debug union_end
   5  0017              #pragma debug union_end
   5  0017              #pragma debug variable 51 1 ___scc "__scc" 1
   5  0017              #pragma debug struct_end
   5  0017              #pragma debug struct_end
   5  0017              #pragma debug union_end
   5  0017              #pragma debug union_end
   5  0017              #pragma debug variable 53 1 ___pa "__pa" 1
   5  0017              #pragma debug struct_end
   5  0017              #pragma debug struct_end
   5  0017              #pragma debug union_end
   5  0017              #pragma debug union_end
"File: GasDetector/main.h  Assembler  Version HGASM0202      Page 17

   5  0017              #pragma debug variable 55 1 ___pac "__pac" 1
   5  0017              #pragma debug struct_end
   5  0017              #pragma debug struct_end
   5  0017              #pragma debug union_end
   5  0017              #pragma debug union_end
   5  0017              #pragma debug variable 57 1 ___lvpuc "__lvpuc" 1
   5  0017              #pragma debug struct_end
   5  0017              #pragma debug struct_end
   5  0017              #pragma debug union_end
   5  0017              #pragma debug union_end
   5  0017              #pragma debug variable 59 1 ___wdtc "__wdtc" 1
   5  0017              #pragma debug struct_end
   5  0017              #pragma debug struct_end
   5  0017              #pragma debug union_end
   5  0017              #pragma debug union_end
   5  0017              #pragma debug variable 61 1 ___pb "__pb" 1
   5  0017              #pragma debug struct_end
   5  0017              #pragma debug struct_end
   5  0017              #pragma debug union_end
   5  0017              #pragma debug union_end
   5  0017              #pragma debug variable 63 1 ___pbc "__pbc" 1
   5  0017              #pragma debug struct_end
   5  0017              #pragma debug struct_end
   5  0017              #pragma debug union_end
   5  0017              #pragma debug union_end
   5  0017              #pragma debug variable 65 1 ___pbpu "__pbpu" 1
   5  0017              #pragma debug struct_end
   5  0017              #pragma debug struct_end
   5  0017              #pragma debug union_end
   5  0017              #pragma debug union_end
   5  0017              #pragma debug variable 67 1 ___pc "__pc" 1
   5  0017              #pragma debug struct_end
   5  0017              #pragma debug struct_end
   5  0017              #pragma debug union_end
   5  0017              #pragma debug union_end
   5  0017              #pragma debug variable 69 1 ___pcc "__pcc" 1
   5  0017              #pragma debug struct_end
   5  0017              #pragma debug struct_end
   5  0017              #pragma debug union_end
   5  0017              #pragma debug union_end
   5  0017              #pragma debug variable 71 1 ___pd "__pd" 1
   5  0017              #pragma debug struct_end
   5  0017              #pragma debug struct_end
   5  0017              #pragma debug union_end
   5  0017              #pragma debug union_end
   5  0017              #pragma debug variable 73 1 ___pdc "__pdc" 1
   5  0017              #pragma debug struct_end
   5  0017              #pragma debug struct_end
   5  0017              #pragma debug union_end
   5  0017              #pragma debug union_end
   5  0017              #pragma debug variable 75 1 ___sadc0 "__sadc0" 1
   5  0017              #pragma debug struct_end
   5  0017              #pragma debug struct_end
   5  0017              #pragma debug union_end
   5  0017              #pragma debug union_end
   5  0017              #pragma debug variable 77 1 ___sadc1 "__sadc1" 1
   5  0017              #pragma debug struct_end
   5  0017              #pragma debug struct_end
   5  0017              #pragma debug union_end
   5  0017              #pragma debug union_end
"File: GasDetector/main.h  Assembler  Version HGASM0202      Page 18

   5  0017              #pragma debug variable 79 1 ___pscr "__pscr" 1
   5  0017              #pragma debug struct_end
   5  0017              #pragma debug struct_end
   5  0017              #pragma debug union_end
   5  0017              #pragma debug union_end
   5  0017              #pragma debug variable 81 1 ___tb0c "__tb0c" 1
   5  0017              #pragma debug struct_end
   5  0017              #pragma debug struct_end
   5  0017              #pragma debug union_end
   5  0017              #pragma debug union_end
   5  0017              #pragma debug variable 83 1 ___tb1c "__tb1c" 1
   5  0017              #pragma debug struct_end
   5  0017              #pragma debug struct_end
   5  0017              #pragma debug union_end
   5  0017              #pragma debug union_end
   5  0017              #pragma debug variable 85 1 ___intc1 "__intc1" 1
   5  0017              #pragma debug struct_end
   5  0017              #pragma debug struct_end
   5  0017              #pragma debug union_end
   5  0017              #pragma debug union_end
   5  0017              #pragma debug variable 87 1 ___pas0 "__pas0" 1
   5  0017              #pragma debug struct_end
   5  0017              #pragma debug struct_end
   5  0017              #pragma debug union_end
   5  0017              #pragma debug union_end
   5  0017              #pragma debug variable 89 1 ___pas1 "__pas1" 1
   5  0017              #pragma debug struct_end
   5  0017              #pragma debug struct_end
   5  0017              #pragma debug union_end
   5  0017              #pragma debug union_end
   5  0017              #pragma debug variable 91 1 ___pbs0 "__pbs0" 1
   5  0017              #pragma debug struct_end
   5  0017              #pragma debug struct_end
   5  0017              #pragma debug union_end
   5  0017              #pragma debug union_end
   5  0017              #pragma debug variable 93 1 ___pbs1 "__pbs1" 1
   5  0017              #pragma debug struct_end
   5  0017              #pragma debug struct_end
   5  0017              #pragma debug union_end
   5  0017              #pragma debug union_end
   5  0017              #pragma debug variable 95 1 ___pcs0 "__pcs0" 1
   5  0017              #pragma debug struct_end
   5  0017              #pragma debug struct_end
   5  0017              #pragma debug union_end
   5  0017              #pragma debug union_end
   5  0017              #pragma debug variable 97 1 ___pcs1 "__pcs1" 1
   5  0017              #pragma debug struct_end
   5  0017              #pragma debug struct_end
   5  0017              #pragma debug union_end
   5  0017              #pragma debug union_end
   5  0017              #pragma debug variable 99 1 ___pds0 "__pds0" 1

  18  0017              #line 18 "c:\users\tech\desktop\gasdetector\Main.c"
  18  0000              @code .section at 0 'code'
  18  0000  2800     R  	jmp _main_startup1
  18  0001              
  18  0001              extern _S_ADC_Init:near
  18  0001              
  18  0001              ; 
  18  0001              ; Generated by holtek-gcc v3.19, Tue May 14 16:41:37 2024
"File: Main.c        Assembler  Version HGASM0202      Page 19

  18  0001              ; Rebuild 718
  18  0001              ; end of file


        0 Errors, 0